0001   0000             	.define	PRINT	 sep r4	\	.dw PRINT_SUB
0002   0000             	.define	PRINTB	 sep r4	\	.dw PRINTB_SUB
0003   0000             	.define	PUT_CHAR sep r4	\	.dw PUT_CHAR_SUB
0004   0000             	.define	PUT_BYTE sep r4	\	.dw PUT_BYTE_SUB
0005   0000             	.define	PUT32_RA sep r4	\	.dw PUT32_RA_SUB
0006   0000             	.define	LDI_RA   sep r4	\	.dw LDI_RA_SUB	\	.dw 
0007   0000             	.define	LDI_RB   sep r4	\	.dw LDI_RB_SUB	\	.dw 
0008   0000             	.define	LDI_RC   sep r4	\	.dw LDI_RC_SUB	\	.dw 
0009   0000             	.define	LDI_RD   sep r4	\	.dw LDI_RD_SUB	\	.dw 
0010   0000             	.define	LDI_RE   sep r4	\	.dw LDI_RE_SUB	\	.dw 
0011   0000             	.define	LD_RA    sep r4	\	.dw LD_RA_SUB	\	.dw 
0012   0000             	.define	LD_RB    sep r4	\	.dw LD_RB_SUB	\	.dw 
0013   0000             	.define	LD_RC    sep r4	\	.dw LD_RC_SUB	\	.dw 
0014   0000             	.define	LD_RD    sep r4	\	.dw LD_RD_SUB	\	.dw 
0015   0000             	.define	ST_RA    sep r4	\	.dw ST_RA_SUB	\	.dw 
0016   0000             	.define	ST_RB    sep r4	\	.dw ST_RB_SUB	\	.dw 
0017   0000             	.define	ST_RC    sep r4	\	.dw ST_RC_SUB	\	.dw 
0018   0000             	.define	ST_RD    sep r4	\	.dw ST_RD_SUB	\	.dw 
0019   0000             	.define	CLR32_RA sep r4	\	.dw CLR32_RA_SUB
0020   0000             	.define	CLR32_RB sep r4	\	.dw CLR32_RB_SUB
0021   0000             	.define	CLR32_RE sep r4	\	.dw CLR32_RE_SUB
0022   0000             	.define	LDI32_RA sep r4	\	.dw LDI32_RA_SUB \	.dw 
0023   0000             	.define	LDI32_RB sep r4	\	.dw LDI32_RB_SUB \	.dw 
0024   0000             	.define STD	 sep r4 \	.dw STD_SUB	 \	.dw 
0025   0000             	.define LDD	 sep r4 \	.dw LDD_SUB	 \	.dw 
0026   0000             	.define ADD_RA_RB sep r4 \	.dw ADD_RA_RB_SUB
0027   0000             	.define	RX_CHAR	sep r4	\	.dw RXCHAR_SUB
0028   0000             
0029   0000             
0030   0000             ;AVI ELF II, VIP Personality ROM, SD Card Reader
0031   0000             ;Josh Bensadon
0032   0000             ;Jan 9, 2024
0033   0000             ;
0034   0000             ;The AVI ELF II is Ed Keefe's reproduction of the Netronics ELF II computer.
0035   0000             ;It looks very similar to the orginal, but offers 32K of RAM and elevated 
0036   0000             ;Keyboard & Display boards.
0037   0000             ;
0038   0000             ;This ROM can make use of a VIP Keypad Personality module to run the ELF II
0039   0000             ;as a RCA VIP.
0040   0000             ;
0041   0000             ;The SD Card Reader will map this ROM at 0000 after RESET for boot.  
0042   0000             ;
0043   0000             ;During Boot:
0044   0000             ;0000-7FFF 32K ROM
0045   0000             ;8000-BFFF 16K MAIN RAM WINDOW (Bank switched for 64K)
0046   0000             ;C000-FFFE 16K BOOT RAM
0047   0000             ;FFFF-FFFF SD Card memory mapped
0048   0000             
0049   0000             ;RAM (Main board RAM)
0050   0000             ;8000-BFFF 16K of 64K BIG_RAM on SD Card Reader, four banks of 16K
0051   0000             ;
0052   0000             ;ROM will either load a file from the SD Card to the 64K BIG_RAM or
0053   0000             ;load the BIG_RAM with VIP system at 8000 (optionally with CHIP-8).
0054   0000             ;
0055   0000             ;When MAIN_RAM is loaded, the BOOT process will end with the remap the MAIN_RAM
0056   0000             ;to the full 64K space and execute at a selected location.
0057   0000             ;
0058   0000             ;This ROM code will first send a serial message through Q to say "Hi"
0059   0000             ;Next it will test if the VIP Keypad is present.
0060   0000             ;If Keypad is present, a check if "C" is pressed, if so, VIP software will
0061   0000             ;be loaded and ran (this emulates a VIP)
0062   0000             ;
0063   0000             ;ROM will serve as a serial monitor and will display files from the SD Card
0064   0000             ;Files will be displayed on screen through the Pixie chip.
0065   0000             ;The VIP Keypad will be used as input to select SD Card files.
0066   0000             ;If the VIP keypad is not available, then it will use the ELF II keypad.
0067   0000             ;To make ELF II keypad work on single key strokes (like the VIP Keypad), the
0068   0000             ;data available line from the 74C923 will be monitored by EF3.
0069   0000             ;
0070   0000             ;
0071   0000             ;Command prompt:
0072   0000             ;DIR - Directory
0073   0000             ;I - Initialize FAT, read root directory
0074   0000             ;B - Select BOOT RAM
0075   0000             ;M - Select MAIN RAM
0076   0000             ;S - Sector Read.  S [####]  Use 4 digit hex number for Sector to read.
0077   0000             ;    Sector is loaded into RAM Buffer at C000.  Each sector is 512 bytes
0078   0000             ;    If you ommit number, the next sector will be read.
0079   0000             ;D - Dumps RAM in binary format.  D [####] [/S]
0080   0000             ;    Reads which ever RAM is selected (BOOT or MAIN)
0081   0000             ;    When reading BOOT, the /S will read the Shadow RAM in place of ROM (lower 32K)
0082   0000             ;E - Edit / Write to RAM.  E [####].  Writes to selected BOOT or MAIN ram.
0083   0000             ;    Any writes to BOOT under 32K will go to the Shadow RAM.
0084   0000             ;X - Execute program in MAIN, BOOT or SHADOW RAM.  X [####] [/R/S]
0085   0000             ;    It will default to the start address of a HEX file or allow a manually entered address.
0086   0000             ;    Switch /R will select BOOT RAM space.  /R/S will select the SHADOW RAM (lower 32K)
0087   0000             ;CD- Change Directory.  CD [dirname]
0088   0000             ;    Use CD .. to go to parrent directoy
0089   0000             ;    Use CD \  for root directory
0090   0000             ;V - View File on the SD Card.  V filename [/A | /H | /B]
0091   0000             ;    File is understood to be ASCII if the extension is .TXT, Intel HEX if .HEX or just
0092   0000             ;    Binary if .BIN or alternately B## where ## is a valid 2 digit hex page.
0093   0000             ;    /A will override the extension and force an ASCII dump
0094   0000             ;    /H will override with HEX (just the same as ASCII)
0095   0000             ;    /B will override with Binary
0096   0000             ;L - Load File on the SD Card.  L filename [####] [/A | /H | /B] [/R]
0097   0000             ;    /A, /H, /B will override the file type
0098   0000             ;    ASCII or BINARY files will load at ####.
0099   0000             ;    Binary files with the extension B## will load at page ##
0100   0000             ;    eg. L pattern.b2a will load at page 2A00
0101   0000             ;    /R will save the file to BOOT RAM space
0102   0000             ;    HEX files will always load at the addresses given in the file
0103   0000             ;
0104   0000             ;
0105   0000             ;
0106   0000             ;VIP Keypad will pull /EF3 line low when addressing a key down.  
0107   0000             ;0-F must be scanned by OUT 2
0108   0000             ;
0109   0000             ;ELF II Keypad will pull /EF3 line high when a key is down.
0110   0000             ;Key can be read as low nibble from INP 4
0111   0000             ;
0112   0000             ;CONTROL BYTE - OUT 5
0113   0000             ;High nibble selects the bit, low bit selects set/reset
0114   0000             ;
0115   0000             ;3 bits select EF4 connections
0116   0000             ;
0117   0000             ;30 - SD Write LED ON
0118   0000             ;31 - SD Write LED OFF
0119   0000             ;
0120   0000             ;
0121   0000             ;This code is for the 4051 production board
0122   0000             ;
0123   0000             ;
0124   0000             ;20/10/00 = 000 - not connected 
0125   0000             ;20/10/01 = 001 - EF4 x45 VIP KP Detect
0126   0000             ;20/11/00 = 010 - EF4 x47 ELF Keypad
0127   0000             ;20/11/01 = 011 - EF4 x47 ELF Keypad
0128   0000             ;21/10/00 = 100 - not connected
0129   0000             ;21/10/01 = 101 - EF4 Card Write Protect Sense Switch
0130   0000             ;21/11/00 = 110 - EF4 Card Detect
0131   0000             ;21/11/01 = 111 - EF4 Card Detect
0132   0000             ;
0133   0000             ;
0134   0000             ;Test VIP Keypad present - Bus Pin x45 VIP KP Detect connected to /EF4
0135   0000             ;BN4 Branches if NOT present
0136   0000             ;
0137   0000             ;
0138   0000             ;Test ELF Keypad present - Bus Pin x47 74C923 Strobe connected to /EF4
0139   0000             ;     /Q Pulls line for open test.
0140   0000             ;     Test with Q LOW (/Q=HIGH)
0141   0000             ;       -/EF3 low, B3 branches, ELF Keyboard present (strobe is holding low)
0142   0000             ;       -/EF3 high, Either no Keyboard or a Key is pressed, need to test with Q low
0143   0000             ;       Test with Q HIGH
0144   0000             ;         -/EF4 low, B3 branches, = no 74C923 chip (line is floating)
0145   0000             ;	  -/EF4 high, 74C923 strobe is high, means a key is pressed.
0146   0000             ;
0147   0000             ;     Continue control connection to x47 if ELF Keyboard is to be used, single keys are detected by /EF4
0148   0000             ;
0149   0000             ;
0150   0000             ;30 - DSR OFF
0151   0000             ;31 - DSR ON
0152   0000             ;
0153   0000             ;40 - \/ MAIN RAM Bank 0
0154   0000             ;50 - /\
0155   0000             ;
0156   0000             ;41 - \/ MAIN RAM Bank 1
0157   0000             ;50 - /\
0158   0000             ;
0159   0000             ;40 - \/ MAIN RAM Bank 2
0160   0000             ;51 - /\
0161   0000             ;
0162   0000             ;41 - \/ MAIN RAM Bank 3
0163   0000             ;51 - /\
0164   0000             ;
0165   0000             ;60 - ROM Selected (in bottom 32K)
0166   0000             ;61 - BOOT RAM selected (in bottom 32K)
0167   0000             ;
0168   0000             ;70 - SD Card Deselect
0169   0000             ;71 - SD Card Select
0170   0000             ;
0171   0000             ;
0172   0000             ;Logic of ROM code:
0173   0000             ;Start:
0174   0000             ; Say "Hi" to Serial output
0175   0000             ; IF VIP Keypad present THEN
0176   0000             ;    IF VIP Keypad C pressed THEN 
0177   0000             ;       Say "Running VIP"
0178   0000             ;       Load VIP to 8000 and RUN it
0179   0000             ;    END IF
0180   0000             ; END IF
0181   0000             ; Test Pixie Present
0182   0000             ; Start Pixie if present
0183   0000             ; TEST 8K RAM & Say results
0184   0000             ; IF VIP Keypad present THEN
0185   0000             ;    Say VIP Keypad present
0186   0000             ;    Select RX routine that scans VIP Keypad
0187   0000             ; ELSEIF ELF Keypad present THEN
0188   0000             ;    Say ELF Keypad present
0189   0000             ;    Select RX routine that scan ELF Keypad
0190   0000             ; ELSE
0191   0000             ;    Say no Keypad detected
0192   0000             ; ENDIF
0193   0000             ; 
0194   0000             ;
0195   0000             ; If Keypad and PIXIE is present, then the option to run from Keypad or Serial is available.
0196   0000             ; Otherwise, user can only work through the Serial.
0197   0000             ; 
0198   0000             ;
0199   0000             ;
0200   0000             ;This source file is assembled using TASM
0201   0000             ;
0202   0000             ;	Examples of coding pseudo ops
0203   0000             ;
0204   0000             ;	These Defines set pseudo op codes
0205   0000             ;
0206   0000             
0207   0000             	.define CALL	sep r4	\	.dw
0208   0000             	.define RETN	sep r5
0209   0000             
0210   0000             
0211   0000             ;LDI_RA:	RA=M(PC), PC=PC+2
0212   0000             ;
0213   0000             
0214   0000             
0215   0000             DIRFLAG	.EQU	'('
0216   0000             
0217   0000             	.define NEWPAGE	.org	(($ + 00FFH) & 0FF00H)	;(($-1)/256+1)*256
0218   0000             	.define ENDOFPAGE .org	($ | 00FFH)		;($/256)*256+255
0219   0000             
0220   0000             
0221   0000             ;            #include "equates"
0222   0000             ;
0223   0000             ;	CALL	NEWLINE		;This gets replaced with two lines:
0224   0000             ;				SEP R4
0225   0000             ;				.dw NEWLINE
0226   0000             ;
0227   0000             ;	PRINT                   ;Print is just a call to "PRINT_SUB"
0228   0000             ;	.text "Hello\000"
0229   0000             ;
0230   0000             ;        ldi callr/256          ;Get High and Low Bytes of memory labels
0231   0000             ;        phi r4
0232   0000             ;        ldi callr%256
0233   0000             ;        plo r4
0234   0000             ;
0235   0000             ;
0236   0000             ;            [<label>] .TEXT   "<string>"
0237   0000             ;
0238   0000             ;            Escape
0239   0000             ;            Sequence        Description
0240   0000             ;            ------------------------------
0241   0000             ;            \n              Line Feed
0242   0000             ;            \r              Carriage return
0243   0000             ;            \b              Backspace
0244   0000             ;            \t              Tab
0245   0000             ;            \f              Formfeed
0246   0000             ;            \\              Backslash
0247   0000             ;            \"              Quote
0248   0000             ;            \000            Octal value of character
0249   0000             ;
0250   0000             ;
0251   0000             ;
0252   0000             ;
0253   0000             ;
0254   0000             ;
0255   0000             ;	RAM
0256   0000             ;7E00	Video Display Page
0257   0000             ;7F7F	Stack
0258   0000             ;
0259   0000             ;
0260   0000             ; register usage
0261   0000             ;
0262   0000             ;	R0 = 1861 video DMA pointer
0263   0000             ;	R1 = 1861 interrupt handler PC
0264   0000             ;	R2 = stack pointer
0265   0000             ;	R3 = main PC
0266   0000             ;	R4 = call subroutine PC   (SCRT)
0267   0000             ;	R5 = return subroutine PC (SCRT)
0268   0000             ;	R6 = return address       (SCRT)
0269   0000             ;	R7 = 
0270   0000             ;	R8 = 
0271   0000             ;	R9 = High is system STATUS, Low is PC_POS
0272   0000             ;	RA = scratch
0273   0000             ;	RB = scratch
0274   0000             ;	RC = Cursor position (Line/Pixel Position)
0275   0000             ;	RD = scratch, Display pointer during Screen PRINT
0276   0000             ;	RE = scratch
0277   0000             ;	RF = scratch, HIGH saves D during CALL/RET (SCRT)
0278   0000             ;
0279   0000             ;
0280   0000             ;	R9.1 = STATUS
0281   0000             ;	bit0 	PIXIE PRESENT (Cleared if Serial Interface selected)
0282   0000             ;	bit1	Cursor Enable
0283   0000             ;	bit2	Set if RAM good
0284   0000             ;	bit3	not used
0285   0000             ;	bit4	SD Card Inserted
0286   0000             ;	bit5	Set to use FILE BLOCK MODE (process entire sector vs byte)
0287   0000             ;	bit6	Set if ELF Keyboard detected, 
0288   0000             ;		used for boot up display and Menu Type Selection
0289   0000             ;	bit7	Set if VIP Keyboard detected
0290   0000             ;		used for boot up display and Menu Type Selection
0291   0000             ;		and used in RXChar to selecttype of Keyboard to read
0292   0000             
0293   0000             
0294   0000             
0295   0000             	.MSFIRST	;when using .dw, save Most significant byte first (Big Endian)
0296   0000             	.NOPAGE
0297   0000             	
0298   0000             	.ORG	0000h
0299   0000             
0300   0000 90          		GHI	R0	;Set page of subroutines
0301   0001 B1          		PHI	R1	;
0302   0002 B4          		PHI	R4
0303   0003 B5          		PHI	R5
0304   0004 B9          		PHI	R9	;Clear system status
0305   0005 F8 1B       		LDI	ISR%256
0306   0007 A1          		PLO	R1		;R1 = 1861 interrupt handler
0307   0008             
0308   0008 F8 FE       		LDI	0FEh	;R2 = FEFEh STACK
0309   000A B2          		PHI	R2
0310   000B A2          		PLO	R2
0311   000C             
0312   000C F8 39       		LDI	CALLR%256
0313   000E A4          		PLO	R4
0314   000F F8 4C       		LDI	RETNR%256
0315   0011 A5          		PLO	R5
0316   0012             
0317   0012 F8 00       		LDI	MAINRUN/256
0318   0014 B3          		PHI	R3
0319   0015 F8 5A       		LDI	MAINRUN%256
0320   0017 A3          		PLO	R3
0321   0018 D3          		SEP	R3		;New PC
0322   0019             
0323   0019             ;**********************************************************************
0324   0019             ;**********************************************************************
0325   0019             ;**               SCRT Subroutines and ISR                           **
0326   0019             ;** Interrupt:  X,P->T, 2->X, 1->P, 0->IE                            **
0327   0019             ;**********************************************************************
0328   0019             ;**********************************************************************
0329   0019             
0330   0019             ; interrupt routine for 64x32 format (1 page display memory)
0331   0019             ;
0332   0019 42          INTRET:		LDA R2
0333   001A 70          		RET		;<-return with interrupts enabled
0334   001B             ISR:                    ;->entry with P=R1
0335   001B 22          		DEC R2		;point to free location on stack
0336   001C 78          		SAV		;  push T
0337   001D 22          		DEC R2
0338   001E 52          		STR R2		;  save D
0339   001F C4          		NOP		;3 cycles of NOP for sync
0340   0020             
0341   0020 F8 00       		LDI	0	;reset DMA pointer to start of
0342   0022 A0          		PLO	R0	;  display RAM
0343   0023 F8 FF       		LDI	VIDEO_PAGE/256
0344   0025 B0          		PHI	R0
0345   0026 40          		LDA	R0	;Cannot use LDN R0, that is IDLE command
0346   0027 B0          		PHI	R0
0347   0028 20          		DEC	R0
0348   0029             
0349   0029             				;set D=line start address (6 cycles)
0350   0029             ISRDISP:                                           
0351   0029 80          		GLO R0
0352   002A             				;1861 displays a line (8 cycles)
0353   002A E2          		SEX R2
0354   002B E2          		SEX R2		;reset line start address (6 cycles)
0355   002C 20          		DEC R0
0356   002D             				;1861 displays line a 2nd time (8 cycles)
0357   002D A0          		PLO R0
0358   002E E2          		SEX R2		;reset line start address (6 cycles)
0359   002F 20          		DEC R0
0360   0030             				;1861 displays line a 3rd time (8 cycles)
0361   0030 A0          		PLO R0
0362   0031 E2          		SEX R2		;reset line start address (6 cycles)
0363   0032 20          		DEC R0
0364   0033             				;1861 displays line a 4th time (8 cycles)
0365   0033 A0          		PLO R0		;set R0.0=line start address
0366   0034 3C 29       		BN1 ISRDISP	;loop 32 times
0367   0036 30 19               	BR  INTRET
0368   0038             
0369   0038             
0370   0038             
0371   0038             ;**********************************************************************
0372   0038             ;Call Subroutine SCRT
0373   0038             ;call with R2 pointing to free stack byte
0374   0038             ;Pushes R6 to Stack
0375   0038             ;Sets R6 to Return Address (2 bytes after Sep R4 call)
0376   0038             ;Returns execution to R3
0377   0038             ;----------------------------------------------------------------------
0378   0038 D3          	SEP R3	;go to called program
0379   0039 BF          CALLR:	PHI RF	;Save D
0380   003A E2          	SEX R2	;X=Stack
0381   003B 22          	DEC R2  ;Point to free byte on stack
0382   003C 86          	GLO R6	;Push r6 to Stack, big endian
0383   003D 73          	STXD
0384   003E 96          	GHI R6
0385   003F 73          	STXD
0386   0040 83          	GLO R3	;Fetch Unmodified Return Address
0387   0041 A6          	PLO R6
0388   0042 93          	GHI R3
0389   0043 B6          	PHI R6
0390   0044 46          	LDA R6	;get subroutine address AND modify return address
0391   0045 B3          	PHI R3	;to skip inline data
0392   0046 46          	LDA R6	;save call to address to R3
0393   0047 A3          	PLO R3
0394   0048 9F          	GHI RF	;restore D
0395   0049 30 38       	BR  CALLR-1	;jump for SEP R4 re-entery
0396   004B             
0397   004B             
0398   004B             ;**********************************************************************
0399   004B             ;Return Subroutine SCRT
0400   004B             ;Call with R2 pointing to free stack byte below return address
0401   004B             ;Restores Return Address in R6 to R3
0402   004B             ;Pops R6 from stack
0403   004B             ;Returns execution to R3
0404   004B             ;----------------------------------------------------------------------
0405   004B D3          	SEP R3	;go to calling program
0406   004C BF          RETNR:	PHI RF	;Save D
0407   004D 96          	GHI R6	;Fetch Return Address
0408   004E B3          	PHI R3	;back to R3
0409   004F 86          	GLO R6
0410   0050 A3          	PLO R3
0411   0051 12          	INC R2	;Pop previous R6 from stack
0412   0052 42          	LDA R2
0413   0053 B6          	PHI R6	;
0414   0054 E2          	SEX R2	;X=Stack
0415   0055 42          	LDA R2
0416   0056 A6          	PLO R6	;
0417   0057 9F          	GHI RF	;restore D
0418   0058 30 4B       	BR  RETNR-1
0419   005A             
0420   005A             
0421   005A             ;*********************************************************************************
0422   005A             
0423   005A E3          MAINRUN		SEX	R3
0424   005B 65          		OUT	5
0425   005C 70          		.DB	70h	;SD Card not selected
0426   005D 65          		OUT	5
0427   005E 31          		.DB	31h	;DSR ON
0428   005F E3          		SEX	R3
0429   0060 E3          		SEX	R3
0430   0061             
0431   0061             
0432   0061             ;-------------------------------------------------------------------- KEYPAD TESTING
0433   0061             				; IF VIP Keypad present THEN
0434   0061             				;    IF VIP Keypad C pressed THEN 
0435   0061             				;       Say "Running VIP"
0436   0061             				;       Load VIP to 8000 and RUN it
0437   0061             				;    END IF
0438   0061             				; END IF
0439   0061 E3          		SEX	R3
0440   0062 62          		OUT	2	;Select a key that isn't likely to be pressed
0441   0063 07          		.DB	07h	;Test key 7 (Not Key C)
0442   0064 65          		OUT	5
0443   0065 20          		.DB	20h	;001 = Enable x45 sensing
0444   0066 65          		OUT	5
0445   0067 10          		.DB	10h	;
0446   0068 65          		OUT	5
0447   0069 01          		.DB	01h	;
0448   006A             
0449   006A 3F 7A       		BN4	TVK_END	;Jump no VIP Keyboard
0450   006C             				
0451   006C 65          		OUT	5	;CONTROL BYTE = No Test, EF4=free
0452   006D 00          		.DB	00h	;000 = Disable x45 sensing
0453   006E             
0454   006E 36 7A       		B3	TVK_END	;Jump if EF3 low
0455   0070             
0456   0070 62          		OUT	2	;
0457   0071 0C          		.DB	0Ch	;Test for key C
0458   0072 F8 80       		LDI	80h	;STATUS = VIP KEYPAD PRESENT
0459   0074 B9          		PHI	R9
0460   0075 3E 85       		BN3	TK_END	;C not pressed
0461   0077             
0462   0077 C0 13 FD    		LBR	GOVIP	;Copy VIP to ROM @ 8000, Jump!
0463   007A             		
0464   007A 65          TVK_END		OUT	5	;CONTROL BYTE = No Test, EF3=free
0465   007B 11          		.DB	11h	;010 = Map 74C923 to /EF4
0466   007C             				;Test for ELF Keyboard (74C923) Present
0467   007C             				;
0468   007C 7A          		REQ		;Pull line high (Q is inverted)
0469   007D 37 82       		B4	TEK_OK	;Jump if line is LOW (doesn't pull high, C923 holds it low)
0470   007F 7B          		SEQ		;Pull line low to test if C923 holds it high (key pressed)
0471   0080 37 85       		B4	TK_END
0472   0082             
0473   0082 F8 40       TEK_OK		LDI	40h	;STATUS = ELF KEYPAD PRESENT
0474   0084 B9          		PHI	R9
0475   0085 7A          TK_END		REQ
0476   0086             		
0477   0086 65          		OUT	5
0478   0087 21          		.DB	21h	;111 = Enable Card Detect sensing
0479   0088 65          		OUT	5
0480   0089 11          		.DB	11h	;
0481   008A 65          		OUT	5
0482   008B 01          		.DB	01h	;
0483   008C             
0484   008C             
0485   008C             ;#########################################  PAGE 1 ENDS HERE
0486   008C             
0487   008C D4          		CALL	SELECT_SERIAL
0487   008D 1F D3       
0488   008F D4          		CALL	MSG_WELCOME
0488   0090 03 D2       
0489   0092             
0490   0092             		#INCLUDE "AEVIP-TR.ASM"	;TEST RAM
0001+  0092             
0002+  0092             ;TEST RAM.  Write sequence, read sequence
0003+  0092             ;Sequence is 0 to X, where X is 3, then increments by 4
0004+  0092             ;This will hit 29 primes 3, 7, 11, 19, 23, 31, 43, 47, 59, 67, 71, 79, 83, 103,
0005+  0092             ;107, 127, 131, 139, 151, 163, 167, 179, 191, 199, 211, 223, 227, 239, 251
0006+  0092             ;
0007+  0092             ;Sequence is 0 to X, where X is 179, then increments by 24
0008+  0092             ;This will hit 3 prime numbers
0009+  0092             ;
0010+  0092             ;RAM 6000 - 7FFF
0011+  0092             
0012+  0092 EA          		SEX	RA
0013+  0093             		
0014+  0093             ;DEBUG		LDI	179
0015+  0093             				;251 252 253 254 255
0016+  0093 F8 FB       		LDI	251	;=FB  FC  FD  FE  FF
0017+  0095 AC          RT_TT_LOOP	PLO	RC	;X = 3, This is the count of the sequence
0018+  0096 AB          		PLO	RB	;Save count to Counter
0019+  0097             
0020+  0097 F8 C0       		LDI	0C0h	;RA = C000, points to RAM to test
0021+  0099 BA          		PHI	RA
0022+  009A F8 00       		LDI	000h
0023+  009C AA          		PLO	RA
0024+  009D             
0025+  009D 2B          RT_SV_LOOP	DEC	RB	;Decrement counter
0026+  009E 8B          		GLO	RB
0027+  009F 5A          		STR	RA	;Store in RAM and Decrement.
0028+  00A0 3A A4       		BNZ	RT_SV_DO
0029+  00A2 8C          		GLO	RC
0030+  00A3 AB          		PLO	RB
0031+  00A4 1A          RT_SV_DO	INC	RA	
0032+  00A5 9A          		GHI	RA	;Test for FFFF
0033+  00A6 FC 01       		ADI	1
0034+  00A8 3A 9D       		BNZ	RT_SV_LOOP
0035+  00AA 8A          		GLO	RA	;Test for FFFF
0036+  00AB FC 01       		ADI	1
0037+  00AD 3A 9D       		BNZ	RT_SV_LOOP
0038+  00AF             
0039+  00AF F8 C0       		LDI	0C0h	;RA = C000, points to RAM to test
0040+  00B1 BA          		PHI	RA
0041+  00B2 F8 00       		LDI	000h
0042+  00B4 AA          		PLO	RA
0043+  00B5             
0044+  00B5 8C          		GLO	RC
0045+  00B6 AB          		PLO	RB	;Save count to Counter
0046+  00B7             		
0047+  00B7 2B          RT_CH_LOOP	DEC	RB	;Decrement counter
0048+  00B8 8B          		GLO	RB
0049+  00B9 F3          		XOR		;Test against RAM
0050+  00BA 3A F2       		BNZ	RT_BAD
0051+  00BC F3          		XOR		;Restore byte with 2nd XOR
0052+  00BD 3A C1       		BNZ	RT_CH_DO
0053+  00BF 8C          		GLO	RC
0054+  00C0 AB          		PLO	RB
0055+  00C1 1A          RT_CH_DO	INC	RA	
0056+  00C2 9A          		GHI	RA	;Test for FFFF
0057+  00C3 FC 01       		ADI	1
0058+  00C5 3A B7       		BNZ	RT_CH_LOOP
0059+  00C7 8A          		GLO	RA	;Test for FFFF
0060+  00C8 FC 01       		ADI	1
0061+  00CA 3A B7       		BNZ	RT_CH_LOOP
0062+  00CC             	
0063+  00CC 8C          		GLO	RC
0064+  00CD FC 18       		ADI	24
0065+  00CF 3B 95       		BNF	RT_TT_LOOP		
0066+  00D1             
0067+  00D1             				;Final test, write ff, then 00 and verify
0068+  00D1             		
0069+  00D1 F8 C0       		LDI	0C0h	;RA = C000h
0070+  00D3 BA          		PHI	RA
0071+  00D4 F8 00       		LDI	00h
0072+  00D6 AA          		PLO	RA
0073+  00D7             
0074+  00D7 F8 FF       RT_CLR_LOOP	LDI	0FFh
0075+  00D9 5A          		STR	RA
0076+  00DA F3          		XOR
0077+  00DB 3A F2       		BNZ	RT_BAD
0078+  00DD F8 00       		LDI	0
0079+  00DF 5A          		STR	RA
0080+  00E0 F3          		XOR
0081+  00E1 3A F2       		BNZ	RT_BAD
0082+  00E3             		
0083+  00E3 1A          		INC	RA
0084+  00E4 9A          		GHI	RA	;Test for FFFF
0085+  00E5 FC 01       		ADI	1
0086+  00E7 3A D7       		BNZ	RT_CLR_LOOP
0087+  00E9 8A          		GLO	RA	;Test for FFFF
0088+  00EA FC 01       		ADI	1
0089+  00EC 3A D7       		BNZ	RT_CLR_LOOP
0090+  00EE             		
0091+  00EE 99          		GHI	R9
0092+  00EF F9 04       		ORI	4	;MARK GOOD RAM
0093+  00F1 B9          		PHI	R9
0094+  00F2             		
0095+  00F2             		;LDI	'G'
0096+  00F2             		;CALL	TXCHAR
0097+  00F2             		;BR	RT_END
0098+  00F2             RT_BAD		;LDI	'R'
0099+  00F2             		;CALL	TXCHAR
0100+  00F2             RT_END
0491   00F2             		
0492   00F2             ;************************************  RAM TEST COMPLETE
0493   00F2             ;************************************
0494   00F2             ;************************************  Start normal operation, Turn on PIXIE
0495   00F2             ; INITIALIZE RAM ROUTINES
0496   00F2             ;
0497   00F2 D4          		CALL	SELECT_SERIAL
0497   00F3 1F D3       
0498   00F5             
0499   00F5 D4          		CALL	STORE_STRING
0499   00F6 23 12       
0500   00F8 FF 82       		  .DW	READ_SHADOW_RAM	;Save routines
0501   00FA 07          		  .DB	7		;7 BYTES
0502   00FB E3          		  SEX R3		
0503   00FC 65          		  OUT	5
0504   00FD 61          		  .DB	61h
0505   00FE 0D          		  LDN	RD
0506   00FF 65          		  OUT	5
0507   0100 60          		  .DB	60h				
0508   0101 D5          		  RETN			;RETN
0509   0102             
0510   0102             
0511   0102             ;-------------------------------------------------------------- VIDEO TESTING
0512   0102 F8 FA       		LDI 	VIDEO_PAGE1/256	;RD.1 = FBh TOP PAGE OF RAM FOR VIDEO DISPLAY
0513   0104 D4          		STD	VIDEO_PAGE
0513   0105 23 21       
0513   0107 FF 00       
0514   0109 1E          		INC	RE
0515   010A 5E          		STR	RE	;Store PRINT PAGE too
0516   010B F8 00       		LDI	0
0517   010D B0          		PHI	R0
0518   010E             				;TEST FOR PIXIE
0519   010E 69          		INP	1	;turn on 1861 TV display
0520   010F D4          		CALL	CLS_PRINT_PAGE	;Clear Screen, Serves as a DELAY to let PIXIE
0520   0110 15 B9       
0521   0112             				;cause interrupt and change R0.1
0522   0112 90          		GHI	R0
0523   0113 32 1C       		BZ	NOPIXIE
0524   0115 99          		 GHI	R9
0525   0116 F9 01       		 ORI	1	;STATUS 
0526   0118 B9          		 PHI	R9
0527   0119 D4          		 CALL	SELECT_BOTH
0527   011A 1F EF       
0528   011C D4          NOPIXIE		CALL	MSG_PIXIE
0528   011D 07 F7       
0529   011F             ;MSG_PIXIE	PRINT
0530   011F             ;		.text "PIXIE-\000"
0531   011F 99          		GHI	R9
0532   0120 FA 01       		ANI	01h
0533   0122 3A 2C       		BNZ	PNOTSKIP
0534   0124 D4          		 PRINT
0534   0125 22 80       
0535   0127 4E4F542000  		 .text "NOT \000"		
0536   012C D4          PNOTSKIP	CALL	MSG_PRESENT2RAM	;Save a little ram here to fit on page
0536   012D 09 F0       
0537   012F             ;-------------------------------------------------------------- DISPLAY RAM TEST RESULTS		
0538   012F             
0539   012F             		
0540   012F 99          		GHI	R9
0541   0130 FA 04       		ANI	04h
0542   0132 3A 3F       		BNZ	RTR_GOOD
0543   0134 D4          		 PRINT
0543   0135 22 80       
0544   0137 4241440D0A00		 .text "BAD\r\n\000"		
0545   013D 30 49       		 BR	RTR_END
0546   013F D4          RTR_GOOD	PRINT
0546   0140 22 80       
0547   0142 474F4F440D0A		.text "GOOD\r\n\000"
0547   0148 00
0548   0149             RTR_END
0549   0149 99          		GHI	R9
0550   014A FE          		SHL
0551   014B 3B 56       		BNF	NO_VIPKP
0552   014D D4          		 PRINT	
0552   014E 22 80       
0553   0150 56 49 50 00 		 .text "VIP\000"
0554   0154 30 68       		 BR	KP_END
0555   0156 FE          NO_VIPKP	 SHL
0556   0157 3B 62       		 BNF	NO_ELFKP
0557   0159 D4          		 PRINT	
0557   015A 22 80       
0558   015C 45 4C 46 00 		 .text "ELF\000"
0559   0160 30 68       		 BR	KP_END
0560   0162 D4          NO_ELFKP	 PRINT	
0560   0163 22 80       
0561   0165 4E 4F 00    		 .text "NO\000"		
0562   0168 D4          KP_END		PRINT
0562   0169 22 80       
0563   016B 204B45595041		.text " KEYPAD\r\n\000"
0563   0171 440D0A00
0564   0175             
0565   0175             ;#########################################  PAGE 2 ENDS HERE
0566   0175             
0567   0175 D4          		CALL	SELECT_PIXIE	;Message for PIXIE only
0567   0176 20 02       
0568   0178 99          		GHI	R9	;Get STATUS
0569   0179 F6          		SHR
0570   017A 3B A5       		BNF	MNOPIXIE
0571   017C FA 60       		 ANI	060h	;Check keypad present
0572   017E 32 92       		 BZ	MNOKEY
0573   0180 D4          		 PRINT
0573   0181 22 80       
0574   0183 434F4E54494E		 .text "CONTINUE?\000"
0574   0189 55453F00
0575   018D D4          		 CALL	MK_PRINT_YES_NO
0575   018E 13 EB       
0576   0190             
0577   0190 30 A5       		 BR	MNOPIXIE
0578   0192 D4          MNOKEY		  PRINT
0578   0193 22 80       
0579   0195 555345205345		 .text "USE SERIAL ONLY\000"	;PIXIE BUT NO KEYPAD
0579   019B 5249414C204F4E4C5900
0580   01A5             MNOPIXIE 	
0581   01A5 D4          		CALL	SELECT_SERIAL	;Message for SERIAL only
0581   01A6 1F D3       
0582   01A8             
0583   01A8 3F B0       		BN4	MNO_NOCARD	;SD_CARD_OUT
0584   01AA 99          		 GHI	R9		;SD_CARD_IN
0585   01AB F9 10       		 ORI	10h
0586   01AD B9          		 PHI	R9
0587   01AE 30 BD       		 BR	MNO_CARD_EX		
0588   01B0 D4          MNO_NOCARD	 PRINT
0588   01B1 22 80       
0589   01B3 4E6F20436172		 .text "No Card\r\n\000"
0589   01B9 640D0A00
0590   01BD             MNO_CARD_EX
0591   01BD             
0592   01BD D4          		CALL	MSG_SERIAL
0592   01BE 03 EC       
0593   01C0             
0594   01C0             		;SELECT THE TYPE OF MENU INTERFACE, KEYPAD OR SERIAL
0595   01C0 D4          MSEL_LP		RX_CHAR
0595   01C1 21 00       
0596   01C3 32 D0       		BZ	MSERIAL	;0=NO=SERIAL MENU
0597   01C5 FF 01       		SMI	1
0598   01C7 3A CC       		BNZ	MSEL_1	;1=YES=PIXIE MENU
0599   01C9 D4          		CALL	MKEY
0599   01CA 13 00       
0600   01CC FF 19       MSEL_1		SMI	25	;<Esc>=SERIAL MENU
0601   01CE 3B C0       		BM	MSEL_LP
0602   01D0             
0603   01D0             ;****************************************  SERIAL MENU
0604   01D0             ;****************************************
0605   01D0             ;****************************************
0606   01D0 61          MSERIAL		OUT 1	;Turn OFF PIXIE
0607   01D1 99          		GHI	R9	;Get STATUS
0608   01D2 FA FE       		ANI	0FEh	;Turn off PIXIE from status
0609   01D4 B9          		PHI	R9	
0610   01D5 D4          		CALL	SELECT_SERIAL
0610   01D6 1F D3       
0611   01D8 D4          		CALL	DEFAULT_SERIAL
0611   01D9 20 0E       
0612   01DB F8 20       		LDI	' '
0613   01DD D4          		STD	DISPLAY_FORMAT
0613   01DE 23 21       
0613   01E0 FF BF       
0614   01E2             
0615   01E2 D4          		CALL	INIT_FAT
0615   01E3 18 74       
0616   01E5 D4          		CALL	LOAD_DIR	
0616   01E6 1D 2E       
0617   01E8 D4          		CALL	NEWLINE
0617   01E9 22 60       
0618   01EB             
0619   01EB D4          		CALL	SELECT_MAIN_RAM	
0619   01EC 02 71       
0620   01EE             		;CALL	SELECT_BOOT_RAM
0621   01EE             		
0622   01EE D4          ENTERCOMMAND	PRINT
0622   01EF 22 80       
0623   01F1 0D0A456E7465		.text "\r\nEnter Command\000"
0623   01F7 7220436F6D6D616E6400
0624   0201             		
0625   0201             
0626   0201             ;******     ******   ***********   ****     ****    ****    ****
0627   0201             ;*******   *******   ***********   *****    ****    ****    ****
0628   0201             ;******** ********   ****          ******   ****    ****    ****
0629   0201             ;*****************   ****          *******  ****    ****    ****
0630   0201             ;*****************   ***********   ******** ****    ****    ****
0631   0201             ;****  *****  ****   ***********   **** ********    ****    ****
0632   0201             ;****   ***   ****   ****          ****  *******    ****    ****
0633   0201             ;****    *    ****   ****          ****   ******    ****    ****
0634   0201             ;****         ****   ***********   ****    *****     **********
0635   0201             ;****         ****   ***********   ****     ****       ******
0636   0201             		
0637   0201             		
0638   0201             		;INP	1
0639   0201             MAIN_MENU	;CALL	SELECT_BOTH
0640   0201             	
0641   0201             	
0642   0201 D4          MENU_LOOP	CALL	MENU
0642   0202 02 06       
0643   0204 30 01       		BR	MENU_LOOP
0644   0206             
0645   0206 D4          MENU		CALL	MSGET_COMMAND
0645   0207 10 00       
0646   0209 D4          		CALL	NEWLINE				
0646   020A 22 60       
0647   020C D4          		CALL	INIT_PTRA	;Init command buffer, RA = 7FF1
0647   020D 23 2E       
0648   020F FF C1       		.DW	COMMAND_LINE ;A null will start the string at 7FF0
0649   0211 D4          		CALL	FINDNEXT ;Find start of next word on line, Return 1st Char
0649   0212 1F 01       
0650   0214 D4          		CALL	TOUPPER	
0650   0215 1F C3       
0651   0217 D4          		STD	COMMAND
0651   0218 23 21       
0651   021A FF 99       
0652   021C             
0653   021C D4          		CALL	INSTR
0653   021D 25 C0       
0654   021F 45584D424953		.TEXT	"EXMBISDLVCH\031\025\000"
0654   0225 444C564348191500
0655   022D 52          		STR	R2	;Multiply by 3
0656   022E FE          		SHL
0657   022F F4          		ADD
0658   0230 FC 33       		ADI	MENU_DISPATCH%256
0659   0232 A3          		PLO	R3		;N-WAY BRANCH
0660   0233             
0661   0233 C0 0E B1    MENU_DISPATCH	LBR	MENU_HELP	;00 - Not found
0662   0236 C0 11 97    		LBR	SM_ENTER	;E
0663   0239 C0 12 68    		LBR	SS_EXECUTE	;X
0664   023C C0 02 71    		LBR	SELECT_MAIN_RAM	;M
0665   023F C0 02 78    		LBR	SELECT_BOOT_RAM	;B
0666   0242 C0 02 6A    		LBR	SS_INIT_FAT	;I
0667   0245 C0 02 8C    		LBR	SM_SEC_READ	;S
0668   0248 C0 02 5D    		LBR	SS_DCMD		;D DIR OR DUMP
0669   024B C0 05 00    		LBR	SM_LOAD		;L
0670   024E C0 05 00    		LBR	SM_LOAD		;V
0671   0251 C0 03 00    		LBR	SM_CD		;C
0672   0254 C0 0B C7    		LBR	SM_HEX
0673   0257 C0 1D 10    		LBR	SS_CARD_IN	;19h SD_CARD_IN
0674   025A C0 1A EA    		LBR	SS_CARD_OUT	;15h SD_CARD_OUT
0675   025D             
0676   025D 1A          SS_DCMD		INC	RA
0677   025E 0A          		LDN	RA
0678   025F D4          		CALL	TOUPPER	
0678   0260 1F C3       
0679   0262 FB 49       		XRI	'I'
0680   0264 C2 0E 4F    		LBZ	SM_DIR
0681   0267 C0 11 00    		LBR	SM_DUMP
0682   026A             
0683   026A D4          SS_INIT_FAT	CALL	INIT_FAT
0683   026B 18 74       
0684   026D D4          		CALL	LOAD_DIR
0684   026E 1D 2E       
0685   0270 D5          		RETN
0686   0271             
0687   0271             		;NEWPAGE
0688   0271             		
0689   0271             		;Routine to call reading/writing of BIG RAM with Dump/Edit commands
0690   0271             		;Routines in RAM to select either BIG_RAM or ELF_RAM for Dump/Edit.
0691   0271 D4          SELECT_MAIN_RAM	CALL	SELECT_MAINRAM
0691   0272 16 00       
0692   0274 D4          		CALL	PRINT_MAIN_RAM
0692   0275 02 7F       
0693   0277 D5          		RETN
0694   0278             		
0695   0278             
0696   0278 D4          SELECT_BOOT_RAM	CALL	SELECT_BOOTRAM
0696   0279 16 13       
0697   027B D4          		CALL	PRINT_BOOT_RAM
0697   027C 12 5B       
0698   027E D5          		RETN
0699   027F             		
0700   027F             
0701   027F D4          PRINT_MAIN_RAM	PRINT		
0701   0280 22 80       
0702   0282 4D41494E2D52		.TEXT	"MAIN-RAM\000"
0702   0288 414D00
0703   028B D5          		RETN
0704   028C             		
0705   028C             ;---------------------------------------------------------
0706   028C D4          SM_SEC_READ	CALL	GET32_CMDLINE	;CMD_PARAM = HEX32 from COMMANDLINE
0706   028D 12 00       
0707   028F 3A 9B       		BNZ	SSR_0		;Branch HEX entered
0708   0291             
0709   0291 D4          		LDI_RA	SEC_READ_PTR
0709   0292 22 F4       
0709   0294 FF AF       
0710   0296 D4          		CALL	INC32_RA	;SEC ++
0710   0297 24 C3       
0711   0299 30 C9       		BR	SSR_2
0712   029B             
0713   029B D4          SSR_0		CALL	READ_SWITCHES
0713   029C 0A 36       
0714   029E D4          		LDD	LINE_SWITCHES	;/C = 10
0714   029F 23 28       
0714   02A1 FF 98       
0715   02A3 FA 10       		ANI	10h
0716   02A5 32 BC       		BZ	SSR_1		;BRANCH NO /C SWITCH
0717   02A7             		
0718   02A7 D4          		LD_RA	CMD_PARAM
0718   02A8 23 5C       
0718   02AA FF AB       
0719   02AC D4          		ST_RA	CCLUS		;SAVE CURRENT CLUSTER
0719   02AD 23 8C       
0719   02AF FF 60       
0720   02B1 D4          		CALL	CALC_SEC_IDX	;Converts CCLUS to SEC_IDX
0720   02B2 1C C6       
0721   02B4 D4          		LDI_RA	SEC_IDX
0721   02B5 22 F4       
0721   02B7 FF 3A       
0722   02B9 C0 02 D6    		LBR	SSR_3
0723   02BC             
0724   02BC D4          SSR_1		LDI_RB	CMD_PARAM	;READ CMD_PARAM Sector
0724   02BD 22 FA       
0724   02BF FF AB       
0725   02C1 D4          		LDI_RA	SEC_READ_PTR
0725   02C2 22 F4       
0725   02C4 FF AF       
0726   02C6 D4          		CALL	CPY32_RB2RA	;LET SEC_READ_PTR = The entered Sector	
0726   02C7 25 00       
0727   02C9             
0728   02C9 D4          SSR_2		LDI_RB	SEC_READ_PTR	;SEC_PTR = DIR_SECTOR
0728   02CA 22 FA       
0728   02CC FF AF       
0729   02CE D4          		LDI_RA	SEC_IDX
0729   02CF 22 F4       
0729   02D1 FF 3A       
0730   02D3 D4          		CALL	CPY32_RB2RA	;LET A = B Save Sector in SEC_IDX
0730   02D4 25 00       
0731   02D6             		
0732   02D6 D4          SSR_3		PRINT
0732   02D7 22 80       
0733   02D9 0D0A5345433A		.text "\r\nSEC:\000"
0733   02DF 00
0734   02E0 D4          		PUT32_RA
0734   02E1 24 3A       
0735   02E3 D4          		CALL	SD_READ_SEC	;Read Sector at SEC_IDX
0735   02E4 1B 01       
0736   02E6 D4          		LDI_RD	SD_RAM_BUFFER
0736   02E7 23 06       
0736   02E9 C0 00       
0737   02EB D4          		CALL	SELECT_BOOTRAM
0737   02EC 16 13       
0738   02EE C0 11 09    		LBR	SM_DUMP_RD
0739   02F1             
0740   02F1             
0741   0300             		NEWPAGE
0742   0300             ;----------------------------------------------------------------------------
0743   0300             ;Change Directory Serial Command
0744   0300 D4          SM_CD		LDI_RA	COMMAND_LINE+1	;Read command line from begining
0744   0301 22 F4       
0744   0303 FF C2       
0745   0305 D4          		CALL	FINDNEXT	;Find the "CD"
0745   0306 1F 01       
0746   0308 1A          		INC	RA		;Move past the CD and look for CD.. or CD\
0747   0309 1A          		INC	RA
0748   030A D4          		CALL	FINDNEXT	;Advance to next non space 
0748   030B 1F 01       
0749   030D 32 17       		BZ	SM_PRINT_FULL	;NO Parameter, print FULL PATH
0750   030F             
0751   030F D4          		CALL	PARSE_FILENAME	;Fetch File name to variable "FNAME"
0751   0310 0D 8D       
0752   0312 32 AA       		BZ	SMCD_INVALID	;Error parsing file name (not 8.3)
0753   0314             		
0754   0314 D4          		CALL	CHDIR		;Change directory to name at RA (if valid)
0754   0315 03 27       
0755   0317             					;Accepts .. for parent
0756   0317 F8 0D       SM_PRINT_FULL	LDI	13
0757   0319 D4          		PUT_CHAR
0757   031A FF 7A       
0758   031C D4          		CALL	PRINT_FULLPATH
0758   031D 03 97       
0759   031F D4          		PRINT
0759   0320 22 80       
0760   0322 1B 5B 4B 00 		.TEXT	"\033[K\000"
0761   0326 D5          		RETN
0762   0327             
0763   0327             ;----------------------------------------------------------------------------
0764   0327             ;Change Directory.  RA points to a string with the Directory Name.  
0765   0327 D4          CHDIR		LDI_RA	FNAME		;Check Fname
0765   0328 22 F4       
0765   032A FF 4E       
0766   032C D4          		CALL	CMPSTR		;
0766   032D 22 67       
0767   032F 5C 00       		.TEXT	"\\\000"	;\ Char Check for Backslash
0768   0331 32 90       		BZ	SM_ROOT
0769   0333             
0770   0333 D4          		CALL	SEARCH_FILENAME	;Find Entry in directory
0770   0334 0D DF       
0771   0336 32 AA       		BZ	SMCD_INVALID	;Entry not found
0772   0338 D4          		LDD	FATTRIB		;Test if Directory Entry
0772   0339 23 28       
0772   033B FF 59       
0773   033D FA 10       		ANI	10h		;
0774   033F 32 AA       		BZ	SMCD_INVALID	;Not Directory
0775   0341             
0776   0341 D4          		LDI_RA	FNAME
0776   0342 22 F4       
0776   0344 FF 4E       
0777   0346 D4          		CALL	CMPSTR
0777   0347 22 67       
0778   0349 2E 2E 00    		.TEXT	"..\000"	;.. Parent
0779   034C 32 6E       		BZ	CD_REMOVEPATH
0780   034E             					;Check if room for name
0781   034E D4          		CALL	FULLPATH_EOS	;RD = FULLPATH_EOS
0781   034F 03 C4       
0782   0351 32 A0       		BZ	SMCD_FULL
0783   0353 FC 0C       		ADI	12		;Look for 12 free bytes
0784   0355 33 A0       		BDF	SMCD_FULL
0785   0357 D4          		CALL	SELECT_RD	;"Prints" FILE name into FULLPATH
0785   0358 20 26       
0786   035A D4          		LDI_RA	FNAME		;
0786   035B 22 F4       
0786   035D FF 4E       
0787   035F D4          		CALL	PRINT_FILENAME	;
0787   0360 22 9F       
0788   0362 D4          		CALL	SELECT_DEFAULT	;
0788   0363 FF 7E       
0789   0365 F8 5C       		LDI	05Ch		;Add BACK SLASH
0790   0367 5D          		STR	RD		;
0791   0368 1D          		INC	RD		;
0792   0369 F8 00       		LDI	0h		;And <EOS>
0793   036B 5D          		STR	RD
0794   036C 30 82       		BR	CD_GG
0795   036E             
0796   036E D4          CD_REMOVEPATH	CALL	FULLPATH_EOS	;RD = END OF STRING (NUL), D=RD.0
0796   036F 03 C4       
0797   0371 FF 01       		SMI	1		;Check if at BYTE 1 (ROOT BACKSLASH) = OK
0798   0373 32 82       		BZ	CD_GG		;eg.  \BIN\FUN\<EOS>  D=9
0799   0375 2D          		DEC	RD		;     012345678  9
0800   0376 2D          		DEC	RD		;Go back to last letter of current Sub directory
0801   0377             		
0802   0377 0D          DC_SEEK_SLASH	LDN	RD
0803   0378 FF 5C       		SMI	05Ch
0804   037A 32 80       		BZ	CD_98
0805   037C 2D          		DEC	RD
0806   037D 8D          		GLO	RD
0807   037E 3A 77       		BNZ	DC_SEEK_SLASH
0808   0380 1D          CD_98		INC	RD	;Save 0 at next char
0809   0381 5D          		STR	RD
0810   0382             
0811   0382 D4          CD_GG		LD_RB	FCLUS0		;Fetch new directory cluster
0811   0383 23 68       
0811   0385 FF 5A       
0812   0387 D4          CD_GG2		ST_RB	DCLUS		;set and load
0812   0388 23 A2       
0812   038A FF 62       
0813   038C D4          		CALL	LOAD_DIR
0813   038D 1D 2E       
0814   038F D5          		RETN
0815   0390             
0816   0390 D4          SM_ROOT		LDI_RB	0000h		;Loading 0000 ROOT Directory
0816   0391 22 FA       
0816   0393 00 00       
0817   0395 30 87       		BR	CD_GG2		;Clears FULLPATH
0818   0397             
0819   0397 D4          PRINT_FULLPATH	LDI_RA	FULLPATH
0819   0398 22 F4       
0819   039A FD 00       
0820   039C D4          		CALL	PRINTZ_SUB
0820   039D 22 8B       
0821   039F D5          		RETN
0822   03A0             
0823   03A0 D4          SMCD_FULL	PRINT
0823   03A1 22 80       
0824   03A3 46554C4C00  		.TEXT	"FULL\000"
0825   03A8 30 B5       		BR	SMCD_INVALID1
0826   03AA D4          SMCD_INVALID	PRINT
0826   03AB 22 80       
0827   03AD 496E76616C69		.TEXT	"Invalid\000"
0827   03B3 6400
0828   03B5 D4          SMCD_INVALID1	PRINT
0828   03B6 22 80       
0829   03B8 204469726563		.TEXT	" Directory\000"
0829   03BE 746F727900
0830   03C3 D5          		RETN
0831   03C4             
0832   03C4             
0833   03C4             
0834   03C4 D4          FULLPATH_EOS	LDI_RD	FULLPATH
0834   03C5 23 06       
0834   03C7 FD 00       
0835   03C9 0D          FP_LP		LDN	RD
0836   03CA 32 D0       		BZ	FP_EOS
0837   03CC 1D          		INC	RD
0838   03CD 8D          		GLO	RD
0839   03CE 3A C9       		BNZ	FP_LP
0840   03D0 8D          FP_EOS		GLO	RD
0841   03D1 D5          		RETN
0842   03D2             
0843   03D2 D4          MSG_WELCOME	PRINT
0843   03D3 22 80       
0844   03D5 454C46204949		.text "ELF II SD CARD v0.2\r\n\000"
0844   03DB 20534420434152442076302E320D0A00
0845   03EB D5          		RETN
0846   03EC             
0847   03EC D4          MSG_SERIAL	PRINT
0847   03ED 22 80       
0848   03EF 3C416E793E20		.text "<Any> to cancel PIXIE and run Serial Interface only\r\n\000"
0848   03F5 746F2063616E63656C20504958494520616E642072756E2053657269616C20496E74657266616365206F6E6C790D0A00
0849   0425 D5          		RETN
0850   0426             
0851   0500             		NEWPAGE
0852   0500             ;**********************************************************************
0853   0500             ; LOAD or VIEW FILE
0854   0500             ;----------------------------------------------------------------------
0855   0500 D4          SM_LOAD		CALL	FINDSPACE	;Get to first letter of next word on cmd line
0855   0501 1F 0B       
0856   0503 D4          		CALL	FINDNEXT	;Returns first char or NUL
0856   0504 1F 01       
0857   0506 32 C9       		BZ	SML_USE		;If NUL, Filename is blank, send help
0858   0508             
0859   0508 D4          		CALL	PARSE_FILENAME	;fetch File name to variable "FNAME"
0859   0509 0D 8D       
0860   050B 32 C8       		BZ	SML_RET		;Error parsing file name
0861   050D             		
0862   050D D4          SML_1		CALL	SEARCH_FILENAME
0862   050E 0D DF       
0863   0510 32 C8       		BZ	SML_RET
0864   0512             		
0865   0512 F8 00       		LDI	0		;Init some flags
0866   0514 D4          		STD	CONTINOUS
0866   0515 23 21       
0866   0517 FF A6       
0867   0519 D4          		STD	FILE_TYPE
0867   051A 23 21       
0867   051C FF 97       
0868   051E             
0869   051E             
0870   051E D4          		CALL	FCL_FILETYPE	;Fetch file type from file name
0870   051F 0A 06       
0871   0521 D4          		CALL	FCL_ADDRESS	;Fetch address from command line OR from *.B## file extension (mark as Binary File)
0871   0522 09 99       
0872   0524 D4          		CALL	FCL_SWITCHES	;Fetch file type from override switches
0872   0525 0A 3D       
0873   0527 D4          		LDD	FILE_TYPE
0873   0528 23 28       
0873   052A FF 97       
0874   052C 3A 45       		BNZ	SML_GO
0875   052E             
0876   052E D4          		PRINT
0876   052F 22 80       
0877   0531 475545535349		.text "GUESSING\000"
0877   0537 4E4700
0878   053A D4          		LDD	DISPLAY_FORMAT	;SERIAL OR PIXIE (SPACE OR CR)
0878   053B 23 28       
0878   053D FF BF       
0879   053F D4          		PUT_CHAR
0879   0540 FF 7A       
0880   0542 D4          		CALL	GUESS_FILE_TYPE
0880   0543 07 00       
0881   0545             		
0882   0545             		;LDD	FILE_TYPE	;Guessing always sets 1, 2, or 3
0883   0545             		;LBZ	SML_UNKNOWN_MSG
0884   0545             
0885   0545 D4          SML_GO		CALL	PRINT_FILE_TYPE
0885   0546 0E 15       
0886   0548             
0887   0548 D4          		PRINT
0887   0549 22 80       
0888   054B 2C 20 00    		.text ", \000"
0889   054E             		
0890   054E D4          		LDD	DISPLAY_FORMAT	;SERIAL OR PIXIE (SPACE OR CR)
0890   054F 23 28       
0890   0551 FF BF       
0891   0553 D4          		PUT_CHAR
0891   0554 FF 7A       
0892   0556             		
0893   0556 D4          		PRINT
0893   0557 22 80       
0894   0559 46494C452053		.text "FILE SIZE=\000"
0894   055F 495A453D00
0895   0564 D4          		LDI_RA	FSIZE		;File Size (counts down as bytes read)
0895   0565 22 F4       
0895   0567 FF 5C       
0896   0569 D4          		CALL	PRINT_DEC
0896   056A 26 00       
0897   056C             		
0898   056C D4          		CALL	NEWLINE
0898   056D 22 60       
0899   056F             
0900   056F D4          		CALL	SET_OUTPUT	;Check if doing LOAD or VIEW and point file output to
0900   0570 0B 00       
0901   0572             					;appropriate routine
0902   0572             					;RA is set here for BINARY LOAD
0903   0572             
0904   0572 D4          		CALL	SLICE32K	;RC = A size of file, up to 32K
0904   0573 05 FA       
0905   0575 32 C3       		BZ	SML_EXIT	;Exit if zero
0906   0577             		
0907   0577             ;Fetch Cluster, Count through Sectors, Count through Bytes, process output
0908   0577 D4          SML_CLUSTER_LP	CALL	CALC_SEC_IDX	;Converts CCLUS to SEC_IDX
0908   0578 1C C6       
0909   057A             
0910   057A D4          SML_LP1		CALL	SD_READ_SEC	;Read sector at SEC_IDX
0910   057B 1B 01       
0911   057D             
0912   057D D4          		LDI_RD	SD_RAM_BUFFER
0912   057E 23 06       
0912   0580 C0 00       
0913   0582             
0914   0582 99          		GHI	R9		;Check output type, BLOCK or BYTE?
0915   0583 FA 20       		ANI	20h
0916   0585 32 8E       		BZ	SML_SEND512
0917   0587 D4          		CALL	FILE_OUTPUT_SUB	;Send BLOCK OUTPUT to RAM.
0917   0588 FF 8A       
0918   058A             					;RA and RB are free to init and use
0919   058A             					;
0920   058A 32 C3       		BZ	SML_EXIT	;EXIT IF ESCAPE
0921   058C 30 A1       		BR	SML_CHK_NEXT
0922   058E             
0923   058E 8C          SML_SEND512	GLO	RC		;EXIT IF BYTES REMAINING = 0
0924   058F 3A 94       		BNZ	SML_SEND512_1	;
0925   0591 9C          		GHI	RC		;
0926   0592 32 A7       		BZ	SML_NEXT_SLICE	;
0927   0594             SML_SEND512_1				;
0928   0594 2C          		DEC	RC		;
0929   0595 0D          		LDN	RD		;
0930   0596             					;
0931   0596 D4          		CALL	FILE_OUTPUT_SUB	;Send OUTPUT to screen or RAM.
0931   0597 FF 8A       
0932   0599             					;RA and RB are free to init and use
0933   0599             					;
0934   0599 32 C3       		BZ	SML_EXIT	;EXIT IF ESCAPE
0935   059B 1D          		INC	RD		;
0936   059C 9D          		GHI	RD		;Check for C200
0937   059D FB C2       		XRI	(SD_RAM_BUFFER+200h)/256
0938   059F 3A 8E       		BNZ	SML_SEND512	;
0939   05A1             		
0940   05A1 8C          SML_CHK_NEXT	GLO	RC		;EXIT IF BYTES REMAINING = 0
0941   05A2 3A AC       		BNZ	SML_NEXT_SEC
0942   05A4 9C          		GHI	RC
0943   05A5 3A AC       		BNZ	SML_NEXT_SEC
0944   05A7             		
0945   05A7 D4          SML_NEXT_SLICE	CALL	SLICE32K	;RC = A size of file, up to 32K
0945   05A8 05 FA       
0946   05AA 32 C3       		BZ	SML_EXIT	;Exit if zero
0947   05AC             				
0948   05AC D4          SML_NEXT_SEC	LDI_RD	SEC_IDX		;Advance to next Sector (within Cluster)
0948   05AD 23 06       
0948   05AF FF 3A       
0949   05B1 D4          		CALL	INC32_RD
0949   05B2 24 C9       
0950   05B4             		
0951   05B4 D4          		LDD	SECTORS_REMAIN	;count down sectors remaining in this cluster
0951   05B5 23 28       
0951   05B7 FF 65       
0952   05B9 FF 01       		SMI	1
0953   05BB 5E          		STR	RE
0954   05BC 3A 7A       		BNZ	SML_LP1
0955   05BE             					;GO FETCH NEXT CLUSTER AND RECALCULATE SEC_IDX
0956   05BE D4          		CALL	FAT_HOP		;CCLUS = FAT(CCLUS)
0956   05BF 1B 87       
0957   05C1 3A 77       		BNZ	SML_CLUSTER_LP	;LOOP BACK IF NO error (or EOF)
0958   05C3             		
0959   05C3 D4          SML_EXIT	CALL	FILE_EOF_SUB
0959   05C4 FF 8E       
0960   05C6 F8 01       		LDI	1
0961   05C8 D5          SML_RET		RETN
0962   05C9             
0963   05C9             
0964   05C9 D4          SML_USE		PRINT
0964   05CA 22 80       
0965   05CC 0D0A5553453A		.text "\r\nUSE: CMD <FILENAME> [addr] [/a|/b|/h /R]\r\n\000"
0965   05D2 20434D44203C46494C454E414D453E205B616464725D205B2F617C2F627C2F68202F525D0D0A00
0966   05F9 D5          		RETN
0967   05FA             
0968   05FA             		;Get a Slice of file, up to 32K and put into RC
0969   05FA D4          SLICE32K	LDI_RC	FSIZE		;Check if size = 0
0969   05FB 23 00       
0969   05FD FF 5C       
0970   05FF D4          		CALL	TSTZ32_RC	;
0970   0600 25 42       
0971   0602 32 48       		BZ	SLICE32K_RET	;Exit if zero
0972   0604             					;
0973   0604 D4          		LD_RC	FSIZE		;Check if there is >32768 bytes
0973   0605 23 74       
0973   0607 FF 5C       
0974   0609 9C          		GHI	RC		;
0975   060A FE          		SHL			;
0976   060B 33 3A       		BDF	SLICE32K_2	;Branch if 8xxx
0977   060D D4          		LD_RC	FSIZE+2
0977   060E 23 74       
0977   0610 FF 5E       
0978   0612 9C          		GHI	RC
0979   0613 3A 2A       		BNZ	SLICE32K_1	;Branch if not 00xx xxxx
0980   0615 8C          		GLO	RC
0981   0616 3A 2A       		BNZ	SLICE32K_1	;Branch if not   00 xxxx
0982   0618 D4          		LD_RC	FSIZE		;Fetch the remainder of the file <32768
0982   0619 23 74       
0982   061B FF 5C       
0983   061D             
0984   061D F8 FF       		LDI	FSIZE/256	;Zero FSIZE low word
0985   061F BF          		PHI	RF
0986   0620 F8 5C       		LDI	FSIZE%256
0987   0622 AF          		PLO	RF
0988   0623 F8 00       		LDI	0
0989   0625 5F          		STR	RF
0990   0626 1F          		INC	RF
0991   0627 5F          		STR	RF
0992   0628 30 46       		BR	SLICE32K_4
0993   062A             
0994   062A 2C          SLICE32K_1	DEC	RC		;Borrow 1 from high word
0995   062B D4          		ST_RC	FSIZE+2		;
0995   062C 23 B8       
0995   062E FF 5E       
0996   0630 D4          		LD_RC	FSIZE		;Mark low word with 8xxx
0996   0631 23 74       
0996   0633 FF 5C       
0997   0635 9C          		GHI	RC		;
0998   0636 F9 80       		ORI	80h		;
0999   0638 30 3B       		BR	SLICE32K_3	;Save and process another 32768
1000   063A             
1001   063A F6          SLICE32K_2	SHR			;If 8xxx, then subtract 32768 and process
1002   063B BC          SLICE32K_3	PHI	RC
1003   063C D4          		ST_RC	FSIZE
1003   063D 23 B8       
1003   063F FF 5C       
1004   0641 D4          		LDI_RC	8000h
1004   0642 23 00       
1004   0644 80 00       
1005   0646 F8 01       SLICE32K_4	LDI	1		;RETURN NOT ZERO
1006   0648 D5          SLICE32K_RET	RETN
1007   0649             
1008   0649             
1009   0700             		NEWPAGE
1010   0700             		
1011   0700             					;Sample file
1012   0700 D4          GUESS_FILE_TYPE	CALL	CALC_SEC_IDX	;Converts CCLUS to SEC_IDX
1012   0701 1C C6       
1013   0703 D4          		CALL	SD_READ_SEC	;Read Sector at SEC_IDX
1013   0704 1B 01       
1014   0706 D4          		LDI_RD	SD_RAM_BUFFER
1014   0707 23 06       
1014   0709 C0 00       
1015   070B             ;		LDI_RA	0	;Zero Character counters
1016   070B D4          		LDI_RB	0
1016   070C 22 FA       
1016   070E 00 00       
1017   0710 D4          		LDI_RC	0
1017   0711 23 00       
1017   0713 00 00       
1018   0715 D4          		CALL	GFT_COUNT
1018   0716 07 32       
1019   0718 D4          		CALL	GFT_COUNT_0
1019   0719 07 31       
1020   071B 8B          		GLO	RB
1021   071C 3A 29       		BNZ	GFT_BIN
1022   071E             
1023   071E 8C          		GLO	RC
1024   071F FF 07       		SMI	7
1025   0721 F8 01       		LDI	1		;1=ASCII
1026   0723 3B 2B       		BM	GFT_EX
1027   0725 F8 02       		LDI	2		;2=ASCII-HEX
1028   0727 30 2B       		BR	GFT_EX
1029   0729 F8 03       GFT_BIN		LDI	3		;3=BINARY
1030   072B D4          GFT_EX		STD	FILE_TYPE
1030   072C 23 21       
1030   072E FF 97       
1031   0730 D5          		RETN		
1032   0731             
1033   0731 1D          GFT_COUNT_0	INC	RD
1034   0732 4D          GFT_COUNT	LDA	RD
1035   0733 FF 09       		SMI	9
1036   0735 3B 4F       		BM	CFTC_B		;< 9, TAB
1037   0737 FF 02       		SMI	2
1038   0739 3B 55       		BM	CFTC_A		;= 9 or 10 TAB or LF
1039   073B FF 02       		SMI	2
1040   073D 3B 4F       		BM	CFTC_B		;= 11 to 12
1041   073F 32 55       		BZ	CFTC_A		;= 13 CR
1042   0741 FF 13       		SMI	32-13		
1043   0743 3B 4F       		BM	CFTC_B		;= 14 to 31
1044   0745 FF 1A       		SMI	03Ah-32
1045   0747 3B 55       		BM	CFTC_A		;= SPACE TO '9'
1046   0749 32 52       		BZ	CFTC_C		;= ':'
1047   074B FF 45       		SMI	127-3Ah
1048   074D 3B 55       		BM	CFTC_A		;= ';' TO '~'
1049   074F 1B          CFTC_B		INC	RB		;Count Binary characters
1050   0750 30 55       		BR	CFT_EN
1051   0752 1C          CFTC_C		INC	RC		;Count Colons (used in HEX FILES)
1052   0753 30 55       		BR	CFT_EN
1053   0755             CFTC_A		;INC	RA		;Count Ascii Characters
1054   0755             		;BR	CFT_EN
1055   0755 8D          CFT_EN		GLO	RD
1056   0756 3A 32       		BNZ	GFT_COUNT
1057   0758 8B          		GLO	RB
1058   0759 32 5F       		BZ	CFT_RET		
1059   075B 2B          		DEC	RB		;SHIFT RIGHT FOR SINGLE BYTE SIGNIFICANCE
1060   075C 8B          		GLO	RB
1061   075D F6          		SHR
1062   075E AB          		PLO	RB
1063   075F D5          CFT_RET		RETN
1064   0760             		
1065   0760             
1066   0760             		
1067   0760             
1068   0760             								;NEWPAGE
1069   0760             								
1070   0760             		;RC & RD Are in use M(RD) holds data
1071   0760             		;This routine is called for the first byte, allows variable
1072   0760             		;spaced printing 
1073   0760 F8 10       PUT_BINARY1_SUB	LDI	10h		;PUT_BINARY1 happens just once to initialize things
1074   0762 D4          		STD	PB1LEN
1074   0763 23 21       
1074   0765 FF 96       
1075   0767 D4          		CALL	STORE_STRING
1075   0768 23 12       
1076   076A FF 8A       		  .DW	FILE_OUTPUT_SUB
1077   076C 04            		  .DB	4		;8 BYTES
1078   076D D4          		  SEP R4
1079   076E 07 98       		  .DW	 PUT_BINARY_SUB
1080   0770 D5          		  RETN
1081   0771             
1082   0771 D4          		LD_RA	FILE_POS	;IF low nibble 0, print address
1082   0772 23 5C       
1082   0774 FF 92       
1083   0776 8A          		GLO	RA		;Fetch low byte address
1084   0777 FA 0F       		ANI	0Fh
1085   0779 32 98       		BZ	PUT_BINARY_SUB
1086   077B FD 10       		SDI	10h
1087   077D D4          		STD	PB1LEN
1087   077E 23 21       
1087   0780 FF 96       
1088   0782 FD 10       		SDI	10h
1089   0784 D4          		CALL	NEWLINE
1089   0785 22 60       
1090   0787 D4          		CALL	PUT_RA
1090   0788 25 66       
1091   078A 52          		STR	R2
1092   078B FE          		SHL
1093   078C F4          		ADD
1094   078D AA          		PLO	RA
1095   078E 1A          		INC	RA
1096   078F             		
1097   078F F8 20       PB1_LP		LDI	' '
1098   0791 D4          		PUT_CHAR
1098   0792 FF 7A       
1099   0794 2A          		DEC	RA
1100   0795 8A          		GLO	RA
1101   0796 3A 8F       		BNZ	PB1_LP
1102   0798             		
1103   0798             		
1104   0798             
1105   0798             		;RC & RD Are in use M(RD) holds data
1106   0798 D4          PUT_BINARY_SUB	LD_RA	FILE_POS	;IF low nibble 0, print address
1106   0799 23 5C       
1106   079B FF 92       
1107   079D 8A          		GLO	RA		;xxx0
1108   079E 52          		STR	R2		;Save for end of line testing xxxF
1109   079F FA 0F       		ANI	0Fh
1110   07A1 3A C5       		BNZ	PB_NOLABEL	;Skip LABEL for not start xxx0
1111   07A3 D4          		CALL	NEWLINE		;Start a new line for LABEL
1111   07A4 22 60       
1112   07A6             		;Test for high bytes
1113   07A6 D4          		LD_RB	FILE_POS+2	;If address hits above 64K, print extra bytes
1113   07A7 23 68       
1113   07A9 FF 94       
1114   07AB 9B          		GHI	RB
1115   07AC 32 B7       		BZ	PB_1
1116   07AE D4          		PUT_BYTE		;Print 2 extra address bytes (32 bit address)
1116   07AF 22 3B       
1117   07B1 8B          		GLO	RB
1118   07B2 D4          		PUT_BYTE
1118   07B3 22 3B       
1119   07B5 30 BD       		BR	PB_2
1120   07B7 8B          PB_1		GLO	RB		;Print just 1 extra address bytes (24 bit)
1121   07B8 32 BD       		BZ	PB_2
1122   07BA D4          		PUT_BYTE
1122   07BB 22 3B       
1123   07BD D4          PB_2		CALL	PUT_RA		;Print lower 16 bits
1123   07BE 25 66       
1124   07C0 F8 20       		LDI	' '		;Space into first data byte
1125   07C2 D4          		PUT_CHAR
1125   07C3 FF 7A       
1126   07C5 D4          PB_NOLABEL	LDI_RA	FILE_POS	;Advance File Position
1126   07C6 22 F4       
1126   07C8 FF 92       
1127   07CA D4          		CALL	INC32_RA
1127   07CB 24 C3       
1128   07CD F8 20       		LDI	' '
1129   07CF D4          		PUT_CHAR
1129   07D0 FF 7A       
1130   07D2 D4          		CALL 	READ_RAM_SUB
1130   07D3 FF 66       
1131   07D5 D4          		PUT_BYTE
1131   07D6 22 3B       
1132   07D8             
1133   07D8 3D E4       		BN2	PB_3
1134   07DA D4          		LDD	CONTINOUS
1134   07DB 23 28       
1134   07DD FF A6       
1135   07DF 32 E4       		BZ	PB_3
1136   07E1 F8 00       		LDI	0
1137   07E3 D5          		RETN
1138   07E4             		
1139   07E4 02          PB_3		LDN	R2
1140   07E5 FA 0F       		ANI	0Fh
1141   07E7 FB 0F       		XRI	0Fh		;Test for End of Line
1142   07E9 3A F6       		BNZ	PB_RET
1143   07EB D4          		CALL	DUMP_ASC_LINE
1143   07EC 09 49       
1144   07EE             
1145   07EE 02          		LDN	R2		;Check address for xxFF
1146   07EF FC 01       		ADI	1
1147   07F1 3A F6       		BNZ	PB_RET
1148   07F3 D4          		CALL	ENTER_OR_ESC	;RETURN D=1 OR ESC D=0
1148   07F4 09 00       
1149   07F6 D5          PB_RET		RETN
1150   07F7             
1151   07F7             
1152   07F7 D4          MSG_PIXIE	PRINT
1152   07F8 22 80       
1153   07FA 50495849452D		.text "PIXIE-\000"
1153   0800 00
1154   0801 D5          		RETN
1155   0802             
1156   0900             		NEWPAGE
1157   0900             				;Returns DF=1 for Enter, 0 for Escape
1158   0900 D4          ENTER_OR_ESC	LDD	CONTINOUS
1158   0901 23 28       
1158   0903 FF A6       
1159   0905 3A 43       		BNZ	EOE_T
1160   0907 D4          		PRINT
1160   0908 22 80       
1161   090A 0D0A454E5445		.DB "\r\nENTER, ESC, OR CONTINUOUS\000"
1161   0910 522C204553432C204F5220434F4E54494E554F555300
1162   0926             
1163   0926 D4          EOE_LP:		RX_CHAR
1163   0927 21 00       
1164   0929 D4          		CALL	TOUPPER
1164   092A 1F C3       
1165   092C FB 0D       		XRI	0Dh
1166   092E 32 45       		BZ	EOE_1
1167   0930 FB 4E       		XRI	'C'^0Dh
1168   0932 32 3C       		BZ	EOE_C
1169   0934 FB 58       		XRI	1Bh^'C'
1170   0936 3A 26       		BNZ	EOE_LP
1171   0938 F8 00       EOE_0		LDI	0
1172   093A F6          		SHR
1173   093B D5          EOE_RET		RETN
1174   093C F8 01       EOE_C		LDI	1
1175   093E D4          		STD	CONTINOUS
1175   093F 23 21       
1175   0941 FF A6       
1176   0943 35 38       EOE_T		B2	EOE_0
1177   0945 F8 03       EOE_1		LDI	3
1178   0947 F6          		SHR
1179   0948 D5          		RETN		
1180   0949             
1181   0949             ;----------------------------------------------
1182   0949 D4          DUMP_ASC_LINE	PRINT
1182   094A 22 80       
1183   094C 20 7C 20 00 		.text " | \000"
1184   0950             
1185   0950 D4          		LDD	PB1LEN	;Get length of line (only changes on the first line)
1185   0951 23 28       
1185   0953 FF 96       
1186   0955 AA          		PLO	RA	;can be 1 to F for first line, 10h for all other lines
1187   0956 52          		STR	R2
1188   0957             		
1189   0957 8D          		GLO	RD	;Get address in memory
1190   0958 F7          		SM		;Go back X number of bytes
1191   0959 AD          		PLO	RD
1192   095A 9D          		GHI	RD	;Borrow from High byte
1193   095B BA          		PHI	RA	;but first, save High byte for restore later
1194   095C 7F 00       		SMBI	0
1195   095E BD          		PHI	RD
1196   095F 1D          		INC	RD	;Increment because RD is already at last byte xxxF
1197   0960             				;A line length of 10h needs only go back 0Fh
1198   0960             		
1199   0960 8A          		GLO	RA	;Calculate extra spaces needed by
1200   0961 FD 10       		SDI	10h	;RA= 10h - Length
1201   0963 32 6F       		BZ	DAL_1
1202   0965 AA          		PLO	RA
1203   0966 F8 20       DAL_LP1		LDI	' '
1204   0968 D4          		PUT_CHAR
1204   0969 FF 7A       
1205   096B 2A          		DEC	RA
1206   096C 8A          		GLO	RA
1207   096D 3A 66       		BNZ	DAL_LP1
1208   096F             
1209   096F D4          DAL_1		LDD	PB1LEN	;Get length of line (only changes on the first line)
1209   0970 23 28       
1209   0972 FF 96       
1210   0974 AA          		PLO	RA
1211   0975             
1212   0975 D4          DAL_LP2:	CALL 	READ_RAM_SUB
1212   0976 FF 66       
1213   0978 FF 20       		SMI	20h
1214   097A 3B 84       		BM	DAL_NP
1215   097C FF 60       		SMI	60h
1216   097E 33 84       		BPZ	DAL_NP
1217   0980 FC 80       		ADI	80h
1218   0982 30 86       		BR	DAL_PC
1219   0984             		
1220   0984 F8 20       DAL_NP		LDI ' '
1221   0986 D4          DAL_PC		PUT_CHAR
1221   0987 FF 7A       
1222   0989 1D          		INC	RD
1223   098A 2A          		DEC	RA
1224   098B 8A          		GLO	RA
1225   098C 3A 75       		BNZ	DAL_LP2
1226   098E 2D          		DEC	RD
1227   098F 9A          		GHI	RA
1228   0990 BD          		PHI	RD
1229   0991 F8 10       		LDI	10h
1230   0993 D4          		STD	PB1LEN
1230   0994 23 21       
1230   0996 FF 96       
1231   0998 D5          		RETN
1232   0999             
1233   0999             		;NEWPAGE
1234   0999             
1235   0999             
1236   0999             
1237   0999             ;-----------------------------------------------
1238   0999 D4          FCL_ADDRESS	LDI_RA	FILE_POS
1238   099A 22 F4       
1238   099C FF 92       
1239   099E D4          		CLR32_RA
1239   099F 24 1F       
1240   09A1             		
1241   09A1 D4          		CALL	INIT_PTRA
1241   09A2 23 2E       
1242   09A4 FF C1       		.DW	COMMAND_LINE ;A null will start the string at 7FF0
1243   09A6             		
1244   09A6 D4          		CALL	FINDNEXT ;Find start of next word on line, Return 1st Char
1244   09A7 1F 01       
1245   09A9 D4          		CALL	FINDSPACE
1245   09AA 1F 0B       
1246   09AC D4          		CALL	FINDNEXT ;Find start of next word on line, Return 1st Char
1246   09AD 1F 01       
1247   09AF             
1248   09AF D4          		CALL	FETCHADDR	;RD=ADDRESS
1248   09B0 11 E5       
1249   09B2 32 BE       		BZ	FCLA_FEXT	;IF no address on cmd line, check extension
1250   09B4             		
1251   09B4 9D          		GHI	RD
1252   09B5 BA          		PHI	RA
1253   09B6 8D          		GLO	RD
1254   09B7 AA          		PLO	RA
1255   09B8 D4          		ST_RA	FILE_POS
1255   09B9 23 8C       
1255   09BB FF 92       
1256   09BD D5          		RETN
1257   09BE             		
1258   09BE             ;-----------------------------------------------
1259   09BE D4          FCLA_FEXT	LDI_RA	FNAME+8		;Check File name extension for Bxx where xx = Valid HEX number
1259   09BF 22 F4       
1259   09C1 FF 56       
1260   09C3 4A          		LDA	RA
1261   09C4 FF 42       		SMI	'B'		;Abort if not .Bxx
1262   09C6 3A EF       		BNZ	SB_EX
1263   09C8 4A          		LDA	RA		;get middle char
1264   09C9 D4          		CALL	TOHEX
1264   09CA 1F 81       
1265   09CC 3B EF       		BNF	SB_EX		;Abort if not HEX
1266   09CE FE          		SHL
1267   09CF FE          		SHL
1268   09D0 FE          		SHL
1269   09D1 FE          		SHL
1270   09D2 52          		STR	R2
1271   09D3 0A          		LDN	RA
1272   09D4 D4          		CALL	TOHEX
1272   09D5 1F 81       
1273   09D7 3B EF       		BNF	SB_EX
1274   09D9 F1          		OR
1275   09DA BA          		PHI	RA
1276   09DB F8 00       		LDI	0
1277   09DD AA          		PLO	RA
1278   09DE D4          		ST_RA	FILE_POS
1278   09DF 23 8C       
1278   09E1 FF 92       
1279   09E3 D4          		ST_RA	GH_START_ADDR
1279   09E4 23 8C       
1279   09E6 FF 06       
1280   09E8 F8 03       		LDI	3
1281   09EA D4          		STD	FILE_TYPE
1281   09EB 23 21       
1281   09ED FF 97       
1282   09EF D5          SB_EX		RETN		
1283   09F0             
1284   09F0             
1285   09F0 D4          MSG_PRESENT2RAM	PRINT
1285   09F1 22 80       
1286   09F3 50524553454E		.text "PRESENT\r\n"
1286   09F9 540D0A
1287   09FC 535953205241		.text "SYS RAM-\000"
1287   0A02 4D2D00
1288   0A05 D5          		RETN
1289   0A06             
1290   0A06             ;-----------------------------------------------
1291   0A06 D4          FCL_FILETYPE	LDI_RA	FNAME+8		;Check File name extension for TXT, HEX, OR BIN
1291   0A07 22 F4       
1291   0A09 FF 56       
1292   0A0B D4          		CALL	CMPSTR
1292   0A0C 22 67       
1293   0A0E 54 58 54 00 		.TEXT	"TXT\000"
1294   0A12 3A 18       		BNZ	FCLF_NOTTXT
1295   0A14 F8 01       		LDI	1
1296   0A16 30 30       		BR	FCLR_EX
1297   0A18 D4          FCLF_NOTTXT	CALL	CMPSTR
1297   0A19 22 67       
1298   0A1B 48 45 58 00 		.TEXT	"HEX\000"
1299   0A1F 3A 25       		BNZ	FCLF_NOTHEX
1300   0A21 F8 02       		LDI	2
1301   0A23 30 30       		BR	FCLR_EX
1302   0A25 D4          FCLF_NOTHEX	CALL	CMPSTR
1302   0A26 22 67       
1303   0A28 42 49 4E 00 		.TEXT	"BIN\000"
1304   0A2C 3A 35       		BNZ	FCLF_RET
1305   0A2E F8 03       		LDI	3
1306   0A30 D4          FCLR_EX		STD	FILE_TYPE
1306   0A31 23 21       
1306   0A33 FF 97       
1307   0A35 D5          FCLF_RET	RETN		
1308   0A36             
1309   0A36 F8 00       READ_SWITCHES	LDI	0
1310   0A38 D4          		STD	LINE_SWITCHES
1310   0A39 23 21       
1310   0A3B FF 98       
1311   0A3D D4          FCL_SWITCHES	CALL	INIT_PTRA
1311   0A3E 23 2E       
1312   0A40 FF C1       		.DW	COMMAND_LINE ;A null will start the string at 7FF0
1313   0A42             		
1314   0A42 4A          FCLS_LP		LDA	RA	;Test for / switches
1315   0A43 32 35       		BZ	FCLF_RET		
1316   0A45 FF 2F       		SMI	'/'
1317   0A47 3A 42       		BNZ	FCLS_LP
1318   0A49             		
1319   0A49 0A          		LDN	RA
1320   0A4A D4          		CALL	TOUPPER
1320   0A4B 1F C3       
1321   0A4D 52          		STR	R2
1322   0A4E D4          		CALL	INSTR
1322   0A4F 25 C0       
1323   0A51 41 48 42 00 		.TEXT	"AHB\000" ;Any of these switches?
1324   0A55 32 5E       		BZ	FCLS_0
1325   0A57 D4          		STD	FILE_TYPE
1325   0A58 23 21       
1325   0A5A FF 97       
1326   0A5C 30 42       		BR	FCLS_LP
1327   0A5E 02          FCLS_0		LDN	R2
1328   0A5F D4          		CALL	INSTR
1328   0A60 25 C0       
1329   0A62 525853432020		.TEXT	"RXSC   ?\000" ;Any of these switches?
1329   0A68 203F00
1330   0A6B 32 42       		BZ	FCLS_LP
1331   0A6D AF          		PLO	RF
1332   0A6E 2F          		DEC	RF
1333   0A6F F8 2A       		LDI	ROWTABLE/256 	;Row starts msb = 0
1334   0A71 BF          		PHI	RF		;/R = 80
1335   0A72 0F          		LDN	RF		;/X = 40
1336   0A73 52          		STR	R2		;/S = 20
1337   0A74 D4          		LDD	LINE_SWITCHES	;/C = 10
1337   0A75 23 28       
1337   0A77 FF 98       
1338   0A79 F1          		OR			;/? = 01
1339   0A7A 5E          		STR	RE
1340   0A7B 30 42       		BR	FCLS_LP
1341   0A7D             
1342   0B00             		NEWPAGE
1343   0B00             ;-----------------------------------------------
1344   0B00 D4          SET_OUTPUT	CALL	STORE_STRING	;Default EOF sub
1344   0B01 23 12       
1345   0B03 FF 8E       		  .DW	FILE_EOF_SUB
1346   0B05 04          		  .DB	4		;4 BYTES
1347   0B06 D4            		  SEP R4		;DO_EOF_SUB
1348   0B07 12 51       		  .DW	 EOF_SUB
1349   0B09 D5          		  RETN
1350   0B0A             		  
1351   0B0A D4          		LDD	COMMAND
1351   0B0B 23 28       
1351   0B0D FF 99       
1352   0B0F FF 56       		SMI	'V'
1353   0B11 32 8C       		BZ	SO_VIEW
1354   0B13             
1355   0B13 99          		GHI	R9
1356   0B14 F9 20       		ORI	20h
1357   0B16 B9          		PHI	R9
1358   0B17             
1359   0B17 D4          		LDD	FILE_TYPE
1359   0B18 23 28       
1359   0B1A FF 97       
1360   0B1C FF 02       		SMI	2
1361   0B1E 32 54       		BZ	SOL_HEX
1362   0B20             		
1363   0B20 D4          SOL_BIN		CALL	STORE_STRING
1363   0B21 23 12       
1364   0B23 FF 8A       		  .DW	FILE_OUTPUT_SUB
1365   0B25 04          		  .DB	4		;4 BYTES
1366   0B26 D4          		  SEP R4		
1367   0B27 0B B2       		  .DW	 WRITE_BINARY
1368   0B29 D5          		  RETN
1369   0B2A             
1370   0B2A D4          		PRINT
1370   0B2B 22 80       
1371   0B2D 575249544520		.TEXT	"WRITE @\000"
1371   0B33 4000
1372   0B35 D4          		LD_RA	FILE_POS
1372   0B36 23 5C       
1372   0B38 FF 92       
1373   0B3A D4          		ST_RA	GH_ADDR	;Binary Writes use HEX Address counter for sharing routine
1373   0B3B 23 8C       
1373   0B3D FF 02       
1374   0B3F D4          		CALL	PUT_RA
1374   0B40 25 66       
1375   0B42 D4          		CALL	MSG_IN	;PRINT " IN "
1375   0B43 11 3D       
1376   0B45 D4          		LDD	DISPLAY_FORMAT	;SERIAL OR PIXIE (SPACE OR CR)
1376   0B46 23 28       
1376   0B48 FF BF       
1377   0B4A D4          		PUT_CHAR
1377   0B4B FF 7A       
1378   0B4D D4          		LD_RA	GH_ADDR
1378   0B4E 23 5C       
1378   0B50 FF 02       
1379   0B52 30 7B       		BR	SOL_SWITCHES
1380   0B54             		
1381   0B54 D4          SOL_HEX		CALL	STORE_STRING
1381   0B55 23 12       
1382   0B57 FF 8A       		  .DW	FILE_OUTPUT_SUB
1383   0B59 08          		  .DB	8		;8 BYTES
1384   0B5A D4          		  SEP R4		
1385   0B5B 0C 00       		  .DW	 WRITE_HEX
1386   0B5D D5          		  RETN
1387   0B5E D4            		  SEP R4		;DO_EOF_SUB
1388   0B5F 0D 00       		  .DW	 HEX_EOF_SUB
1389   0B61 D5          		  RETN
1390   0B62             
1391   0B62 D4          		CALL	HEX_INIT
1391   0B63 0C CF       
1392   0B65             
1393   0B65 D4          		PRINT
1393   0B66 22 80       
1394   0B68 4845582D5752		.TEXT	"HEX-WRITE \000"
1394   0B6E 4954452000
1395   0B73 D4          		LDD	DISPLAY_FORMAT	;SERIAL OR PIXIE (SPACE OR CR)
1395   0B74 23 28       
1395   0B76 FF BF       
1396   0B78 D4          		PUT_CHAR
1396   0B79 FF 7A       
1397   0B7B             
1398   0B7B D4          SOL_SWITCHES	LDD	LINE_SWITCHES	;/R = 80, /X = 40, /S = 20
1398   0B7C 23 28       
1398   0B7E FF 98       
1399   0B80 FA 80       		ANI	80h
1400   0B82 32 88       		BZ	SOL_MAIN
1401   0B84 D4          		CALL	SELECT_BOOT_RAM	
1401   0B85 02 78       
1402   0B87 D5          		RETN
1403   0B88 D4          SOL_MAIN	CALL	SELECT_MAIN_RAM		
1403   0B89 02 71       
1404   0B8B D5          		RETN
1405   0B8C             	
1406   0B8C             		
1407   0B8C 99          SO_VIEW		GHI	R9
1408   0B8D FA DF       		ANI	20h^0FFh
1409   0B8F B9          		PHI	R9
1410   0B90             
1411   0B90 D4          		LDD	FILE_TYPE
1411   0B91 23 28       
1411   0B93 FF 97       
1412   0B95 FF 03       		SMI	3
1413   0B97 32 A4       		BZ	SOV_BIN
1414   0B99             
1415   0B99 D4          SOV_ASC		CALL	STORE_STRING
1415   0B9A 23 12       
1416   0B9C FF 8A       		  .DW	FILE_OUTPUT_SUB
1417   0B9E 04          		  .DB	4		;4 BYTES
1418   0B9F D4          		  SEP R4		
1419   0BA0 0D 82       		  .DW	 PUT_CHAR_RNZ
1420   0BA2 D5          		  RETN
1421   0BA3             
1422   0BA3 D5          		RETN
1423   0BA4             		
1424   0BA4 D4          SOV_BIN		CALL	STORE_STRING
1424   0BA5 23 12       
1425   0BA7 FF 8A       		  .DW	FILE_OUTPUT_SUB
1426   0BA9 04          		  .DB	4		;4 BYTES
1427   0BAA D4          		  SEP R4		
1428   0BAB 07 60       		  .DW	 PUT_BINARY1_SUB
1429   0BAD D5          		  RETN
1430   0BAE             
1431   0BAE D4          		CALL	SELECT_BOOTRAM
1431   0BAF 16 13       
1432   0BB1 D5          		RETN
1433   0BB2             
1434   0BB2             		
1435   0BB2             ;---------------------------------------------------------------
1436   0BB2             
1437   0BB2             
1438   0BB2             WRITE_BINARY	
1439   0BB2 8C          WB_LP		GLO	RC
1440   0BB3 3A B8       		BNZ	WB_1
1441   0BB5 9C          		GHI	RC
1442   0BB6 32 C4       		BZ	WB_EX		;EXIT IF EOF
1443   0BB8 2C          WB_1		DEC	RC
1444   0BB9             
1445   0BB9 0D          		LDN	RD
1446   0BBA D4          		CALL	WRITE_RAM_SUB
1446   0BBB FF 6A       
1447   0BBD 1A          		INC	RA		;Advance File Position
1448   0BBE             
1449   0BBE 1D          		INC	RD		;
1450   0BBF 9D          		GHI	RD		;Check for C200
1451   0BC0 FB C2       		XRI	(SD_RAM_BUFFER+200h)/256
1452   0BC2 3A B2       		BNZ	WB_LP		;
1453   0BC4 F8 01       WB_EX		LDI	1
1454   0BC6 D5          		RETN
1455   0BC7             
1456   0BC7             
1457   0BC7             
1458   0BC7             
1459   0BC7             
1460   0BC7 D4          SM_HEX		PRINT
1460   0BC8 22 80       
1461   0BCA 53454E442048		.TEXT	"SEND HEX, <ESC>-DONE\000"
1461   0BD0 45582C203C4553433E2D444F4E4500
1462   0BDF             
1463   0BDF D4          		CALL	HEX_INIT
1463   0BE0 0C CF       
1464   0BE2             		
1465   0BE2 D4          SMH_LP		LDI_RD	SD_RAM_BUFFER+1FFh
1465   0BE3 23 06       
1465   0BE5 C1 FF       
1466   0BE7 D4          		RX_CHAR
1466   0BE8 21 00       
1467   0BEA 5D          		STR	RD
1468   0BEB FB 1B       		XRI	27
1469   0BED 32 F5       		BZ	SMH_RET
1470   0BEF AC          		PLO	RC
1471   0BF0 D4          		CALL	WRITE_HEX
1471   0BF1 0C 00       
1472   0BF3 30 E2       		BR	SMH_LP		
1473   0BF5 D4          SMH_RET		CALL	HEX_EOF_SUB
1473   0BF6 0D 00       
1474   0BF8 D5          		RETN
1475   0BF9             
1476   0BF9             
1477   0BF9             ;**********************************************************************
1478   0BF9             ;
1479   0BF9             ;    Intel Hex Object Format. This is the default format.  This format is
1480   0BF9             ;    line  oriented  and  uses only printable ASCII characters except for
1481   0BF9             ;    the carriage return/line feed at the end of each line.  Each line in
1482   0BF9             ;    the file assumes the following format:
1483   0BF9             ;
1484   0BF9             ;    :NNAAAARRHHHHHHHHHHHHHHHHHHHHHHHHHHHHHHHHHHHHHHHHHHHHHHHHCCTT
1485   0BF9             ;
1486   0BF9             ;    Where:
1487   0BF9             ;
1488   0BF9             ;    All fields marked 'hex' consist of two  or  four  ASCII  hexadecimal
1489   0BF9             ;    digits  (0-9,  A-F).  A maximum of 24 data bytes will be represented
1490   0BF9             ;    on each line.
1491   0BF9             ;
1492   0BF9             ;    :       = Record Start Character
1493   0BF9             ;    NN      = Byte Count (hex)
1494   0BF9             ;    AAAA    = Address of first byte (hex)
1495   0BF9             ;    RR      = Record Type (hex, 00 except for last record which is 01)
1496   0BF9             ;    HH      = Data Bytes (hex)
1497   0BF9             ;    CC      = Check Sum (hex)
1498   0BF9             ;    TT      = Line Terminator (carriage return, line feed)
1499   0BF9             ;
1500   0BF9             ;    The last line of the file will be a record conforming to  the  above
1501   0BF9             ;    format with a byte count of zero (':00000001FF').
1502   0BF9             ;
1503   0BF9             ;    The checksum is defined as:
1504   0BF9             ;
1505   0BF9             ;            sum      =  byte_count + address_hi + address_lo +
1506   0BF9             ;                            record_type + (sum of all data bytes)
1507   0BF9             ;            checksum =  ((-sum) & ffh)
1508   0BF9             ;
1509   0BF9             ;	RR=05, Start Linear Address address aaaa in big endian
1510   0BF9             ;		:040000050000aaaaCC
1511   0BF9             ;
1512   0BF9             ;Input byte @RD
1513   0BF9             ;Uses registers R7, R8, RA, RB,
1514   0C00             		NEWPAGE
1515   0C00             WRITE_HEX	
1516   0C00 8C          WH_SEND512	GLO	RC
1517   0C01 3A 06       		BNZ	WH_1
1518   0C03 9C          		GHI	RC
1519   0C04 32 0F       		BZ	WH_EX		;EXIT IF EOF
1520   0C06 2C          WH_1		DEC	RC
1521   0C07             					;
1522   0C07 88          		GLO	R8
1523   0C08 A3          		PLO	R3	;Branch to step
1524   0C09             					;
1525   0C09             WH_NEXT		
1526   0C09 1D          		INC	RD		;
1527   0C0A 9D          		GHI	RD		;Check for C200
1528   0C0B FB C2       		XRI	(SD_RAM_BUFFER+200h)/256
1529   0C0D 3A 00       		BNZ	WH_SEND512	;
1530   0C0F F8 01       WH_EX		LDI	1
1531   0C11 D5          		RETN
1532   0C12             
1533   0C12             
1534   0C12 0D          WH_WAIT		LDN	RD
1535   0C13 FB 3A       		XRI	':'
1536   0C15 3A 09       		BNZ	WH_NEXT
1537   0C17             
1538   0C17 F8 22       WH_INIT		LDI	WH_FETCH_HIGH%256
1539   0C19 A8          		PLO	R8
1540   0C1A F8 00       		LDI	0
1541   0C1C A7          		PLO	R7	;CHECKSUM
1542   0C1D F8 4B       		LDI	WH_DO_COUNT%256
1543   0C1F B8          		PHI	R8
1544   0C20 30 09       		BR	WH_NEXT
1545   0C22             		
1546   0C22 0D          WH_FETCH_HIGH	LDN	RD
1547   0C23 FA 4F       		ANI	4Fh
1548   0C25 FC C9       		ADI	0C9h	;ASCII TO HEX
1549   0C27 33 2B       		BDF	WHHA
1550   0C29 FC 37       		ADI	37h
1551   0C2B FE          WHHA		SHL
1552   0C2C FE          		SHL
1553   0C2D FE          		SHL
1554   0C2E FE          		SHL		
1555   0C2F BB          		PHI	RB	;RB Holds High Nibble
1556   0C30 F8 35       		LDI	WH_FETCH_LOW%256
1557   0C32 A8          		PLO	R8
1558   0C33 30 09       		BR	WH_NEXT
1559   0C35             		
1560   0C35 0D          WH_FETCH_LOW	LDN	RD
1561   0C36 FA 4F       		ANI	4Fh
1562   0C38 FC C9       		ADI	0C9h	;ASCII TO HEX
1563   0C3A 33 3E       		BDF	WHLA
1564   0C3C FC 37       		ADI	37h
1565   0C3E 52          WHLA		STR	R2
1566   0C3F 9B          		GHI	RB
1567   0C40 F1          		OR
1568   0C41 52          		STR	R2	
1569   0C42 BB          		PHI	RB	;RB Holds byte
1570   0C43 87          		GLO	R7	;Update CHECKSUM
1571   0C44 F4          		ADD
1572   0C45 A7          		PLO	R7
1573   0C46 F8 22       		LDI	WH_FETCH_HIGH%256
1574   0C48 A8          		PLO	R8
1575   0C49 98          		GHI	R8	;Branch to BYTE STEPS
1576   0C4A A3          		PLO	R3	
1577   0C4B             
1578   0C4B 9B          WH_DO_COUNT	GHI	RB
1579   0C4C AB          		PLO	RB	;Save count in LOW RB
1580   0C4D F8 52       		LDI	WH_DO_ADDR_HIGH%256
1581   0C4F B8          		PHI	R8
1582   0C50 30 09       		BR	WH_NEXT
1583   0C52             
1584   0C52             ;    :NNAAAARRHHHHHHHHHHHHHHHHHHHHHHHHHHHHHHHHHHHHHHHHHHHHHHHHCCTT
1585   0C52             		
1586   0C52 9B          WH_DO_ADDR_HIGH	GHI	RB
1587   0C53 BA          		PHI	RA	;Save High Address
1588   0C54 F8 59       		LDI	WH_DO_ADDR_LOW%256
1589   0C56 B8          		PHI	R8
1590   0C57 30 09       		BR	WH_NEXT
1591   0C59             		
1592   0C59 9B          WH_DO_ADDR_LOW	GHI	RB
1593   0C5A AA          		PLO	RA	;Save Low Address
1594   0C5B D4          		LDD	GH_FLAGS
1594   0C5C 23 28       
1594   0C5E FF 05       
1595   0C60 FA 04       		ANI	4
1596   0C62 3A 6D       		BNZ	WHDAL_EX
1597   0C64 0E          		LDN	RE
1598   0C65 F9 04       		ORI	4
1599   0C67 5E          		STR	RE
1600   0C68 D4          		ST_RA	GH_START_ADDR
1600   0C69 23 8C       
1600   0C6B FF 06       
1601   0C6D             
1602   0C6D F8 72       WHDAL_EX	LDI	WH_DO_TYPE%256
1603   0C6F B8          		PHI	R8
1604   0C70 30 09       		BR	WH_NEXT
1605   0C72             
1606   0C72             ;00 =DATA, 01=EOF, 04=START ADDRESS
1607   0C72 9B          WH_DO_TYPE	GHI	RB
1608   0C73 32 93       		BZ	WHDT_EX
1609   0C75 FF 01       		SMI	1
1610   0C77 3A 83       		BNZ	WHDT_1
1611   0C79 D4          		LDD	GH_FLAGS
1611   0C7A 23 28       
1611   0C7C FF 05       
1612   0C7E F9 01       		ORI	1
1613   0C80 5E          		STR	RE
1614   0C81 30 93       		BR	WHDT_EX
1615   0C83 FF 04       WHDT_1		SMI	4
1616   0C85 3A 93       		BNZ	WHDT_EX
1617   0C87 D4          		LDD	GH_FLAGS
1617   0C88 23 28       
1617   0C8A FF 05       
1618   0C8C F9 02       		ORI	2
1619   0C8E 5E          		STR	RE
1620   0C8F F8 98       		LDI	WH_DO_START%256
1621   0C91 B8          		PHI	R8
1622   0C92 D5          		RETN
1623   0C93 F8 B2       WHDT_EX		LDI	WH_DO_DATA%256
1624   0C95 B8          		PHI	R8
1625   0C96 30 09       		BR	WH_NEXT
1626   0C98             
1627   0C98             ;	RR=05, Start Linear Address address aaaa in big endian
1628   0C98             ;		:040000050000aaaaCC
1629   0C98             
1630   0C98             
1631   0C98 8B          WH_DO_START	GLO	RB	;BYTE COUNT
1632   0C99 32 BD       		BZ	WH_DO_CHECKSUM
1633   0C9B 2B          		DEC	RB
1634   0C9C FF 01       		SMI	1
1635   0C9E 3A A6       		BNZ	SHDS_1
1636   0CA0 9B          		GHI	RB
1637   0CA1 D4          		STD	GH_START_ADDR
1637   0CA2 23 21       
1637   0CA4 FF 06       
1638   0CA6 FF 01       SHDS_1		SMI	1
1639   0CA8 3A B0       		BNZ	SHDS_EX
1640   0CAA 9B          		GHI	RB
1641   0CAB D4          		STD	GH_START_ADDR+1
1641   0CAC 23 21       
1641   0CAE FF 07       
1642   0CB0 30 09       SHDS_EX		BR	WH_NEXT
1643   0CB2             		
1644   0CB2             		
1645   0CB2 8B          WH_DO_DATA	GLO	RB	;BYTE COUNT
1646   0CB3 32 BD       		BZ	WH_DO_CHECKSUM
1647   0CB5 2B          		DEC	RB
1648   0CB6 9B          		GHI	RB
1649   0CB7 D4          		CALL	WRITE_RAM_SUB
1649   0CB8 FF 6A       
1650   0CBA 1A          		INC	RA
1651   0CBB 30 09       		BR	WH_NEXT
1652   0CBD             
1653   0CBD 87          WH_DO_CHECKSUM	GLO	R7	
1654   0CBE 32 CA       		BZ	WH_NO_ERROR
1655   0CC0 D4          		LDD	GH_ERR_CNT
1655   0CC1 23 28       
1655   0CC3 FF 04       
1656   0CC5 FC 01       		ADI	1
1657   0CC7 32 CA       		BZ	WH_NO_ERROR	;Prevent roll over
1658   0CC9 5E          		STR	RE
1659   0CCA F8 12       WH_NO_ERROR	LDI	WH_WAIT%256
1660   0CCC A8          		PLO	R8
1661   0CCD 30 09       		BR	WH_NEXT
1662   0CCF             
1663   0CCF             
1664   0CCF F8 12       HEX_INIT	LDI	WH_WAIT%256
1665   0CD1 A8          		PLO	R8
1666   0CD2 F8 00       		LDI	0
1667   0CD4 D4          		STD	GH_ERR_CNT
1667   0CD5 23 21       
1667   0CD7 FF 04       
1668   0CD9 1E          		INC	RE
1669   0CDA 5E          		STR	RE	;STD	GH_FLAGS
1670   0CDB D5          		RETN
1671   0CDC             
1672   0CDC             		
1673   0CDC             ;    :NNAAAARRHHHHHHHHHHHHHHHHHHHHHHHHHHHHHHHHHHHHHHHHHHHHHHHHCCTT
1674   0CDC             		
1675   0D00             		NEWPAGE
1676   0D00             		
1677   0D00 D4          HEX_EOF_SUB	PRINT
1677   0D01 22 80       
1678   0D03 0D0A454F4620		.TEXT "\r\nEOF - \000"
1678   0D09 2D2000
1679   0D0C D4          		LDD	GH_ERR_CNT
1679   0D0D 23 28       
1679   0D0F FF 04       
1680   0D11 3A 1B       		BNZ	HES_ERRS
1681   0D13 D4          		PRINT
1681   0D14 22 80       
1682   0D16 4E 4F 00    		.TEXT "NO\000"
1683   0D19 30 2B       		BR	HES_NERRS	
1684   0D1B D4          HES_ERRS	LDI_RA	TEMP32
1684   0D1C 22 F4       
1684   0D1E FF 4A       
1685   0D20 D4          		CLR32_RA
1685   0D21 24 1F       
1686   0D23 D4          		STD	TEMP32
1686   0D24 23 21       
1686   0D26 FF 4A       
1687   0D28 D4          		CALL	PRINT_DEC
1687   0D29 26 00       
1688   0D2B D4          HES_NERRS	PRINT
1688   0D2C 22 80       
1689   0D2E 204552524F52		.TEXT " ERRORS \000"
1689   0D34 532000
1690   0D37 D4          		LDD	GH_FLAGS
1690   0D38 23 28       
1690   0D3A FF 05       
1691   0D3C F6          		SHR
1692   0D3D 3B 4A       		BNF	HES_NOEOF
1693   0D3F D4          		PRINT
1693   0D40 22 80       
1694   0D42 202A454F462A		.TEXT " *EOF* \000"
1694   0D48 2000
1695   0D4A F6          HES_NOEOF	SHR
1696   0D4B 3B 66       		BNF	HES_NO_SAR
1697   0D4D D4          		PRINT
1697   0D4E 22 80       
1698   0D50 205354415254		.TEXT " START ADDR=\000"
1698   0D56 20414444523D00
1699   0D5D D4          		LD_RA	GH_START_ADDR
1699   0D5E 23 5C       
1699   0D60 FF 06       
1700   0D62 D4          		CALL	PUT_RA
1700   0D63 25 66       
1701   0D65 D5          		RETN
1702   0D66             		
1703   0D66 F6          HES_NO_SAR	SHR
1704   0D67 3B 81       		BNF	HES_RET
1705   0D69 D4          		PRINT
1705   0D6A 22 80       
1706   0D6C 204649525354		.TEXT " FIRST ADDR=\000"
1706   0D72 20414444523D00
1707   0D79 D4          		LD_RA	GH_START_ADDR
1707   0D7A 23 5C       
1707   0D7C FF 06       
1708   0D7E D4          		CALL	PUT_RA
1708   0D7F 25 66       
1709   0D81             		
1710   0D81 D5          HES_RET		RETN
1711   0D82             
1712   0D82             
1713   0D82             
1714   0D82 D4          PUT_CHAR_RNZ	PUT_CHAR
1714   0D83 FF 7A       
1715   0D85 35 8A       PCR_TST_ESC	B2	PCR_0
1716   0D87 F8 01       		LDI	1	;Then return non-zero to continue (ie, not escape)
1717   0D89 D5          		RETN
1718   0D8A F8 00       PCR_0		LDI	0
1719   0D8C D5          		RETN
1720   0D8D             
1721   0D8D             ;-----------------------------------------------------------------------------
1722   0D8D             ;Fetch a file name from the command line
1723   0D8D             ;Input: RA = Command Line
1724   0D8D             ;Output: D=1 Good (FNAME loaded), D=0 fail
1725   0D8D             
1726   0D8D             
1727   0D8D D4          PARSE_FILENAME	LDI_RB	FNAME		;RB points to 11 byte "Filenameext"
1727   0D8E 22 FA       
1727   0D90 FF 4E       
1728   0D92 F8 0B       		LDI	11
1729   0D94 D4          		CALL	BLANK		;Start with a blank look
1729   0D95 1E 52       
1730   0D97 D4          		LDI_RB	FNAME
1730   0D98 22 FA       
1730   0D9A FF 4E       
1731   0D9C             		
1732   0D9C D4          		CALL	CMPSTR
1732   0D9D 22 67       
1733   0D9F 2E 2E 00    		.TEXT	"..\000"	;.. Parent
1734   0DA2 3A AA       		BNZ	PF_NAME		;
1735   0DA4 0A          		LDN	RA
1736   0DA5 5B          		STR	RB
1737   0DA6 1B          		INC	RB
1738   0DA7 5B          		STR	RB
1739   0DA8 30 D8       		BR	PF_EX
1740   0DAA             		
1741   0DAA             
1742   0DAA F8 08       PF_NAME		LDI	8
1743   0DAC D4          		CALL	COPYFN
1743   0DAD 1E 2C       
1744   0DAF 3A C1       		BNZ	PF_HELP		;More than 8 chars before DOT
1745   0DB1 3B D8       		BNF	PF_EX		;NO DOT, Ok
1746   0DB3             
1747   0DB3 D4          		LDI_RB	FNAME+8		;RB points to 3 byte "ext"
1747   0DB4 22 FA       
1747   0DB6 FF 56       
1748   0DB8 F8 03       		LDI	3
1749   0DBA D4          		CALL	COPYFN
1749   0DBB 1E 2C       
1750   0DBD 33 C1       		BDF	PF_HELP
1751   0DBF 32 D8       		BZ	PF_EX		;Branch if 3 or Less characters
1752   0DC1             
1753   0DC1 D4          PF_HELP		PRINT
1753   0DC2 22 80       
1754   0DC4 0D0A42616420		.text "\r\nBad filename\r\n\000"
1754   0DCA 66696C656E616D650D0A00
1755   0DD5 F8 00       		LDI	0
1756   0DD7 D5          		RETN
1757   0DD8             
1758   0DD8 F8 01       PF_EX		LDI	1
1759   0DDA D5          		RETN
1760   0DDB             
1761   0DDB D4          SF_NOT_FOUND	CALL	MSG_FILENOTFOUND
1761   0DDC 11 46       
1762   0DDE D5          		RETN
1763   0DDF             
1764   0DDF             					;LOOK FOR FILE IN CURRENT DIRECTORY	
1765   0DDF D4          SEARCH_FILENAME	CALL	DIR_INIT	;Init counters and load first Directory Sector
1765   0DE0 1B FA       
1766   0DE2 32 DB       		BZ	SF_NOT_FOUND
1767   0DE4 D4          SML_NEXT	CALL	DIR_FETCH
1767   0DE5 1C 9A       
1768   0DE7 32 DB       		BZ	SF_NOT_FOUND	;End of directory and FILE NOT FOUND
1769   0DE9 D4          		LDI_RB	FNAME
1769   0DEA 22 FA       
1769   0DEC FF 4E       
1770   0DEE D4          		CALL	COMPARE_FNAME	;RB returns at end of FNAME (when found)
1770   0DEF 1D 99       
1771   0DF1 33 E4       		BDF	SML_NEXT
1772   0DF3 D4          		LDI_RB	FATTRIB
1772   0DF4 22 FA       
1772   0DF6 FF 59       
1773   0DF8 8A          		GLO	RA	;Copy FClus0 and FSIZE to FCB
1774   0DF9 FC 0B       		ADI	0Bh	;offset to ATTRIB
1775   0DFB AA          		PLO	RA
1776   0DFC 0A          		LDN	RA
1777   0DFD 5B          		STR	RB
1778   0DFE 1B          		INC	RB
1779   0DFF 8A          		GLO	RA
1780   0E00 FC 0F       		ADI	0Fh	;offset to AClus0 (0B + 0F = 1A)
1781   0E02 AA          		PLO	RA
1782   0E03 F8 06       		LDI	6	;6 Bytes to copy, Clus0 and Size
1783   0E05 D4          		CALL	COPY_RAM_RA2RB
1783   0E06 23 38       
1784   0E08 D4          		LD_RB	FCLUS0	
1784   0E09 23 68       
1784   0E0B FF 5A       
1785   0E0D D4          		ST_RB	CCLUS
1785   0E0E 23 A2       
1785   0E10 FF 60       
1786   0E12 F8 01       		LDI	1
1787   0E14 D5          		RETN
1788   0E15             
1789   0E15             
1790   0E15             
1791   0E15             
1792   0E15             
1793   0E15             ;-----------------------------------------------
1794   0E15 D4          PRINT_FILE_TYPE	LDD	FILE_TYPE
1794   0E16 23 28       
1794   0E18 FF 97       
1795   0E1A FF 01       		SMI	1
1796   0E1C 32 3D       		BZ	PFT_ASC
1797   0E1E FF 01       		SMI	1
1798   0E20 32 47       		BZ	PFT_HEX
1799   0E22 FF 01       		SMI	1
1800   0E24 32 32       		BZ	PFT_BIN
1801   0E26 D4          PFT_UNK		PRINT
1801   0E27 22 80       
1802   0E29 554E4B4E4F57		.text "UNKNOWN\000"
1802   0E2F 4E00
1803   0E31 D5          		RETN	
1804   0E32 D4          PFT_BIN		PRINT
1804   0E33 22 80       
1805   0E35 42494E415259		.text "BINARY\000"
1805   0E3B 00
1806   0E3C D5          		RETN
1807   0E3D D4          PFT_ASC		PRINT
1807   0E3E 22 80       
1808   0E40 415343494900		.text "ASCII\000"
1809   0E46 D5          		RETN
1810   0E47 D4          PFT_HEX		PRINT
1810   0E48 22 80       
1811   0E4A 48 45 58 00 		.text "HEX\000"
1812   0E4E D5          		RETN
1813   0E4F             
1814   0E4F             
1815   0E4F             
1816   0E4F             ;****************************************
1817   0E4F             ;****************************************
1818   0E4F             ;****************************************
1819   0E4F             ;****************************************
1820   0E4F             ;****************************************
1821   0E4F             ;=====================================================================================================
1822   0E4F             
1823   0E4F             		
1824   0E4F             	;Attributes
1825   0E4F             	;01-READ ONLY
1826   0E4F             	;02-HIDDEN
1827   0E4F             	;04-SYSTEM
1828   0E4F             	;08-VOLUME LABEL
1829   0E4F             	;10-DIRECTORY
1830   0E4F             	;20-ARCHIVE
1831   0E4F             						
1832   0E4F D4          SM_DIR		PRINT
1832   0E50 22 80       
1833   0E52 566F6C756D65		.text "Volume: \000"
1833   0E58 3A2000
1834   0E5B D4          		LDI_RA	VOLUME_NAME
1834   0E5C 22 F4       
1834   0E5E FF 9B       
1835   0E60 D4          		CALL	PRINT_FILENAME
1835   0E61 22 9F       
1836   0E63 D4          		CALL	NEWLINE
1836   0E64 22 60       
1837   0E66 D4          		LDI_RA	SD_DIR_LIST
1837   0E67 22 F4       
1837   0E69 C2 00       
1838   0E6B D4          		LDD	FILE_COUNT
1838   0E6C 23 28       
1838   0E6E FF 64       
1839   0E70 AC          		PLO	RC
1840   0E71 32 8E       		BZ	DD_RET
1841   0E73             		
1842   0E73 D4          DD_NEXT		CALL	PRINT_FILENAME
1842   0E74 22 9F       
1843   0E76             		
1844   0E76 2C          		DEC	RC
1845   0E77 8C          		GLO	RC
1846   0E78 32 8E       		BZ	DD_RET
1847   0E7A             
1848   0E7A             				;Do some Screen formating	
1849   0E7A 89          		GLO	R9	;PC_POS
1850   0E7B FF 40       		SMI	64
1851   0E7D 3B 82       		BM	DD_SAMELINE
1852   0E7F D4          		CALL	NEWLINE
1852   0E80 22 60       
1853   0E82 89          DD_SAMELINE	GLO	R9	;PC_POS	;TAB OUT 16 CHARS
1854   0E83 FA 0F       		ANI	0Fh
1855   0E85 32 73       		BZ	DD_NEXT
1856   0E87 F8 20       		LDI	' '
1857   0E89 D4          		PUT_CHAR
1857   0E8A FF 7A       
1858   0E8C 30 82       		BR	DD_SAMELINE
1859   0E8E             
1860   0E8E D4          DD_RET		CALL	NEWLINE
1860   0E8F 22 60       
1861   0E91             		
1862   0E91 D4          		LDI_RA TEMP32	;32 BIT WORD FOR ACC
1862   0E92 22 F4       
1862   0E94 FF 4A       
1863   0E96 D4          		LDI32_RA	0000h,0000h
1863   0E97 24 6D       
1863   0E99 00 00 00 00 
1864   0E9D D4          		LDD	FILE_COUNT
1864   0E9E 23 28       
1864   0EA0 FF 64       
1865   0EA2 5A          		STR	RA
1866   0EA3 D4          		CALL	PRINT_DEC
1866   0EA4 26 00       
1867   0EA6 D4          		PRINT
1867   0EA7 22 80       
1868   0EA9 2046494C4553		.text " FILES\000"
1868   0EAF 00
1869   0EB0 D5          		RETN
1870   0EB1             
1871   0EB1             
1872   0EB1             		
1873   0EB1             		
1874   0EB1 D4          MENU_HELP	PRINT
1874   0EB2 22 80       
1875   0EB4 3F3F3F0D0A  		.text "???\r\n"
1876   0EB9 4449522D4449		.text "DIR-DIRECTORY\r\n"
1876   0EBF 524543544F52590D0A
1877   0EC8 43442D434841		.text "CD-CHANGE DIRECTORY [\|..]\r\n"
1877   0ECE 4E4745204449524543544F5259205B7C2E2E5D0D0A
1878   0EE3 582D45584543		.text "X-EXECUTE MAIN RAM [/R] (BootRAM)\r\n"
1878   0EE9 555445204D41494E2052414D205B2F525D2028426F6F7452414D290D0A
1879   0F06 532D53454354		.text "S-SECTOR READ [/C] (Cluster)\r\n"
1879   0F0C 4F522052454144205B2F435D2028436C7573746572290D0A
1880   0F24 4C2D4C4F4144		.text "L-LOAD FILE [A|B|H] (Ascii|Binary|Hex) /R (BootRAM)\r\n"
1880   0F2A 2046494C45205B417C427C485D202841736369697C42696E6172797C48657829202F522028426F6F7452414D290D0A
1881   0F59 562D56494557		.text "V-VIEW FILE [A|B|H]\r\n"
1881   0F5F 2046494C45205B417C427C485D0D0A
1882   0F6E 452D45444954		.text "E-EDIT RAM\r\n"
1882   0F74 2052414D0D0A
1883   0F7A 442D44554D50		.text "D-DUMP RAM [/S] (Shadow RAM)\r\n"
1883   0F80 2052414D205B2F535D2028536861646F772052414D290D0A
1884   0F98 422D424F4F54		.text "B-BOOT RAM\r\n"
1884   0F9E 2052414D0D0A
1885   0FA4 4D2D4D41494E		.text "M-MAIN RAM\r\n"
1885   0FAA 2052414D0D0A
1886   0FB0 482D48455820		.text "H-HEX UPLOAD\r\n"	
1886   0FB6 55504C4F41440D0A
1887   0FBE 00          		.text "\000"
1888   0FBF D5          		RETN
1889   0FC0             
1890   0FC0             
1891   1000             		NEWPAGE
1892   1000 D4          MSGET_COMMAND	PRINT
1892   1001 22 80       
1893   1003 0D 0A 3E 00 		.text "\r\n>\000"
1894   1007             				;Init command buffer, RA = 7FF0 (End of buffer=xxFF)
1895   1007 D4          		CALL	INIT_PTRA
1895   1008 23 2E       
1896   100A FF C1       		.DW	COMMAND_LINE ;A null will start the string at 7FF0
1897   100C             		
1898   100C D4          MSGC_LP		RX_CHAR
1898   100D 21 00       
1899   100F             
1900   100F FF 20       MSGC_LPIN	SMI	20h
1901   1011 3B 27       		BM	MSGC_CTRL	;Jump if < Space
1902   1013 FF 60       		SMI	60h
1903   1015 33 0C       		BPZ	MSGC_LP		;Jump if NOT Printable char
1904   1017             
1905   1017 FC 80       MSGC_PRINTABLE	ADI	80h
1906   1019 D4          		CALL	TOUPPER
1906   101A 1F C3       
1907   101C D4          		PUT_CHAR
1907   101D FF 7A       
1908   101F 5A          		STR	RA
1909   1020 1A          		INC	RA
1910   1021 8A          		GLO	RA		;Check for end of RAM/Buffer = xxFF
1911   1022 3A 0C       		BNZ	MSGC_LP
1912   1024 2A          		DEC	RA		;Freeze
1913   1025 30 0C       		BR	MSGC_LP
1914   1027             
1915   1027 FB ED       MSGC_CTRL	XRI	0EDh		;Control char less 20h
1916   1029 32 4F       		BZ	MSGC_RET
1917   102B FB 05       		XRI	0E8h^0EDh
1918   102D 32 56       		BZ	MSGC_BS
1919   102F             
1920   102F FB 1D       		XRI	0F5h^0E8h
1921   1031 32 65       		BZ	MSGC_CARDOUT	;SD_CARD_OUT
1922   1033 FB 0C       		XRI	0F9h^0F5h
1923   1035 32 63       		BZ	MSGC_CARDIN	;SD_CARD_IN
1924   1037             		
1925   1037 FB 11       		XRI	0E8h^0F9h
1926   1039 3A 0C       		BNZ	MSGC_LP		;Ingnore all other ctrl
1927   103B             
1928   103B D4          MSGC_ESC	RX_CHAR
1928   103C 21 00       
1929   103E FF 5B       		SMI	'['
1930   1040 32 46       		BZ	MSGC_ESC_SEQ
1931   1042 FC 5B       		ADI	'['
1932   1044 30 0F       		BR	MSGC_LPIN	;If not an escape sequence, process char
1933   1046             
1934   1046             
1935   1046 D4          MSGC_ESC_SEQ	RX_CHAR
1935   1047 21 00       
1936   1049 FF 41       		SMI	'A'
1937   104B 3B 46       		BM	MSGC_ESC_SEQ	;Burn through Escape Sequence
1938   104D 30 0C       		BR	MSGC_LP
1939   104F             		
1940   104F 5A          MSGC_RET	STR	RA		;Save 00 end of line
1941   1050 8A          		GLO	RA
1942   1051 FF 80       		SMI	80H
1943   1053 32 0C       		BZ	MSGC_LP		;Do not return if buffer is null
1944   1055 D5          		RETN
1945   1056             		
1946   1056 2A          MSGC_BS		DEC	RA
1947   1057 0A          		LDN	RA		;Check buffer contents
1948   1058 1A          		INC	RA
1949   1059 32 0C       		BZ	MSGC_LP		;Ignore BS if pointer at start
1950   105B 2A          		DEC	RA
1951   105C F8 08       		LDI	8		;Print BS to terminal
1952   105E D4          		PUT_CHAR
1952   105F FF 7A       
1953   1061 30 0C       		BR	MSGC_LP
1954   1063             
1955   1063             
1956   1063 F8 04       MSGC_CARDIN	LDI	4		;SD_CARD_OUT 19
1957   1065 FC 15       MSGC_CARDOUT	ADI	15h		;SD_CARD_IN  15
1958   1067 52          		STR	R2		;Put these control characters at front of command line and return
1959   1068 D4          		CALL	INIT_PTRA
1959   1069 23 2E       
1960   106B FF C1       		.DW	COMMAND_LINE ;A null will start the string at 7FF0
1961   106D 02          		LDN	R2
1962   106E 5A          		STR	RA
1963   106F D5          		RETN
1964   1070             
1965   1070             
1966   1070 61          RUNRAM		OUT 1	;Turn OFF PIXIE
1967   1071 F8 00       		LDI 0	;Set R0 to start address of RAM program
1968   1073 B0          		PHI R0	
1969   1074 A0          		PLO R0
1970   1075 6D          		INP 5	;Trigger RAM Mapping
1971   1076 D0          		SEP R0	;RAM will be mapped after this instruction
1972   1077             
1973   1077             
1974   1100             	NEWPAGE
1975   1100             
1976   1100             ;--------------------------------------- Dump
1977   1100 D4          SM_DUMP		CALL	FETCHADDR	;RD=ADDRESS
1977   1101 11 E5       
1978   1103             
1979   1103 D4          		CALL	PRINT_RAM_SUB
1979   1104 FF 6E       
1980   1106             
1981   1106 D4          		CALL	READ_SWITCHES
1981   1107 0A 36       
1982   1109             
1983   1109 D4          SM_DUMP_RD	LDI_RA	FILE_POS
1983   110A 22 F4       
1983   110C FF 92       
1984   110E D4          		CLR32_RA
1984   110F 24 1F       
1985   1111             
1986   1111 F8 00       		LDI	0
1987   1113 D4          		STD	CONTINOUS
1987   1114 23 21       
1987   1116 FF A6       
1988   1118             
1989   1118 8D          		GLO	RD
1990   1119 AA          		PLO	RA
1991   111A 9D          		GHI	RD
1992   111B BA          		PHI	RA
1993   111C D4          		ST_RA	FILE_POS
1993   111D 23 8C       
1993   111F FF 92       
1994   1121 D4          		CALL	PUT_BINARY1_SUB
1994   1122 07 60       
1995   1124 1D          		INC	RD
1996   1125 32 2D       		BZ	DUMP_RET
1997   1127             		
1998   1127 D4          DUMP_LP		CALL	PUT_BINARY_SUB
1998   1128 07 98       
1999   112A 1D          		INC	RD
2000   112B 3A 27       		BNZ	DUMP_LP
2001   112D D5          DUMP_RET	RETN
2002   112E             
2003   112E             
2004   112E D4          READ_BOOT_RAM	LDD	LINE_SWITCHES
2004   112F 23 28       
2004   1131 FF 98       
2005   1133 FA 20       		ANI	20h	;S Shadow RAM
2006   1135 32 3B       		BZ	RBR_1
2007   1137             		
2008   1137 D4          		CALL	READ_SHADOW_RAM
2008   1138 FF 82       
2009   113A D5          		RETN
2010   113B             		
2011   113B 0D          RBR_1		LDN	RD		;LDN	RD  (ELF_RAM)  7FE0
2012   113C D5          		RETN			;RETN
2013   113D             
2014   113D             
2015   113D D4          MSG_IN		PRINT
2015   113E 22 80       
2016   1140 20494E2000  		.TEXT	" IN \000"
2017   1145 D5          		RETN
2018   1146             
2019   1146 D4          MSG_FILENOTFOUND PRINT
2019   1147 22 80       
2020   1149 0D0A46696C65		.text "\r\nFile not found\r\n\000"
2020   114F 206E6F7420666F756E640D0A00
2021   115C D5          		RETN
2022   115D             
2023   115D             		;RB = Source (in LOW RAM)
2024   115D             		;RC = Count
2025   115D             		;RD = Destination in NEW RAM		
2026   115D 9D          WRITE_RAM_BLOCK	GHI	RD
2027   115E             		;STXD		;Save RD.1
2028   115E E3          		SEX	R3
2029   115F FE          		SHL		;Check bank
2030   1160 33 79       		BDF	WRB1X	;Branch if Bank 1X
2031   1162 FE          		SHL
2032   1163 33 6F       		BDF	WRB01
2033   1165             
2034   1165 65          		OUT	5	;Select BANK 00
2035   1166 40          		.DB	40h	;
2036   1167 65          		OUT	5
2037   1168 50          		.DB	50h
2038   1169             
2039   1169 9D          		GHI	RD	;Set pointer to High 32 memory
2040   116A F9 80       		ORI	80h
2041   116C BD          		PHI	RD
2042   116D 30 80       		BR	WRB_LOOP
2043   116F             
2044   116F 65          WRB01		OUT	5	;Select BANK 01
2045   1170 41          		.DB	41h	;
2046   1171 65          		OUT	5
2047   1172 50          		.DB	50h
2048   1173 9D          		GHI	RD	;Set pointer to High 32 memory
2049   1174 FB C0       		XRI	0C0h
2050   1176 BD          		PHI	RD
2051   1177 30 80       		BR	WRB_LOOP
2052   1179             
2053   1179             
2054   1179 FE          WRB1X		SHL
2055   117A 33 8D       		BDF	WRB11
2056   117C 65          		OUT	5	;Select BANK 10
2057   117D 40          		.DB	40h	;
2058   117E 65          		OUT	5
2059   117F 51          		.DB	51h
2060   1180             
2061   1180 9C          WRB_LOOP	GHI	RC
2062   1181 3A 87       		BNZ	WRB_DO
2063   1183 8C          		GLO	RC
2064   1184 3A 87       		BNZ	WRB_DO
2065   1186 D5          		RETN
2066   1187             		
2067   1187 4B          WRB_DO		LDA	RB
2068   1188 5D          		STR	RD
2069   1189 1D          		INC	RD
2070   118A 2C          		DEC	RC
2071   118B 30 80       		BR	WRB_LOOP
2072   118D             
2073   118D 65          WRB11		OUT	5	;Select BANK 11
2074   118E 41          		.DB	41h	;
2075   118F 65          		OUT	5
2076   1190 51          		.DB	51h
2077   1191 9D          		GHI	RD	;Set pointer to High 32 memory
2078   1192 FA B0       		ANI	0B0h
2079   1194 BD          		PHI	RD
2080   1195 30 80       		BR	WRB_LOOP
2081   1197             
2082   1197             
2083   1197             
2084   1197             
2085   1197             		;NEWPAGE
2086   1197             ;--------------------------------------- Enter
2087   1197             
2088   1197 D4          SM_ENTER	CALL FETCHADDR
2088   1198 11 E5       
2089   119A             
2090   119A 9D          ENTERLOOP1	GHI RD
2091   119B D4          		PUT_BYTE
2091   119C 22 3B       
2092   119E 8D          		GLO RD
2093   119F D4          		PUT_BYTE
2093   11A0 22 3B       
2094   11A2 F8 03       		LDI 3
2095   11A4 D4          		CALL	SPACES
2095   11A5 1F 6E       
2096   11A7             
2097   11A7 D4          		CALL	READ_RAM_SUB	;get byte and display
2097   11A8 FF 66       
2098   11AA D4          		PUT_BYTE
2098   11AB 22 3B       
2099   11AD             
2100   11AD F8 3A       		LDI	':'
2101   11AF D4          		PUT_CHAR
2101   11B0 FF 7A       
2102   11B2             
2103   11B2 F8 02       		LDI	2
2104   11B4 D4          		CALL	USCORE
2104   11B5 1F 56       
2105   11B7             
2106   11B7 D4          		CALL	INPUTBYTE
2106   11B8 1F 30       
2107   11BA 3B DA       		BNF	E_CTRL	;jump if control or bad char entered
2108   11BC             
2109   11BC D4          		ST_RD	TEMP32
2109   11BD 23 CE       
2109   11BF FF 4A       
2110   11C1 D4          		LD_RA	TEMP32
2110   11C2 23 5C       
2110   11C4 FF 4A       
2111   11C6 D4          		CALL	WRITE_RAM_SUB
2111   11C7 FF 6A       
2112   11C9             
2113   11C9 F8 3A       		LDI	':'
2114   11CB D4          		PUT_CHAR
2114   11CC FF 7A       
2115   11CE D4          		CALL	READ_RAM_SUB	;get byte and display
2115   11CF FF 66       
2116   11D1 D4          		PUT_BYTE
2116   11D2 22 3B       
2117   11D4             
2118   11D4 1D          		INC	RD
2119   11D5 D4          		CALL	NEWLINE
2119   11D6 22 60       
2120   11D8 30 9A       		BR	ENTERLOOP1
2121   11DA             
2122   11DA 9E          E_CTRL		GHI	RE	;Fetch last RX Char
2123   11DB FB 1B       		XRI	27
2124   11DD 32 E4       		BZ	ENTER_EXIT
2125   11DF D4          		CALL	NEWLINE
2125   11E0 22 60       
2126   11E2 30 9A       		BR	ENTERLOOP1
2127   11E4             
2128   11E4 D5          ENTER_EXIT	RETN
2129   11E5             
2130   11E5             
2131   11E5             ;**********************************************************************
2132   11E5             ;**********************************************************************
2133   11E5             ;**********************************************************************
2134   11E5             ;**********************************************************************
2135   11E5             ;**********************************************************************
2136   11E5             
2137   11E5             
2138   11E5             	
2139   11E5             
2140   11E5             ;**********************************************************************
2141   11E5             ; Fetch address from Buffer at M(RA)
2142   11E5             ; Put in RD.  D=0 if no valid address found
2143   11E5             ;----------------------------------------------------------------------
2144   11E5 D4          FETCHADDR	CALL	GET32_CMDLINE	;Get 32 bit from Command Line
2144   11E6 12 00       
2145   11E8 D4          		LD_RD	CMD_PARAM	;Fetch 16 bit value from PARAM
2145   11E9 23 80       
2145   11EB FF AB       
2146   11ED D5          		RETN
2147   11EE             
2148   1200             	NEWPAGE
2149   1200             
2150   1200             
2151   1200             ;**********************************************************************
2152   1200             ; HASH COMMAND LINE PARAMETER
2153   1200             ; Fetch 32 BIT value from Buffer at M(RA)
2154   1200             ; Put in CMD_PARAM
2155   1200             ; RETURNS D=0 If no valid argument found
2156   1200             ;----------------------------------------------------------------------
2157   1200 D4          GET32_CMDLINE	CALL	WORDEND	;GET TO LAST CHAR OF FIRST PARAMETER (NEXT WORD)
2157   1201 1F 14       
2158   1203 D4          		LDI_RB	CMD_PARAM
2158   1204 22 FA       
2158   1206 FF AB       
2159   1208 D4          		CLR32_RB
2159   1209 24 22       
2160   120B             
2161   120B 0A          		LDN	RA	;Fetch characters frome the end (low nibble)
2162   120C D4          		CALL	TOHEX
2162   120D 1F 81       
2163   120F F8 00       		LDI	0
2164   1211 3B 35       		BNF	GET32CL_END	;Exit DF=0 (bad hex)
2165   1213             		
2166   1213 F8 04       		LDI	4
2167   1215 52          GET32CL_LP	STR	R2
2168   1216 0A          		LDN	RA	;Fetch first character (low nibble)
2169   1217 D4          		CALL	TOHEX
2169   1218 1F 81       
2170   121A 3B 32       		BNF	GET32CL_EXIT	;Exit DF=0 (bad hex)
2171   121C 5B          		STR	RB
2172   121D 2A          		DEC	RA	;RA=PREVIOUS CHARACTER
2173   121E 0A          		LDN	RA	;Fetch next character (high nibble)
2174   121F D4          		CALL	TOHEX
2174   1220 1F 81       
2175   1222 3B 32       		BNF	GET32CL_EXIT
2176   1224 FE          		SHL
2177   1225 FE          		SHL
2178   1226 FE          		SHL
2179   1227 FE          		SHL
2180   1228 EB          		SEX	RB
2181   1229 F1          		OR
2182   122A 5B          		STR	RB
2183   122B 1B          		INC	RB
2184   122C 2A          		DEC	RA	;RA=PREVIOUS CHARACTER
2185   122D 02          		LDN	R2
2186   122E FF 01       		SMI	1
2187   1230 3A 15       		BNZ	GET32CL_LP
2188   1232 0A          GET32CL_EXIT	LDN	RA
2189   1233 FF 2F       		SMI	'/'	;Consider SWITCHES as unacceptable
2190   1235             		;LDI	1
2191   1235 D5          GET32CL_END	RETN
2192   1236             
2193   1236             
2194   1236             
2195   1236 D4          MSG_EXECUTE	PRINT
2195   1237 22 80       
2196   1239 455845435554		.TEXT "EXECUTE AT:\000"
2196   123F 452041543A00
2197   1245 D5          		RETN
2198   1246 D4          MSG_RUN		PRINT
2198   1247 22 80       
2199   1249 0D0A52756E3A		.TEXT "\r\nRun:\000"
2199   124F 00
2200   1250 D5          		RETN		
2201   1251             
2202   1251 D4          EOF_SUB		PRINT
2202   1252 22 80       
2203   1254 0D0A454F4600		.TEXT "\r\nEOF\000"
2204   125A D5          		RETN
2205   125B             
2206   125B D4          PRINT_BOOT_RAM	PRINT
2206   125C 22 80       
2207   125E 424F4F542D52		.TEXT	"BOOT-RAM\000"
2207   1264 414D00
2208   1267 D5          		RETN
2209   1268             
2210   1268             ;**********************************************************************
2211   1268             ;Execute RD
2212   1268             ;----------------------------------------------------------------------
2213   1268             		;EXECUTE
2214   1268 F8 00       SS_EXECUTE	LDI	0
2215   126A D4          		STD	CONTINOUS
2215   126B 23 21       
2215   126D FF A6       
2216   126F D4          		CALL	FETCHADDR	;RD=ADDRESS
2216   1270 11 E5       
2217   1272 3A A7       		BNZ	SSE_GO
2218   1274 D4          MK_EXECUTE	CALL	MSG_EXECUTE	;PRINT "EXECUTE AT:"
2218   1275 12 36       
2219   1277 D4          		LDD	DISPLAY_FORMAT	;SERIAL OR PIXIE (SPACE OR CR)
2219   1278 23 28       
2219   127A FF BF       
2220   127C D4          		PUT_CHAR
2220   127D FF 7A       
2221   127F D4          		LD_RD	GH_START_ADDR
2221   1280 23 80       
2221   1282 FF 06       
2222   1284 D4          		CALL	PUT_RD
2222   1285 25 AA       
2223   1287 D4          		PRINT
2223   1288 22 80       
2224   128A 20 3F 00    		.TEXT " ?\000"
2225   128D D4          		LDD	DISPLAY_FORMAT
2225   128E 23 28       
2225   1290 FF BF       
2226   1292 FF 20       		SMI	' '
2227   1294 32 A1       		BZ	SSE_SERIAL
2228   1296 D4          		CALL	MK_PRINT_YES_NO
2228   1297 13 EB       
2229   1299 D4          		RX_CHAR
2229   129A 21 00       
2230   129C FF 01       		SMI	1
2231   129E 32 A7       		BZ	SSE_GO
2232   12A0 D5          		RETN
2233   12A1             
2234   12A1 D4          SSE_SERIAL	CALL	ENTER_OR_ESC
2234   12A2 09 00       
2235   12A4 33 A7       		BDF	SSE_GO
2236   12A6 D5          		RETN
2237   12A7             
2238   12A7 D4          SSE_GO		CALL	MSG_RUN		;PRINT "\r\nRUN"
2238   12A8 12 46       
2239   12AA D4          		CALL	PUT_RD
2239   12AB 25 AA       
2240   12AD D4          		CALL	PUT_SPACE_BYTE
2240   12AE 22 35       
2241   12B0             
2242   12B0 9D          		GHI	RD
2243   12B1 B0          		PHI	R0
2244   12B2 8D          		GLO	RD
2245   12B3 A0          		PLO	R0
2246   12B4 D4          		CALL	READ_SWITCHES
2246   12B5 0A 36       
2247   12B7 D4          		LDD	LINE_SWITCHES
2247   12B8 23 28       
2247   12BA FF 98       
2248   12BC FE          		SHL
2249   12BD 33 D6       		BDF	SSE_BOOTRAM	;/R SWITCH USED
2250   12BF D4          		CALL	PRINT_MAIN_RAM
2250   12C0 02 7F       
2251   12C2             	
2252   12C2 F8 64       		LDI	100
2253   12C4 D4          		CALL	LONG_DELAY
2253   12C5 22 25       
2254   12C7             
2255   12C7 61          		OUT	1	;turn off 1861
2256   12C8 D4          		CALL	DELAY
2256   12C9 22 2D       
2257   12CB 9D          		GHI	RD	;Load R0 after turning OFF Video (when called from MKEY)
2258   12CC B0          		PHI	R0
2259   12CD 8D          		GLO	RD
2260   12CE A0          		PLO	R0
2261   12CF             
2262   12CF F8 0F       		LDI	0FH	;Preload R1 with 0F to run VIP software
2263   12D1 B1          		PHI	R1
2264   12D2 E3          		SEX	R3
2265   12D3 6D          		INP 5		;Trigger RAM Mapping
2266   12D4 E0          		SEX R0
2267   12D5 D0          		SEP R0		;RAM will be mapped after this instruction
2268   12D6             
2269   12D6             		
2270   12D6 D4          SSE_BOOTRAM	CALL	PRINT_BOOT_RAM
2270   12D7 12 5B       
2271   12D9 E3          		SEX	R3
2272   12DA 65          		OUT	5
2273   12DB 20          		.DB	20h	;000 = Not connected
2274   12DC 65          		OUT	5
2275   12DD 10          		.DB	10h	;
2276   12DE 65          		OUT	5
2277   12DF 00          		.DB	00h	;
2278   12E0 FA 40       		ANI	40h		;40=20 after shift = /S switch
2279   12E2 3A E6       		BNZ	SSE_SHADOW_RAM
2280   12E4 E0          		SEX	R0
2281   12E5 D0          		SEP	R0
2282   12E6             		
2283   12E6 D4          SSE_SHADOW_RAM	CALL	STORE_STRING	;Change READ to Execute Shadow RAM
2283   12E7 23 12       
2284   12E9 FF 82       		  .DW READ_SHADOW_RAM
2285   12EB 05          		  .DB	5		;5 BYTES
2286   12EC E3          		  SEX R3
2287   12ED 65          		  OUT	5
2288   12EE 61          		  .DB	061h		;ROM BANK 1
2289   12EF E0          		  SEX R0
2290   12F0 D0          		  SEP R0		
2291   12F1 D4          		CALL	READ_SHADOW_RAM	;No comming back!
2291   12F2 FF 82       
2292   12F4             
2293   12F4             
2294   12F4             
2295   1300             								NEWPAGE
2296   1300             ;**********************************************************************
2297   1300             ;**********************************************************************
2298   1300             ;**                    KEYBOARD MENU SYSTEM                          **
2299   1300             ;**********************************************************************
2300   1300             ;**********************************************************************
2301   1300             								
2302   1300 D4          MKEY		CALL	SELECT_PIXIE	;DROP SERIAL
2302   1301 20 02       
2303   1303 D4          		CALL	DEFAULT_PIXIE
2303   1304 20 1A       
2304   1306 F8 0A       		LDI	10		;10 SHOULD DO CR ALSO
2305   1308 D4          		STD	DISPLAY_FORMAT
2305   1309 23 21       
2305   130B FF BF       
2306   130D             
2307   130D D4          		CALL	MK_MENU
2307   130E 13 12       
2308   1310 30 00       		BR	MKEY
2309   1312             
2310   1312             ;---------------------------------------------------- MK MENU
2311   1312 D4          MK_MENU		CALL	CLS_PRINT_PAGE
2311   1313 15 B9       
2312   1315 D4          		PRINT
2312   1316 22 80       
2313   1318 43202D205255		.text "C - RUN VIP\r\n"
2313   131E 4E205649500D0A
2314   1325 44202D204449		.text "D - DIRECTORY\r\n"
2314   132B 524543544F52590D0A
2315   1334 452F46202D20		.text "E/F - UP/DOWN\r\n"
2315   133A 55502F444F574E0D0A
2316   1343 312D35202D20		.text "1-5 - LOAD\r\n"
2316   1349 4C4F41440D0A
2317   134F 41202D204558		.text "A - EXECUTE\000"
2317   1355 454355544500
2318   135B             
2319   135B             		
2320   135B D4          MKEY_LP		RX_CHAR
2320   135C 21 00       
2321   135E D4          		CALL	INSTR
2321   135F 25 C0       
2322   1361 0C 0D 0A 00 		.DB	0Ch,0Dh,0Ah,0
2323   1365             		
2324   1365 FE          		SHL		;Multiply by 2
2325   1366 FC 69       		ADI	MKEY_DISPATCH%256
2326   1368 A3          		PLO	R3		;N-WAY BRANCH
2327   1369             
2328   1369 30 5B       MKEY_DISPATCH	BR	MKEY_LP	;00 - Not found
2329   136B 30 FD       		BR	GOVIP	;C
2330   136D 30 71       		BR	MKD_DIR	;D
2331   136F 30 91       		BR	MKD_EXE
2332   1371             		
2333   1371 D4          MKD_DIR		CALL	MK_DIR
2333   1372 14 1E       
2334   1374 32 12       		BZ	MK_MENU
2335   1376 FF 0A       		SMI	0Ah		;A key pressed to leave DIR
2336   1378 32 91       		BZ	MKD_EXE
2337   137A FF 0B       		SMI	15h-0Ah		;Check for Card Out
2338   137C 3A 12       		BNZ	MK_MENU
2339   137E             		
2340   137E D4          		CALL	CLS_PRINT_PAGE
2340   137F 15 B9       
2341   1381 D4          		PRINT
2341   1382 22 80       
2342   1384 4E4F20434152		.text "NO CARD\000"
2342   138A 4400
2343   138C D4          		RX_CHAR
2343   138D 21 00       
2344   138F 30 12       		BR	MK_MENU
2345   1391             		
2346   1391 D4          MKD_EXE		CALL	CLS_PRINT_PAGE
2346   1392 15 B9       
2347   1394 D4          		CALL	MK_EXECUTE
2347   1395 12 74       
2348   1397 D4          		CALL	CLS_PRINT_PAGE
2348   1398 15 B9       
2349   139A D4          		PRINT	
2349   139B 22 80       
2350   139D 454E54455220		.text "ENTER ADDRESS?\000"
2350   13A3 414444524553533F00
2351   13AC D4          		CALL	MK_PRINT_YES_NO
2351   13AD 13 EB       
2352   13AF D4          		RX_CHAR
2352   13B0 21 00       
2353   13B2 FF 01       		SMI	1
2354   13B4 3A 12       		BNZ	MK_MENU
2355   13B6             
2356   13B6 99          		GHI	R9	;Cursor ON
2357   13B7 F9 02       		ORI	2
2358   13B9 B9          		PHI	R9
2359   13BA             		
2360   13BA D4          		PRINT
2360   13BB 22 80       
2361   13BD 0D 0A 3E 00 		.TEXT	"\r\n>\000"
2362   13C1 D4          		CALL	MK_GETBYTE
2362   13C2 13 D4       
2363   13C4 BD          		PHI	RD
2364   13C5 D4          		CALL	MK_GETBYTE
2364   13C6 13 D4       
2365   13C8 AD          		PLO	RD
2366   13C9 D4          		ST_RD	GH_START_ADDR
2366   13CA 23 CE       
2366   13CC FF 06       
2367   13CE 99          		GHI	R9	;Cursor OFF
2368   13CF FA FD       		ANI	2^0FFH
2369   13D1 B9          		PHI	R9
2370   13D2 30 91       		BR	MKD_EXE
2371   13D4             
2372   13D4 D4          MK_GETBYTE	RX_CHAR
2372   13D5 21 00       
2373   13D7 BA          		PHI	RA
2374   13D8 D4          		CALL	PUT_HEX
2374   13D9 22 4E       
2375   13DB D4          		RX_CHAR
2375   13DC 21 00       
2376   13DE AA          		PLO	RA
2377   13DF D4          		CALL	PUT_HEX
2377   13E0 22 4E       
2378   13E2 9A          		GHI	RA
2379   13E3 FE          		SHL
2380   13E4 FE          		SHL
2381   13E5 FE          		SHL
2382   13E6 FE          		SHL
2383   13E7 52          		STR	R2
2384   13E8 8A          		GLO	RA
2385   13E9 F1          		OR
2386   13EA D5          		RETN		
2387   13EB             		
2388   13EB D4          MK_PRINT_YES_NO	PRINT
2388   13EC 22 80       
2389   13EE 0D0A312D5945		.text "\r\n1-YES, 0-NO\000"
2389   13F4 532C20302D4E4F00
2390   13FC D5          		RETN
2391   13FD             
2392   13FD             ;--------------------------------------- RUN VIP Software
2393   13FD             ; RUN VIP Software
2394   13FD             ; Copy VIP ROM to 8000h and execute
2395   13FD             ;--------------------------------------- RUN VIP Software
2396   13FD E2          GOVIP		SEX	R2
2397   13FE 61          		OUT	1	;turn off 1861
2398   13FF F8 7E       		LDI	VIPROM/256	;RB = Source (VIP ROM)
2399   1401 BB          		PHI	RB
2400   1402 F8 00       		LDI	VIPROM%256
2401   1404 AB          		PLO	RB
2402   1405             		
2403   1405 D4          		LDI_RC	0200h	;RC = Count
2403   1406 23 00       
2403   1408 02 00       
2404   140A             		
2405   140A AD          		PLO	RD	;RD = Destination (in NEW RAM)
2406   140B A0          		PLO	R0	;R0 = RUN ADDRESS
2407   140C B0          		PHI	R0
2408   140D A1          		PLO	R1
2409   140E F8 80       		LDI	80h
2410   1410 BD          		PHI	RD
2411   1411 B1          		PHI	R1	;Execute VIP ROM at 8000 using R1
2412   1412             				;This will keep R0.1 = 00 for jumping to program
2413   1412             				;VIP ROM does not care, it will SEP R2 immediately
2414   1412             		
2415   1412 D4          		CALL	WRITE_RAM_BLOCK
2415   1413 11 5D       
2416   1415             			
2417   1415 F8 64       GO_BIGRAM	LDI	100
2418   1417 D4          		CALL	LONG_DELAY
2418   1418 22 25       
2419   141A             		
2420   141A             	;	LDI	0FH	;Preload R1 with 0F to run VIP software
2421   141A             	;	PHI	R1
2422   141A             	;	B3	GB_0800
2423   141A             	;	GLO	R0	;Execute AT 0000 IF key still not pressed
2424   141A             	;	PHI	R0
2425   141A             		
2426   141A E3          GB_0800		SEX	R3
2427   141B 6D          		INP 5		;Trigger RAM Mapping
2428   141C E0          		SEX R0
2429   141D D1          		SEP R1		;RAM will be mapped after this instruction
2430   141E             
2431   141E             		;NEWPAGE
2432   141E             		
2433   141E             ;---------------------------------------------------- MK DIRECTORY
2434   141E 99          MK_DIR		GHI	R9		;IF NO SD CARD, EXIT D=0FF FAIL
2435   141F FA 10       		ANI	10h
2436   1421 3A 26       		BNZ	MK_DIR_1
2437   1423 F8 FF       		LDI	0FFh
2438   1425 D5          		RETN
2439   1426             
2440   1426 D4          MK_DIR_1	CALL	MK_DIR_INIT	;Init card, show type, etc
2440   1427 15 00       
2441   1429 32 2C       		BZ	MKD_TOP
2442   142B D5          		RETN			;Return if Fail
2443   142C             
2444   142C             		
2445   142C D4          MKD_TOP		LDI_RA	SD_DIR_LIST	;RA POINTS TO START OF DIR LIST
2445   142D 22 F4       
2445   142F C2 00       
2446   1431 D4          		LDD	FILE_COUNT	;CHECK EACH PRINT IF END OF LIST
2446   1432 23 28       
2446   1434 FF 64       
2447   1436 BC          		PHI	RC		;Put File count into Register for speed
2448   1437 F8 00       		LDI	0		
2449   1439 AC          		PLO	RC
2450   143A             		
2451   143A D4          MKD_DOPAGE	CALL	CLS_PRINT_PAGE	;Print 1 page of files
2451   143B 15 B9       
2452   143D             					;
2453   143D F8 01       		LDI	1		;
2454   143F AB          		PLO	RB		;
2455   1440             					;
2456   1440 9C          MKD_LP		GHI	RC		;
2457   1441 52          		STR	R2		;
2458   1442 8C          		GLO	RC		;
2459   1443 F7          		SM			;PTR - FILECOUNT
2460   1444 33 55       		BPZ	MKD_NUL		;
2461   1446             					;
2462   1446 1C          		INC	RC		;Not EOL, print it
2463   1447 8B          		GLO	RB		;
2464   1448 D4          		CALL	PUT_HEX		;
2464   1449 22 4E       
2465   144B F8 2D       		LDI	'-'		;
2466   144D D4          		PUT_CHAR		;
2466   144E FF 7A       
2467   1450 D4          		CALL	PRINT_FILENAME	;
2467   1451 22 9F       
2468   1453 30 5E       		BR	MKD_NEWLINE	;
2469   1455             					;
2470   1455 1C          MKD_NUL		INC	RC		;
2471   1456 8A          		GLO	RA		;KEEP RA ADVANCING
2472   1457 FC 0C       		ADI	12		;
2473   1459 AA          		PLO	RA		;
2474   145A 9A          		GHI	RA		;
2475   145B 7C 00       		ADCI	0		;
2476   145D BA          		PHI	RA		;
2477   145E             
2478   145E             					;
2479   145E D4          MKD_NEWLINE	CALL	NEWLINE		;
2479   145F 22 60       
2480   1461 1B          		INC	RB		;
2481   1462 8B          		GLO	RB		;
2482   1463 FF 06       		SMI	6		;
2483   1465 3B 40       		BM	MKD_LP		;LOOP BACK TO DO 5 FILES per page
2484   1467             
2485   1467             		
2486   1467 D4          MKD_GETKEY	RX_CHAR			;GET KEYBOARD INPUT
2486   1468 21 00       
2487   146A 32 7A       		BZ	MKD_RET		;0 KEY, EXIT TO PREVIOUS MENU
2488   146C FF 06       		SMI	6		;
2489   146E 3B 9F       		BM	MKD_PICKOF5	;1-5, SELECT THAT FILE
2490   1470 FF 08       		SMI	0Eh-6		;
2491   1472 32 88       		BZ	MKD_UP		;E KEY, DO LIST UP
2492   1474 FF 01       		SMI	1		;
2493   1476 32 7B       		BZ	MKD_DOWN	;F KEY, DO LIST DOWN
2494   1478 FC 0F       		ADI	0Fh		;Restore Key value
2495   147A D5          MKD_RET		RETN			;RETURN
2496   147B             
2497   147B F8 00       MKD_DOWN	LDI	0
2498   147D 52          		STR	R2
2499   147E 62          		OUT	2		;Strobe next VIP key for autorepeat
2500   147F 22          		DEC	R2	
2501   1480 9C          		GHI	RC		;DOWN RC.1 IS FILECOUNT
2502   1481 52          		STR	R2		;
2503   1482 8C          		GLO	RC		;RC.0 IS PTR
2504   1483 F7          		SM			;PTR - FILECOUNT
2505   1484 33 67       		BPZ	MKD_GETKEY	;
2506   1486 30 3A       		BR	MKD_DOPAGE	;
2507   1488             		
2508   1488 F8 00       MKD_UP		LDI	0
2509   148A 52          		STR	R2
2510   148B 62          		OUT	2		;Strobe next VIP key for autorepeat
2511   148C 22          		DEC	R2
2512   148D 8C          		GLO	RC		;UP
2513   148E FF 05       		SMI	5		;
2514   1490 32 67       		BZ	MKD_GETKEY	;
2515   1492 FF 05       		SMI	5		;
2516   1494 AC          		PLO	RC		;
2517   1495 8A          		GLO	RA		;
2518   1496 FF 78       		SMI	12*10		;
2519   1498 AA          		PLO	RA		;
2520   1499 9A          		GHI	RA		;
2521   149A 7F 00       		SMBI	0		;
2522   149C BA          		PHI	RA		;
2523   149D 30 3A       		BR	MKD_DOPAGE	;
2524   149F             
2525   149F AB          MKD_PICKOF5	PLO	RB
2526   14A0 D4          		CALL	CLS_PRINT_PAGE
2526   14A1 15 B9       
2527   14A3 8B          		GLO	RB
2528   14A4             
2529   14A4 8A          MKDPICK_LP1	GLO	RA		;
2530   14A5 FF 0C       		SMI	12		;
2531   14A7 AA          		PLO	RA		;
2532   14A8 9A          		GHI	RA		;
2533   14A9 7F 00       		SMBI	0		;
2534   14AB BA          		PHI	RA		;
2535   14AC 1B          		INC	RB
2536   14AD 8B          		GLO	RB
2537   14AE 3A A4       		BNZ	MKDPICK_LP1
2538   14B0 0A          		LDN	RA
2539   14B1 FF 28       		SMI	DIRFLAG
2540   14B3 32 CA       		BZ	MKD_DIRNAME
2541   14B5             		
2542   14B5 D4          		LDI_RB	FNAME
2542   14B6 22 FA       
2542   14B8 FF 4E       
2543   14BA F8 0B       		LDI	11
2544   14BC D4          		CALL	COPY_RAM_RA2RB
2544   14BD 23 38       
2545   14BF             		
2546   14BF D4          		CALL	SML_1		;LOAD THE FILE
2546   14C0 05 0D       
2547   14C2 32 C6       		BZ	MKD_LOADFAIL	;Exit if error loading
2548   14C4 F8 0A       		LDI	0Ah		;Ask to Execute?
2549   14C6 D4          MKD_LOADFAIL	CALL	RX_ANYKEY	;Get anykey for pause
2549   14C7 14 DA       
2550   14C9 D5          		RETN
2551   14CA             
2552   14CA 1A          MKD_DIRNAME	INC	RA
2553   14CB D4          		LDI_RB	FNAME
2553   14CC 22 FA       
2553   14CE FF 4E       
2554   14D0 F8 0B       		LDI	11
2555   14D2 D4          		CALL	COPY_RAM_RA2RB
2555   14D3 23 38       
2556   14D5 D4          		CALL	CHDIR
2556   14D6 03 27       
2557   14D8 30 2C       		BR	MKD_TOP
2558   14DA             		
2559   14DA 52          RX_ANYKEY	STR	R2
2560   14DB D4          		RX_CHAR
2560   14DC 21 00       
2561   14DE 02          		LDN	R2	;RESTORE D FROM CALL
2562   14DF D5          		RETN
2563   14E0             
2564   1500             								NEWPAGE
2565   1500 F8 FB       MK_DIR_INIT	LDI	VIDEO_PAGE2/256
2566   1502 D4          		STD	PRINT_PAGE
2566   1503 23 21       
2566   1505 FF 01       
2567   1507 D4          		CALL	CLS_PRINT_PAGE
2567   1508 15 B9       
2568   150A D4          		PRINT
2568   150B 22 80       
2569   150D 494E49542053		.text "INIT SD CARD\r\n\000"
2569   1513 4420434152440D0A00
2570   151C D4          		CALL	SELECT_NONE
2570   151D 20 31       
2571   151F D4          		CALL	INIT_FAT
2571   1520 18 74       
2572   1522 3A AC       		BNZ	MKDI_FAIL		
2573   1524 D4          MKDI_SHOW	CALL	SELECT_PIXIE
2573   1525 20 02       
2574   1527 D4          		PRINT
2574   1528 22 80       
2575   152A 534420545950		.text "SD TYPE: \000"
2575   1530 453A2000
2576   1534 D4          		LDD	SD_CARD_TYPE
2576   1535 23 28       
2576   1537 FF 0E       
2577   1539 D4          		PUT_BYTE
2577   153A 22 3B       
2578   153C D4          		PRINT
2578   153D 22 80       
2579   153F 0D0A50415220		.text "\r\nPAR TYPE: \000"
2579   1545 545950453A2000
2580   154C D4          		LDD	SD_PART_TYPE	;TYPE, 4, 6, or 86h
2580   154D 23 28       
2580   154F FF 0F       
2581   1551 D4          		PUT_BYTE
2581   1552 22 3B       
2582   1554 D4          		PRINT
2582   1555 22 80       
2583   1557 0D0A4C4F4144		.text "\r\nLOADING\r\n\000"
2583   155D 494E470D0A00
2584   1563             		
2585   1563 D4          		CALL	LOAD_DIR
2585   1564 1D 2E       
2586   1566             
2587   1566 D4          		PRINT
2587   1567 22 80       
2588   1569 0D0A566F6C3A		.text "\r\nVol:\000"
2588   156F 00
2589   1570 D4          		LDI_RA	VOLUME_NAME
2589   1571 22 F4       
2589   1573 FF 9B       
2590   1575 D4          		CALL	PRINT_FILENAME
2590   1576 22 9F       
2591   1578             
2592   1578 F8 FC       		LDI	VIDEO_PAGE3/256
2593   157A D4          		STD	PRINT_PAGE
2593   157B 23 21       
2593   157D FF 01       
2594   157F             
2595   157F F8 2C       		LDI	STARSHIP/256
2596   1581 AE          		PLO	RE
2597   1582 F8 FC       		LDI	VIDEO_PAGE3/256
2598   1584 BE          		PHI	RE
2599   1585 D4          		CALL	PRINT_PAGE_GET
2599   1586 15 D6       
2600   1588             
2601   1588 F8 FC       		LDI	VIDEO_PAGE3/256
2602   158A D4          		STD	PRINT_PAGE
2602   158B 23 21       
2602   158D FF 01       
2603   158F D4          		CALL	DOPAGELEFT
2603   1590 28 65       
2604   1592             
2605   1592 F8 FB       		LDI	VIDEO_PAGE2/256
2606   1594 D4          		STD	PRINT_PAGE
2606   1595 23 21       
2606   1597 FF 01       
2607   1599 D4          		CALL	DOPAGELEFT
2607   159A 28 65       
2608   159C             
2609   159C F8 FA       		LDI	VIDEO_PAGE1/256
2610   159E D4          		STD	PRINT_PAGE
2610   159F 23 21       
2610   15A1 FF 01       
2611   15A3             		
2612   15A3 D4          		RX_CHAR			;Wait for any key
2612   15A4 21 00       
2613   15A6 FF 15       		SMI	15h		
2614   15A8 3A B5       		BNZ	MKDI_EXIT	;Not card out
2615   15AA 30 B2       		BR	MKDI_FAIL1
2616   15AC D4          MKDI_FAIL	CALL	SELECT_PIXIE
2616   15AD 20 02       
2617   15AF D4          		RX_CHAR
2617   15B0 21 00       
2618   15B2 F8 15       MKDI_FAIL1	LDI	015h
2619   15B4 D5          		RETN
2620   15B5 F8 00       MKDI_EXIT	LDI	0		;SUCCESS
2621   15B7 D5          		RETN
2622   15B8             		
2623   15B8 D5          MK_CURSOR	RETN
2624   15B9             
2625   15B9             
2626   15B9             ;**********************************************************************
2627   15B9             ;**********************************************************************
2628   15B9             ;**********************************************************************
2629   15B9             ;**********************************************************************
2630   15B9             
2631   15B9             ;**********************************************************************
2632   15B9             ;CLS
2633   15B9             ;CLEAR SCREEN
2634   15B9             ;Writes 00's to full page of D upon entry
2635   15B9             ;Call with Page to clear in D
2636   15B9             ;Uses RE Scratch Register
2637   15B9             ;----------------------------------------------------------------------
2638   15B9 F8 00       CLS_PRINT_PAGE	LDI	0	;Zero the cursor
2639   15BB D4          		STD	PIXIE_ROW
2639   15BC 23 21       
2639   15BE FF A7       
2640   15C0 D4          		STD	PIXIE_COL
2640   15C1 23 21       
2640   15C3 FF A8       
2641   15C5 D4          		LDD	PRINT_PAGE
2641   15C6 23 28       
2641   15C8 FF 01       
2642   15CA BE          CLS:		PHI	RE
2643   15CB F8 00       		LDI	0
2644   15CD AE          		PLO	RE
2645   15CE F8 00       CLS_LOOP	LDI	0	;Handy loop subroutine to clear page RE
2646   15D0 5E          		STR	RE
2647   15D1 1E          		INC	RE
2648   15D2 8E          		GLO	RE
2649   15D3 3A CE       		BNZ	CLS_LOOP
2650   15D5 D5          		RETN
2651   15D6             
2652   15D6             
2653   15D6             
2654   15D6             ;PAGE RF TO PAGE RE
2655   15D6 8E          PRINT_PAGE_GET	GLO	RE
2656   15D7 BF          		PHI	RF
2657   15D8 F8 00       		LDI	0
2658   15DA AF          		PLO	RF
2659   15DB AE          		PLO	RE
2660   15DC             		
2661   15DC 4F          PPG_LOOP	LDA	RF
2662   15DD 5E          		STR	RE
2663   15DE 1E          		INC	RE
2664   15DF 8E          		GLO	RE
2665   15E0 3A DC       		BNZ	PPG_LOOP
2666   15E2 D5          		RETN
2667   15E3             
2668   15E3             	
2669   15E3             
2670   15E3             ;**********************************************************************
2671   15E3             ;**********************************************************************
2672   15E3             ;**********************************************************************
2673   15E3             ;**********************************************************************
2674   15E3             ;**********************************************************************
2675   15E3             ;**********************************************************************
2676   15E3             ;**********************************************************************
2677   15E3             ;**********************************************************************
2678   15E3             ;**********************************************************************
2679   15E3             ;**********************************************************************
2680   15E3             ;**********************************************************************
2681   15E3             ;**********************************************************************
2682   15E3             ;**********************************************************************
2683   15E3             
2684   1600             	NEWPAGE
2685   1600             	
2686   1600 D4          SELECT_MAINRAM	CALL	STORE_STRING	;Save routines at 7FE0h and 7FE4
2686   1601 23 12       
2687   1603 FF 66       		  .DW	READ_RAM_SUB
2688   1605 0C            		  .DB	12		;12 BYTES
2689   1606 D4          		  SEP R4		;CALL READ_MAIN_RAM  7FE0
2690   1607 16 26       		  .DW	READ_MAIN_RAM
2691   1609 D5          		  RETN			;RETN
2692   160A             		  	;WRITE_RAM_SUB
2693   160A D4          		  SEP R4		;CALL WRITE_RAM (BIG_RAM) 7FE4
2694   160B 16 65       		  .DW	WRITE_MAIN_RAM
2695   160D D5          		  RETN			;RETN
2696   160E             		  	;PRINT_RAM_SUB
2697   160E D4          		  SEP R4
2698   160F 02 7F       		  .DW	PRINT_MAIN_RAM
2699   1611 D5          		  RETN
2700   1612 D5          		RETN
2701   1613             
2702   1613             
2703   1613 D4          SELECT_BOOTRAM	CALL	STORE_STRING
2703   1614 23 12       
2704   1616 FF 66       		  .DW	READ_RAM_SUB
2705   1618 0C          		  .DB	12		;12 BYTES
2706   1619 D4          		  SEP R4		;CALL READ_MAIN_RAM  7FE0
2707   161A 11 2E       		  .DW	READ_BOOT_RAM
2708   161C D5          		  RETN			;RETN
2709   161D             		  	;WRITE_RAM_SUB	  
2710   161D 5A          		  STR	RA		;STR	RD  (ELF_RAM)  7FE4
2711   161E D5          		  RETN			;RETN
2712   161F E2          		  SEX	R2		;Filler 2 bytes
2713   1620 E2          		  SEX	R2
2714   1621             		  	;PRINT_RAM_SUB
2715   1621 D4            		  SEP R4
2716   1622 12 5B       		  .DW	PRINT_BOOT_RAM
2717   1624 D5          		  RETN
2718   1625 D5          		RETN
2719   1626             
2720   1626             
2721   1626             
2722   1626             
2723   1626 9D          READ_MAIN_RAM	GHI	RD
2724   1627 AF          		PLO	RF	;Save original RD.1
2725   1628 FE          		SHL		;Check bank
2726   1629 33 4C       		BDF	RMB1X	;Branch if HIGH bank
2727   162B FE          		SHL
2728   162C 33 3D       		BDF	RMB01
2729   162E             		
2730   162E E3          		SEX	R3	;Select BANK 00
2731   162F 65          		OUT	5
2732   1630 40          		.DB	40h	;
2733   1631 65          		OUT	5
2734   1632 50          		.DB	50h
2735   1633             		
2736   1633 9D          		GHI	RD	;Read from the High 32 memory
2737   1634 F9 80       		ORI	80h	;Adust address to 16K Window between 8000-BFFF
2738   1636 BD          		PHI	RD
2739   1637 0D          		LDN	RD
2740   1638 BF          		PHI	RF	;Save byte read
2741   1639 8F          		GLO	RF	;Restore RD.1
2742   163A BD          		PHI	RD
2743   163B 9F          		GHI	RF	;Restore byte read
2744   163C D5          		RETN
2745   163D             
2746   163D E3          RMB01		SEX	R3	;Select BANK 01
2747   163E 65          		OUT	5
2748   163F 41          		.DB	41h	;
2749   1640 65          		OUT	5
2750   1641 50          		.DB	50h
2751   1642             		
2752   1642 9D          		GHI	RD	;Read from the High 32 memory
2753   1643 FB C0       		XRI	0C0h	;Adust address to 16K Window between 8000-BFFF
2754   1645 BD          		PHI	RD
2755   1646 0D          		LDN	RD
2756   1647 BF          		PHI	RF	;Save byte read
2757   1648 8F          		GLO	RF	;Restore RD.1
2758   1649 BD          		PHI	RD
2759   164A 9F          		GHI	RF	;Restore byte read
2760   164B D5          		RETN
2761   164C             
2762   164C             
2763   164C FE          RMB1X		SHL
2764   164D 33 56       		BDF	RMB11
2765   164F             
2766   164F E3          		SEX	R3	;Select BANK 10
2767   1650 65          		OUT	5
2768   1651 40          		.DB	40h	;
2769   1652 65          		OUT	5
2770   1653 51          		.DB	51h
2771   1654 0D          		LDN	RD	;Read the byte from HIGH RAM (in the high bank)
2772   1655 D5          		RETN
2773   1656             
2774   1656 E3          RMB11		SEX	R3	;Select BANK 11
2775   1657 65          		OUT	5
2776   1658 41          		.DB	41h	;
2777   1659 65          		OUT	5
2778   165A 51          		.DB	51h
2779   165B             		
2780   165B 9D          		GHI	RD	;Read from the High 32 memory
2781   165C FA BF       		ANI	0BFh	;Adust address to 16K Window between 8000-BFFF
2782   165E BD          		PHI	RD
2783   165F 0D          		LDN	RD
2784   1660 BF          		PHI	RF	;Save byte read
2785   1661 8F          		GLO	RF	;Restore RD.1
2786   1662 BD          		PHI	RD
2787   1663 9F          		GHI	RF	;Restore byte read
2788   1664 D5          		RETN
2789   1665             
2790   1665             
2791   1665 9A          WRITE_MAIN_RAM	GHI	RA
2792   1666 AF          		PLO	RF	;Save original RD.1
2793   1667 FE          		SHL		;Check bank
2794   1668 33 89       		BDF	WMB1X	;Branch if Bank 1X
2795   166A FE          		SHL
2796   166B 33 7B       		BDF	WMB01
2797   166D             		
2798   166D E3          		SEX	R3	;Select BANK 00
2799   166E 65          		OUT	5
2800   166F 40          		.DB	40h	;
2801   1670 65          		OUT	5
2802   1671 50          		.DB	50h
2803   1672             		
2804   1672 9A          		GHI	RA	;Read from the High 32 memory
2805   1673 F9 80       		ORI	80h	;Adust address to 16K Window between 8000-BFFF
2806   1675 BA          		PHI	RA
2807   1676 9F          		GHI	RF	;Fetch D from saved copy done during CALL
2808   1677 5A          		STR	RA	;Write byte to RAM
2809   1678 8F          		GLO	RF
2810   1679 BA          		PHI	RA
2811   167A D5          		RETN
2812   167B             
2813   167B E3          WMB01		SEX	R3	;Select BANK 01
2814   167C 65          		OUT	5
2815   167D 41          		.DB	41h	;
2816   167E 65          		OUT	5
2817   167F 50          		.DB	50h
2818   1680             		
2819   1680 9A          		GHI	RA	;Read from the High 32 memory
2820   1681 FB C0       		XRI	0C0h	;Adust address to 16K Window between 8000-BFFF
2821   1683 BA          		PHI	RA
2822   1684 9F          		GHI	RF	;Fetch D from saved copy done during CALL
2823   1685 5A          		STR	RA	;Write byte to RAM
2824   1686 8F          		GLO	RF
2825   1687 BA          		PHI	RA
2826   1688 D5          		RETN
2827   1689             
2828   1689             
2829   1689 FE          WMB1X		SHL
2830   168A 33 94       		BDF	WMB11
2831   168C             
2832   168C E3          		SEX	R3	;Select BANK 10
2833   168D 65          		OUT	5
2834   168E 40          		.DB	40h	;
2835   168F 65          		OUT	5
2836   1690 51          		.DB	51h
2837   1691 9F          		GHI	RF	;Fetch D from saved copy done during CALL
2838   1692 5A          		STR	RA	;Write byte to RAM
2839   1693 D5          		RETN
2840   1694             
2841   1694 E3          WMB11		SEX	R3	;Select BANK 11
2842   1695 65          		OUT	5
2843   1696 41          		.DB	41h	;
2844   1697 65          		OUT	5
2845   1698 51          		.DB	51h
2846   1699             		
2847   1699 9A          		GHI	RA	;Read from the High 32 memory
2848   169A FA BF       		ANI	0BFh	;Adust address to 16K Window between 8000-BFFF
2849   169C BA          		PHI	RA
2850   169D 9F          		GHI	RF	;Fetch D from saved copy done during CALL
2851   169E 5A          		STR	RA	;Write byte to RAM
2852   169F 8F          		GLO	RF
2853   16A0 BA          		PHI	RA
2854   16A1 D5          		RETN
2855   16A2             
2856   16A2             
2857   16A2             
2858   16A2             
2859   16A2             	
2860   16A2             
2861   16A2             		#INCLUDE "AEVIP-SD.ASM"	;SD CARD ROUTINES
0001+  1700             		NEWPAGE
0002+  1700             ;=====================================================================================================
0003+  1700             ;SD Memory Car Routines, Low Level, INIT CARD, Send/Recieve Data, Send Commands
0004+  1700             ;=====================================================================================================
0005+  1700             ;-------------------------------- INIT SDCARD --------------------------------
0006+  1700             ;Set SD_CARD_TYPE
0007+  1700             ;
0008+  1700 E3          INIT_SDCARD	SEX	R3		;SD_DESELECT
0009+  1701 65          		OUT	5
0010+  1702 70          		.DB	70h
0011+  1703 F8 FF       		LDI	0FFh
0012+  1705 AC          		PLO	RC
0013+  1706 D4          		STD	SD_CARD_TYPE
0013+  1707 23 21       
0013+  1709 FF 0E       
0014+  170B             
0015+  170B             		
0016+  170B D4          		STD	SD_CARD_REG	;Address of SD_CARD I/O (via RE)
0016+  170C 23 21       
0016+  170E FF FF       
0017+  1710 F8 FF       ISD_0		LDI	0FFh
0018+  1712 5E          		STR	RE		;CLOCK many cycles
0019+  1713 2C          		DEC	RC
0020+  1714 8C          		GLO	RC
0021+  1715 3A 10       		BNZ	ISD_0
0022+  1717             		
0023+  1717 D4          		STD	SD_PART_TYPE	;DEFALT PARTITION TYPE =0 = NOT VALID
0023+  1718 23 21       
0023+  171A FF 0F       
0024+  171C             		
0025+  171C E3          		SEX	R3		;CALL	SD_SELECT
0026+  171D 65          		OUT	5
0027+  171E 71          		.DB	71h
0028+  171F             
0029+  171F D4          		PRINT
0029+  1720 22 80       
0030+  1722 0D0A496E6974		.text "\r\nInit SD\000"
0030+  1728 20534400
0031+  172C             
0032+  172C D4          		CALL	SD_CLEAR_ARG	;Fetch the 01 response
0032+  172D 1E 5C       
0033+  172F F8 FF       		LDI	0FFh		;255 retries
0034+  1731 AB          		PLO	RB
0035+  1732 F8 00       ISD_LP1		LDI	0		;CMD 0
0036+  1734 D4          		CALL	SD_CMD		;Returnd D=Response, RA=SDC_STATUS, RE=SD_CARD I/O
0036+  1735 18 05       
0037+  1737 FF 01       		SMI	1		;Test 01 response
0038+  1739 32 5E       		BZ	ISD_1
0039+  173B 2B          		DEC	RB
0040+  173C 8B          		GLO	RB
0041+  173D 3A 32       		BNZ	ISD_LP1
0042+  173F D4          INIT_FAIL1	PRINT
0042+  1740 22 80       
0043+  1742 31 00       		.text "1\000"		
0044+  1744 30 4D       		BR	INIT_FAIL
0045+  1746 D4          INIT_FAIL2	PRINT
0045+  1747 22 80       
0046+  1749 32 00       		.text "2\000"		
0047+  174B 30 4D       		BR	INIT_FAIL
0048+  174D             	
0049+  174D D4          INIT_FAIL	PRINT
0049+  174E 22 80       
0050+  1750 2D4641494C45		.text "-FAILED\000"
0050+  1756 4400
0051+  1758 E3          		SEX	R3		;SD_DESELECT
0052+  1759 65          		OUT	5
0053+  175A 70          		.DB	70h
0054+  175B F8 FF       		LDI	0FFh		;FF = Failure
0055+  175D D5          		RETN
0056+  175E             
0057+  175E D4          ISD_1		PRINT
0057+  175F 22 80       
0058+  1761 205479706523		.text " Type#\000"
0058+  1767 00
0059+  1768             		
0060+  1768 2A          		DEC	RA		;PARAM[3] Param 00,00,01,AA
0061+  1769 F8 AA       		LDI	0AAh
0062+  176B 5A          		STR	RA		;PARAM[3]=AA
0063+  176C 2A          		DEC	RA		;PARAM[2]
0064+  176D F8 01       		LDI	01h
0065+  176F 5A          		STR	RA		;PARAM[3]=01
0066+  1770             		
0067+  1770 F8 08       		LDI	8		;CMD 8
0068+  1772 D4          		CALL	SD_CMD		;Returnd D=Response, RA=SDC_STATUS, RE=SD_CARD I/O
0068+  1773 18 05       
0069+  1775 FA 04       		ANI	4
0070+  1777 32 82       		BZ	ISD_2
0071+  1779 F8 01       		LDI	1		;If CMD8 is Illegal Cmd, CARD_TYPE=1
0072+  177B D4          		STD	SD_CARD_TYPE
0072+  177C 23 21       
0072+  177E FF 0E       
0073+  1780 30 9A       		BR	ISD_3
0074+  1782             
0075+  1782 D4          ISD_2		CALL	SPI_RX
0075+  1783 18 41       
0076+  1785 D4          		CALL	SPI_RX
0076+  1786 18 41       
0077+  1788 D4          		CALL	SPI_RX
0077+  1789 18 41       
0078+  178B D4          		CALL	SPI_RX
0078+  178C 18 41       
0079+  178E 5A          		STR	RA		;SDC_STATUS
0080+  178F FF AA       		SMI	0AAh
0081+  1791 3A 46       		BNZ	INIT_FAIL2
0082+  1793 F8 02       		LDI	2		;CARD_TYPE=2
0083+  1795 D4          		STD	SD_CARD_TYPE
0083+  1796 23 21       
0083+  1798 FF 0E       
0084+  179A             
0085+  179A D4          ISD_3		CALL	PUT_HEX
0085+  179B 22 4E       
0086+  179D D4          		PRINT
0086+  179E 22 80       
0087+  17A0 2041434D4434		.text " ACMD41\000"
0087+  17A6 3100
0088+  17A8 D4          		CALL	SD_CLEAR_ARG
0088+  17A9 1E 5C       
0089+  17AB             
0090+  17AB F8 FF       		LDI	0FFh
0091+  17AD AB          		PLO	RB
0092+  17AE F8 37       ISD_LP2		LDI	55		;CMD 55 (ACMD)
0093+  17B0 D4          		CALL	SD_CMD		;Returned D=Response, RA=SDC_STATUS, RE=SD_CARD I/O
0093+  17B1 18 05       
0094+  17B3 F8 29       		LDI	41		;CMD 41
0095+  17B5 D4          		CALL	SD_CMD		;Returned D=Response, RA=SDC_STATUS, RE=SD_CARD I/O
0095+  17B6 18 05       
0096+  17B8 32 C5       		BZ	ISD_4
0097+  17BA F8 C8       		LDI	200		; ~= 2mSec Delay
0098+  17BC D4          		CALL	DELAY_D
0098+  17BD 22 2F       
0099+  17BF 2B          		DEC	RB
0100+  17C0 8B          		GLO	RB
0101+  17C1 3A AE       		BNZ	ISD_LP2
0102+  17C3 30 4D       		BR	INIT_FAIL
0103+  17C5             				
0104+  17C5 D4          ISD_4		PRINT
0104+  17C6 22 80       
0105+  17C8 2B 00       		.text "+\000"
0106+  17CA D4          		LDD	SD_CARD_TYPE
0106+  17CB 23 28       
0106+  17CD FF 0E       
0107+  17CF FF 02       		SMI	2
0108+  17D1 3A FE       		BNZ	ISD_6
0109+  17D3 F8 3A       		LDI	58		;CMD 58
0110+  17D5 D4          		CALL	SD_CMD		;Returnd D=Response, RA=SDC_STATUS, RE=SD_CARD I/O
0110+  17D6 18 05       
0111+  17D8 3A 4D       		BNZ	INIT_FAIL
0112+  17DA D4          		CALL	SPI_RX
0112+  17DB 18 41       
0113+  17DD FA C0       		ANI	0C0h
0114+  17DF FF C0       		SMI	0C0h
0115+  17E1 3A F5       		BNZ	ISD_5
0116+  17E3 F8 03       		LDI	3
0117+  17E5 D4          		STD	SD_CARD_TYPE		;SAVE CARD TYPE 3
0117+  17E6 23 21       
0117+  17E8 FF 0E       
0118+  17EA D4          		PRINT
0118+  17EB 22 80       
0119+  17ED 205479706523		.text " Type#3\000"
0119+  17F3 3300
0120+  17F5 D4          ISD_5		CALL	SPI_RX
0120+  17F6 18 41       
0121+  17F8 D4          		CALL	SPI_RX
0121+  17F9 18 41       
0122+  17FB D4          		CALL	SPI_RX
0122+  17FC 18 41       
0123+  17FE             
0124+  17FE E3          ISD_6		SEX	R3		;SD_DESELECT
0125+  17FF 65          		OUT	5
0126+  1800 70          		.DB	70h
0127+  1801 F8 00       		LDI	0		;00 = Success
0128+  1803 D5          		RETN
0129+  1804             
0130+  1804             ;-----------------------------------------------------------------------------------------------------
0131+  1804             ;SD_DESELECT	SEX	R3
0132+  1804             ;		OUT	5
0133+  1804             ;		.DB	70h
0134+  1804             ;		RETN
0135+  1804             		
0136+  1804             ;-----------------------------------------------------------------------------------------------------
0137+  1804             ;SD_SELECT	SEX	R3
0138+  1804             ;		OUT	5
0139+  1804             ;		.DB	71h
0140+  1804             ;		LDI	3
0141+  1804             ;		CALL	DELAY_D
0142+  1804 D5          		RETN
0143+  1805             
0144+  1805             ;-----------------------------------------------------------------------------------------------------
0145+  1805             ;Enter  D = COMMAND    (PARAM SET)
0146+  1805             ;Sets 	D = RESPONSE
0147+  1805             ;	RA = SDC_STATUS (RESPONSE SAVED)
0148+  1805             ;	RE = SD_CARD I/O
0149+  1805             ;Send command to SD card
0150+  1805 D4          SD_CMD		LDI_RA	SD_PARAM_CMD  ;1 Byte Before PARAMETERS
0150+  1806 22 F4       
0150+  1808 FF 08       
0151+  180A F9 40       		ORI	040h	;All Commands start with 40h
0152+  180C 5A          		STR	RA
0153+  180D             
0154+  180D E3          		SEX	R3	;CALL	SD_SELECT
0155+  180E 65          		OUT	5
0156+  180F 71          		.DB	71h
0157+  1810             		
0158+  1810 D4          		CALL	WAIT_NOT_BUSY	;RE=SD_CARD_REG I/O (use later)
0158+  1811 18 4C       
0159+  1813             
0160+  1813 F8 FF       		LDI	0FFh	;Default CRC
0161+  1815 AF          		PLO	RF
0162+  1816 0A          		LDN	RA	;Fetch command (Or'd with 40 already)
0163+  1817 FF 40       		SMI	40h
0164+  1819 32 23       		BZ	SDC_CMD0
0165+  181B FF 08       		SMI	8
0166+  181D 3A 26       		BNZ	SDC_GO1
0167+  181F F8 87       SDC_CMD8	LDI	087h	;Use CRC 87 on CMD 0
0168+  1821 30 25       		BR	SDC_GOS
0169+  1823 F8 95       SDC_CMD0	LDI	95h	;Use CRC 95 on CMD 8
0170+  1825 AF          SDC_GOS		PLO	RF
0171+  1826             SDC_GO1
0172+  1826 4A          		LDA	RA	;OUTPUT COMMAND (OR'D with 40h, All Commands start with 40h)
0173+  1827             		;STD	SD_CARD_REG  RE already = SD_CARD I/O (from WAIT_NOT_BUSY)
0174+  1827 5E          		STR	RE	;OUTPUT PARAM_CMD		
0175+  1828 4A          		LDA	RA
0176+  1829 5E          		STR	RE	;OUTPUT PARAM
0177+  182A 4A          		LDA	RA
0178+  182B 5E          		STR	RE	;OUTPUT PARAM+1
0179+  182C 4A          		LDA	RA
0180+  182D 5E          		STR	RE	;OUTPUT PARAM+2
0181+  182E 4A          		LDA	RA
0182+  182F 5E          		STR	RE	;OUTPUT PARAM+3
0183+  1830 8F          		GLO	RF
0184+  1831 5E          		STR	RE	;OUTPUT CRC
0185+  1832             
0186+  1832             		;		;PTRA = SDC_STATUS
0187+  1832             
0188+  1832 F8 FF       		LDI	0FFh	;255 Tries for postive response
0189+  1834 AF          		PLO	RF
0190+  1835             SDC_LP		;CALL	SPI_RX	;Read Respsonse?
0191+  1835 5E          		STR	RE
0192+  1836 0E          		LDN	RE	;Read SPI Returned
0193+  1837             
0194+  1837 5A          		STR	RA	;Save Status in SDC_STATUS (same as PARAM_CRC)
0195+  1838 FE          		SHL
0196+  1839 3B 3F       		BNF	SDC_RET	;Jump if Positive
0197+  183B 2F          		DEC	RF
0198+  183C 8F          		GLO	RF
0199+  183D 3A 35       		BNZ	SDC_LP
0200+  183F 0A          SDC_RET		LDN	RA	;Return with Status in D
0201+  1840 D5          		RETN
0202+  1841             
0203+  1841             ;-----------------------------------------------------------------------------------------------------
0204+  1841             ;------------------------------- Receive a byte from SPI
0205+  1841 F8 FF       SPI_RX		LDI	SD_CARD_REG/256
0206+  1843 BE          		PHI	RE
0207+  1844 F8 FF       		LDI	SD_CARD_REG%256
0208+  1846 AE          		PLO	RE
0209+  1847 F8 FF       		LDI	0FFh	;Read Respsonse
0210+  1849 5E          		STR	RE
0211+  184A 0E          		LDN	RE	;Read SPI Returned
0212+  184B D5          		RETN
0213+  184C             
0214+  184C             ;-----------------------------------------------------------------------------------------------------
0215+  184C             ;Uses RF scratch, returns RE=SD_CARD_REG, D=0 not busy
0216+  184C             ;------------------------------- Wait until FF's come back from Card (ie NOT BUSY)
0217+  184C F8 A5       WAIT_NOT_BUSY	LDI	0FF	;Fetch 1 consecutive FF's to be sure SD card NOT BUSY
0218+  184E BF          		PHI	RF
0219+  184F F8 01       WNB_LP		LDI	1	;Set count for 1 trys
0220+  1851 AF          		PLO	RF
0221+  1852             		;CALL	SPI_RX	;Send a byte to get a byte, returns D (RE = SD_CARD_REG)
0222+  1852 F8 FF       		LDI	SD_CARD_REG/256
0223+  1854 BE          		PHI	RE
0224+  1855 F8 FF       		LDI	SD_CARD_REG%256
0225+  1857 AE          		PLO	RE
0226+  1858 F8 FF       WNB_LP2		LDI	0FFh	;Read Respsonse
0227+  185A 5E          		STR	RE
0228+  185B 0E          		LDN	RE	;Read SPI Returned
0229+  185C FF FF       		SMI	0FFh	;NOT FF RETURNED, JUMP TO COUNT DOWN TRYS
0230+  185E 3A 65       		BNZ	WNB_0	
0231+  1860 2F          		DEC	RF	;Count Down Consecutive FF's
0232+  1861 8F          		GLO	RF
0233+  1862 3A 58       		BNZ	WNB_LP2
0234+  1864 D5          		RETN		;Return NOT BUSY (Zero)
0235+  1865             
0236+  1865 F8 05       WNB_0		LDI	5
0237+  1867 FF 01       WNB_DELAY_LP	SMI	1
0238+  1869 3A 67       		BNZ	WNB_DELAY_LP
0239+  186B 9F          		GHI	RF
0240+  186C FF 01       		SMI	1	;Count Down Trys
0241+  186E BF          		PHI	RF
0242+  186F 3A 4F       		BNZ	WNB_LP
0243+  1871 F8 FF       		LDI	0FFh	;Return STILL BUSY (Set Carry)  DEBUG ADD DIAGNOSTIC MESSAGE FOR USER???
0244+  1873 D5          		RETN
0245+  1874             		
0246+  1874             
0247+  1874             ;*******************************************************************************
0248+  1874             ;*******************************************************************************
0249+  1874             
0250+  1874             ;=====================================================================================================
0251+  1874             ;=====================================================================================================
0252+  1874             ;Read Sector 0 (Test Signature)
0253+  1874             ;SD_PART_TYPE = (byte) SEC(0).01C2 (Test TYPE, 4, 6, or 86h Valid)
0254+  1874             ;SD_PART_BASE = (dword) SEC(0).01C6, Sector of Partion (eg 000000F3)
0255+  1874             ;SD_PART_SIZE = (dword) SEC(0).01CA, Size of SD Card   (eg 001EB30D)
0256+  1874             ;
0257+  1874             ;Read Sector SD_PART_BASE (Test Signature)
0258+  1874             ;BYTE_P_SEC   = (word) SEC(SD_PART_BASE).000B Bytes per sector (eg 0200)
0259+  1874             ;SEC_PER_CLUS = (byte) SEC(SD_PART_BASE).000D Sectors Per Cluster (eg 20)
0260+  1874             ;RESERVED_SEC = (word) SEC(SD_PART_BASE).000E Reserved Sectors (eg 0004)
0261+  1874             ;FAT_COPIES   = (byte) SEC(SD_PART_BASE).0010 Number of FAT's (eg 02)
0262+  1874             ;ROOTDIR_SIZE = (word) SEC(SD_PART_BASE).0011 Size of RootDir (eg 0200 = 512 files)
0263+  1874             ;FILESYS_SEC  = (word) SEC(SD_PART_BASE).0013 Sectors (check not zero)
0264+  1874             ;
0265+  1874             ;HIDDEN_SEC   =(dword) SEC(SD_PART_BASE).001C (eg 000000F3)
0266+  1874             ;SEC_PER_FAT  = (word) SEC(SD_PART_BASE).0016 (eg 00F6)
0267+  1874             ;`
0268+  1874             ;Calculated Values, Sectors
0269+  1874             ;FAT1START    =(dword) SD_PART_BASE+RESERVED_SEC (eg 000000F7)
0270+  1874             ;DIR_SECTOR   =(dword) FAT1START+(FAT_COPIES * SEC_PER_FAT)  (eg 000002E3)
0271+  1874             ;DATASTART    =(dword) DIR_SECTOR + ROTDIR_SIZE * 32 / BYTE_P_SEC
0272+  1874             ;
0273+  1874             ;Finally Select Divide Routine
0274+  1874             ;
0275+  1874             ;Sector
0276+  1874             ;00000000: Master Boot Record
0277+  1874             ;000000F3: Partition Base
0278+  1874             ;000000F7: FAT (Base+Reserved)
0279+  1874             ;000002E3: Directory
0280+  1874             ;00000303: Data Start (Cluster 2)
0281+  1874             ;
0282+  1874             ;
0283+  1874             ;All words and dwords are stored in little endian
0284+  1874             ;
0285+  1874             ;
0286+  1874             		;NEWPAGE
0287+  1874 99          INIT_FAT	GHI	R9		
0288+  1875 FA 10       		ANI	10h
0289+  1877 32 84       		BZ	INITFAT_FAIL	;SD_CARD_OUT
0290+  1879             
0291+  1879 D4          		CALL	INIT_SDCARD
0291+  187A 17 00       
0292+  187C 3A 84       		BNZ	INITFAT_FAIL
0293+  187E D4          		CALL	IFIS_GOOD
0293+  187F 18 99       
0294+  1881 3A 84       		BNZ	INITFAT_FAIL
0295+  1883 D5          		RETN
0296+  1884             		
0297+  1884 D4          INITFAT_FAIL	CALL	SELECT_DEFAULT
0297+  1885 FF 7E       
0298+  1887 D4          		PRINT
0298+  1888 22 80       
0299+  188A 0D0A494E4954		.text "\r\nINIT FAIL\r\n\000"
0299+  1890 204641494C0D0A00
0300+  1898 D5          		RETN			;FF = FAILURE
0301+  1899             
0302+  1899 D4          IFIS_GOOD	PRINT
0302+  189A 22 80       
0303+  189C 4D 42 52 00 		.text "MBR\000"
0304+  18A0             
0305+  18A0 D4          		LDI_RA	SEC_IDX	;4 BYTE PARAMETERS
0305+  18A1 22 F4       
0305+  18A3 FF 3A       
0306+  18A5 D4          		CLR32_RA
0306+  18A6 24 1F       
0307+  18A8             
0308+  18A8 D4          		CALL	READ_AND_TEST
0308+  18A9 1A 2A       
0309+  18AB 3A 84       		BNZ	INITFAT_FAIL
0310+  18AD             			
0311+  18AD D4          		CALL	CHECK_PART_TYPE	;ALLOW PART TYPES 04, 06, 0Eh, OR 86h
0311+  18AE 1A 43       
0312+  18B0 3A 84       		BNZ	INITFAT_FAIL
0313+  18B2             
0314+  18B2 D4          		CALL	FAT_SUB1	;Copy BASE & SIZE from BUFFER to RAM Variables
0314+  18B3 1A 6A       
0315+  18B5             					;SEC_IDX = PARTION BASE
0316+  18B5             		
0317+  18B5 D4          		CALL	READ_AND_TEST	;READ BOOT RECORD OF PARTITION (RA=32BIT POINTER)
0317+  18B6 1A 2A       
0318+  18B8 3A 84       		BNZ	INITFAT_FAIL
0319+  18BA             		
0320+  18BA D4          		CALL	FAT_SUB2	;Read Partition Parameters
0320+  18BB 1A 8F       
0321+  18BD             	
0322+  18BD             	
0323+  18BD             ;BS.fat1Start = MBR.part1Start + BS.reservedSectors;
0324+  18BD             
0325+  18BD D4          		LD_RA SD_PART_BASE
0325+  18BE 23 5C       
0325+  18C0 FF 10       
0326+  18C2 D4          		LD_RB RESERVED_SEC
0326+  18C3 23 68       
0326+  18C5 FF 1B       
0327+  18C7 D4          		ADD_RA_RB	;RA = RA + RB
0327+  18C8 23 E4       
0328+  18CA             		
0329+  18CA D4          		ST_RA FAT1START	;Save the addition
0329+  18CB 23 8C       
0329+  18CD FF 2A       
0330+  18CF             
0331+  18CF D4          		LD_RA SD_PART_BASE+2
0331+  18D0 23 5C       
0331+  18D2 FF 12       
0332+  18D4 3B D7       		BNF	INITFAT_C1_DONE	;Do carry over
0333+  18D6 1A          		INC	RA
0334+  18D7 D4          INITFAT_C1_DONE	ST_RA FAT1START+2
0334+  18D8 23 8C       
0334+  18DA FF 2C       
0335+  18DC             
0336+  18DC             
0337+  18DC             ;firstDirSector = BS.fat1Start + (BS.fatCopies * BS.sectorsPerFAT);
0338+  18DC D4          		LDD	FAT_COPIES
0338+  18DD 23 28       
0338+  18DF FF 1D       
0339+  18E1 AC          		PLO	RC
0340+  18E2 D4          		LD_RB	SEC_PER_FAT
0340+  18E3 23 68       
0340+  18E5 FF 28       
0341+  18E7 F8 00       		LDI	0
0342+  18E9 BA          		PHI	RA
0343+  18EA AA          		PLO	RA
0344+  18EB D4          INITFAT_C2_LP	ADD_RA_RB	;RA = RA + RB
0344+  18EC 23 E4       
0345+  18EE 2C          		DEC	RC
0346+  18EF 8C          		GLO	RC
0347+  18F0 3A EB       		BNZ	INITFAT_C2_LP	;RA = FAT_COPIES * SEC_PER_FAT
0348+  18F2 D4          		LD_RB	FAT1START
0348+  18F3 23 68       
0348+  18F5 FF 2A       
0349+  18F7 D4          		ADD_RA_RB	;RA = RA + RB	;DIR_SECTOR = FAT1START + FAT_COPIES * SEC_PER_FAT
0349+  18F8 23 E4       
0350+  18FA D4          		ST_RA	DIR_SECTOR
0350+  18FB 23 8C       
0350+  18FD FF 2E       
0351+  18FF D4          		LD_RA	FAT1START+2
0351+  1900 23 5C       
0351+  1902 FF 2C       
0352+  1904 3B 07       		BNF	INITFAT_C2_DONE
0353+  1906 1A          		INC	RA
0354+  1907 D4          INITFAT_C2_DONE	ST_RA	DIR_SECTOR+2
0354+  1908 23 8C       
0354+  190A FF 30       
0355+  190C             
0356+  190C             ;DATASTART = DIR_SECTOR + LEN(Directory)
0357+  190C             ;          = DIR_SECTOR + ROOTDIR_SIZE * 32 / BYTE_P_SEC
0358+  190C             
0359+  190C D4          		LD_RB	BYTE_P_SEC	;To fit math into 16 bits, let's reduce "ROOTDIR_SIZE / BYTE_P_SEC"
0359+  190D 23 68       
0359+  190F FF 18       
0360+  1911             					;Divide each by 2 while dividable
0361+  1911 D4          		LD_RA	ROOTDIR_SIZE	;H=ROOTDIR_SIZE, D=BYTE_P_SEC
0361+  1912 23 5C       
0361+  1914 FF 1E       
0362+  1916             		
0363+  1916 F8 10       		LDI	16		;Maximum # of Reductions
0364+  1918 AC          		PLO	RC
0365+  1919             		
0366+  1919             ;Before dividing, divide top and bottom by 2 when possible so eg.
0367+  1919             ;RA = 0110100101000000  REDUCES TO 0000000110100101
0368+  1919             ;RB = 0000000110000000             0000000000000110
0369+  1919             ;
0370+  1919             		
0371+  1919 8A          INITFAT_C3_LP	GLO	RA
0372+  191A F6          		SHR
0373+  191B 33 4A       		BDF	INITFAT_C3_0	;If lsb is 1, no more Reduction possible
0374+  191D 8B          		GLO	RB
0375+  191E F6          		SHR
0376+  191F 33 4A       		BDF	INITFAT_C3_0	;If lsb is 1, no more Reduction possible
0377+  1921             		
0378+  1921 9A          		GHI	RA
0379+  1922 F6          		SHR
0380+  1923 BA          		PHI	RA
0381+  1924 8A          		GLO	RA
0382+  1925 76          		SHRC
0383+  1926 AA          		PLO	RA
0384+  1927 9B          		GHI	RB
0385+  1928 F6          		SHR
0386+  1929 BB          		PHI	RB
0387+  192A 8B          		GLO	RB
0388+  192B 76          		SHRC
0389+  192C AB          		PLO	RB
0390+  192D             		
0391+  192D 2C          		DEC	RC
0392+  192E 8C          		GLO	RC
0393+  192F 3A 19       		BNZ	INITFAT_C3_LP
0394+  1931 D4          INITFAT_C3_ERR	PRINT
0394+  1932 22 80       
0395+  1934 204572726F72		.text " Error DATASTART  \000"
0395+  193A 20444154415354415254202000
0396+  1947 F8 FF       		LDI	0FFh
0397+  1949 D5          		RETN
0398+  194A             		
0399+  194A F8 05       INITFAT_C3_0	LDI	5		;5 shifts = Multiply 32
0400+  194C AC          		PLO	RC
0401+  194D 8A          INITFAT_C3_LP2	GLO	RA
0402+  194E FE          		SHL
0403+  194F AA          		PLO	RA
0404+  1950 9A          		GHI	RA
0405+  1951 7E          		SHLC
0406+  1952 BA          		PHI	RA
0407+  1953 33 31       		BDF	INITFAT_C3_ERR
0408+  1955 2C          		DEC	RC
0409+  1956 8C          		GLO	RC
0410+  1957 3A 4D       		BNZ	INITFAT_C3_LP2
0411+  1959             
0412+  1959 8B          		GLO	RB		;2'S Complement BYTE_P_SEC
0413+  195A FB FF       		XRI	0FFh
0414+  195C AB          		PLO	RB
0415+  195D 9B          		GHI	RB		;2'S Complement BYTE_P_SEC
0416+  195E FB FF       		XRI	0FFh
0417+  1960 BB          		PHI	RB
0418+  1961 1B          		INC	RB
0419+  1962             		
0420+  1962 F8 FF       		LDI	0FFh
0421+  1964 AC          		PLO	RC
0422+  1965 BC          		PHI	RC		;Start with -1 (0FFFFh)
0423+  1966 D4          INITFAT_C3_LP3	ADD_RA_RB			;Divide by counting Subtractions
0423+  1967 23 E4       
0424+  1969 1C          		INC	RC
0425+  196A 33 66       		BDF	INITFAT_C3_LP3
0426+  196C             		
0427+  196C 8C          		GLO	RC
0428+  196D AB          		PLO	RB
0429+  196E 9C          		GHI	RC
0430+  196F BB          		PHI	RB
0431+  1970             		
0432+  1970 D4          		LD_RA	DIR_SECTOR	;Add the Dword at DIR_SECTOR
0432+  1971 23 5C       
0432+  1973 FF 2E       
0433+  1975 D4          		ADD_RA_RB
0433+  1976 23 E4       
0434+  1978             			
0435+  1978 D4          		ST_RA	DATASTART
0435+  1979 23 8C       
0435+  197B FF 32       
0436+  197D D4          		LD_RA	DIR_SECTOR+2
0436+  197E 23 5C       
0436+  1980 FF 30       
0437+  1982 3B 85       		BNF	INITFAT_C3_1
0438+  1984 1A          		INC	RA
0439+  1985 D4          INITFAT_C3_1	ST_RA	DATASTART+2
0439+  1986 23 8C       
0439+  1988 FF 34       
0440+  198A             
0441+  198A             
0442+  198A F8 01       		LDI	1
0443+  198C AC          		PLO	RC		;Count position of set bit
0444+  198D             
0445+  198D D4          		LDD	SEC_PER_CLUS	;Determine the best way to divide Sectors into cluster#
0445+  198E 23 28       
0445+  1990 FF 1A       
0446+  1992 FF 01       		SMI	1
0447+  1994 D4          		STD	MODMASK
0447+  1995 23 21       
0447+  1997 FF A9       
0448+  1999 FC 01       		ADI	1		;DF is clear
0449+  199B 3A B6       		BNZ	INITFAT_C4_LP	;Sectors per cluster must not be 0
0450+  199D D4          		PRINT
0450+  199E 22 80       
0451+  19A0 0D0A4572726F		.text "\r\nError=0 Sec/Clus\000"
0451+  19A6 723D30205365632F436C757300
0452+  19B3 F8 FF       		LDI	0FFh
0453+  19B5 D5          		RETN
0454+  19B6             		
0455+  19B6 F6          INITFAT_C4_LP	SHR
0456+  19B7 33 BC       		BDF	INITFAT_C4_1
0457+  19B9 1C          		INC	RC
0458+  19BA 30 B6       		BR	INITFAT_C4_LP
0459+  19BC 3A D4       INITFAT_C4_1	BNZ	INITFAT_C4_2	;More than 1 "1" bit, cannot do divide by simple shift.
0460+  19BE 8C          		GLO	RC		;Fetch position of the 1 bit.  1=lsb AND 8=msb
0461+  19BF D4          		STD	DF_SHIFTCNT
0461+  19C0 23 21       
0461+  19C2 FF AA       
0462+  19C4             		
0463+  19C4 D4          		CALL	STORE_STRING	;Use fast shift divider
0463+  19C5 23 12       
0464+  19C7 FF 72       		  .DW	DIVIDE_SUB	;
0465+  19C9 08          		  .DB	8		;8 BYTES
0466+  19CA D4          		  SEP R4		;CALL
0467+  19CB 1A CE       		  .DW	DIVBYSHIFT
0468+  19CD D5          		  RETN			;RETN
0469+  19CE D4          		  SEP R4		;CALL
0470+  19CF 1A E2       		  .DW	MODBYMASK
0471+  19D1 D5          		  RETN			;RETN
0472+  19D2 30 E2       		BR	INITFAT_C4_3
0473+  19D4             
0474+  19D4 D4          INITFAT_C4_2	CALL	STORE_STRING	;Use Full Divide Function for Sectors Per Cluster
0474+  19D5 23 12       
0475+  19D7 FF 72       		  .DW	DIVIDE_SUB	;
0476+  19D9 08          		  .DB	8		;8 BYTES
0477+  19DA D4          		  SEP R4		;CALL
0478+  19DB 1B 86       		  .DW	DIV16BY8SPC
0479+  19DD D5          		  RETN			;RETN
0480+  19DE D4          		  SEP R4		;CALL
0481+  19DF 1B 86       		  .DW	DIV16BY8SPC
0482+  19E1 D5          		  RETN			;RETN
0483+  19E2             INITFAT_C4_3
0484+  19E2             
0485+  19E2 D4          		PRINT
0485+  19E3 22 80       
0486+  19E5 20564F4C3D00		.text " VOL=\000"
0487+  19EB D4          		LDI_RA SD_RAM_BUFFER+2Bh
0487+  19EC 22 F4       
0487+  19EE C0 2B       
0488+  19F0 F8 0B       		LDI	11
0489+  19F2 AB          		PLO	RB
0490+  19F3 D4          		PRINTB
0490+  19F4 22 96       
0491+  19F6 D4          		PRINT
0491+  19F7 22 80       
0492+  19F9 205359533D00		.text " SYS=\000"
0493+  19FF F8 08       		LDI	8
0494+  1A01 AB          		PLO	RB
0495+  1A02 D4          		PRINTB
0495+  1A03 22 96       
0496+  1A05             		
0497+  1A05             
0498+  1A05             ;		PRINT
0499+  1A05             ;		.text "\r\nPARTION SECTOR: \000"
0500+  1A05             ;		LDI_RA	SD_PART_BASE
0501+  1A05             ;		PUT32_RA		
0502+  1A05             
0503+  1A05             ;		PRINT
0504+  1A05             ;		.text "\r\nDIRECTORY SECTOR: \000"
0505+  1A05             ;		LDI_RA	DIR_SECTOR
0506+  1A05             ;		PUT32_RA		
0507+  1A05             
0508+  1A05             ;		PRINT
0509+  1A05             ;		.text "\r\nDATASTART SECTOR: \000"
0510+  1A05             ;		LDI_RA	DATASTART
0511+  1A05             ;		PUT32_RA		
0512+  1A05             
0513+  1A05             
0514+  1A05 D4          		LD_RA	ROOTDIR_SIZE	;to count down directory sectors searched
0514+  1A06 23 5C       
0514+  1A08 FF 1E       
0515+  1A0A F8 04       		LDI	4	;Divide by 16
0516+  1A0C AC          		PLO	RC
0517+  1A0D 9A          SHRRA_LP	GHI	RA
0518+  1A0E F6          		SHR
0519+  1A0F BA          		PHI	RA
0520+  1A10 8A          		GLO	RA
0521+  1A11 76          		SHRC
0522+  1A12 AA          		PLO	RA
0523+  1A13 2C          		DEC	RC
0524+  1A14 8C          		GLO	RC
0525+  1A15 3A 0D       		BNZ	SHRRA_LP
0526+  1A17 8A          		GLO	RA
0527+  1A18 D4          		STD	DIR_SECTORS	;Count of ROOT DIRECTORY SECTORS for reading directory
0527+  1A19 23 21       
0527+  1A1B FF 49       
0528+  1A1D D4          		LDI_RA	1		;Set Cluster 1 as Directory Cluster
0528+  1A1E 22 F4       
0528+  1A20 00 01       
0529+  1A22 D4          		ST_RA	DCLUS
0529+  1A23 23 8C       
0529+  1A25 FF 62       
0530+  1A27             		;CALL	LOAD_DIR
0531+  1A27 F8 00       		LDI	0
0532+  1A29 D5          		RETN		;00 = Success
0533+  1A2A             
0534+  1A2A             
0535+  1A2A             ;SD_CARD_TYPE	.BLOCK	1	;SD CARD TYPE
0536+  1A2A             ;SDC_STATUS	.BLOCK	1	;SD Status Code returned
0537+  1A2A             ;SD_PARAM	.BLOCK	4	;32 bit address parameter for SD Commands
0538+  1A2A             ;SD_PART_TYPE	.BLOCK	1	;SD PARTITION TYPE
0539+  1A2A             ;SD_PART_BASE	.BLOCK	4	;SD PARTITION STARTING RECORD
0540+  1A2A             ;SD_PART_SIZE	.BLOCK	4	;SD PARTITION SIZE (Must follow SD_PART_BASE)
0541+  1A2A             ;SEC_PER_CLUS	.BLOCK	1	;0x0D
0542+  1A2A             ;RESERVED_SEC	.BLOCK	2	;0x0E - 0x0F
0543+  1A2A             ;FAT_COPIES	.BLOCK	1	;0x10
0544+  1A2A             ;RT_DIR_ENTRIES	.BLOCK	2	;0x11 - 0x12
0545+  1A2A             ;TOT_FILESYS_SEC.BLOCK	4	;0x13 - 0x14 or 0x20 - 0x23
0546+  1A2A             ;HIDDEN_SECTORS	.BLOCK	4	;0x1C - 0x1F
0547+  1A2A             ;SEC_PER_FAT	.BLOCK	2	;0x16 - 0x17
0548+  1A2A             ;FAT1START	.BLOCK	4	;Calculated
0549+  1A2A             ;DIR_SECTOR	.BLOCK	4	;Calculated
0550+  1A2A             ;DATASTART	.BLOCK	4	;Calculated
0551+  1A2A             
0552+  1A2A             
0553+  1A2A D4          READ_AND_TEST	CALL	SD_READ_SEC	;READ MBR (RA=32BIT POINTER)
0553+  1A2B 1B 01       
0554+  1A2D             		;CALL	TEST_SIGNATURE	;Test for Signature in MBR
0555+  1A2D             		;RETN
0556+  1A2D             ;-------------------------------------------------
0557+  1A2D D4          TEST_SIGNATURE	PRINT
0557+  1A2E 22 80       
0558+  1A30 20 53 00    		.text " S\000"
0559+  1A33 D4          		LDI_RA	SD_RAM_BUFFER+511
0559+  1A34 22 F4       
0559+  1A36 C1 FF       
0560+  1A38 EA          		SEX	RA	;SD_RAM_BUFFER[511]
0561+  1A39 F8 AA       		LDI	0AAh
0562+  1A3B F3          		XOR
0563+  1A3C 3A 42       		BNZ	TS_END
0564+  1A3E 2A          		DEC	RA	;SD_RAM_BUFFER[510]
0565+  1A3F F8 55       		LDI	055h
0566+  1A41 F3          		XOR
0567+  1A42 D5          TS_END		RETN
0568+  1A43             
0569+  1A43 D4          CHECK_PART_TYPE	PRINT
0569+  1A44 22 80       
0570+  1A46 20547970653A		.text " Type:\000"
0570+  1A4C 00
0571+  1A4D D4          		LDI_RB	SD_RAM_BUFFER+01C2h	;Set buffer space
0571+  1A4E 22 FA       
0571+  1A50 C1 C2       
0572+  1A52 0B          		LDN	RB
0573+  1A53 D4          		PUT_BYTE
0573+  1A54 22 3B       
0574+  1A56 D4          		STD	SD_PART_TYPE
0574+  1A57 23 21       
0574+  1A59 FF 0F       
0575+  1A5B             					;Valid Partition Types
0576+  1A5B FF 04       		SMI	4		;4
0577+  1A5D 32 69       		BZ	CPT_RET
0578+  1A5F FF 02       		SMI	2		;6
0579+  1A61 32 69       		BZ	CPT_RET
0580+  1A63 FF 08       		SMI	8		;0Eh
0581+  1A65 32 69       		BZ	CPT_RET
0582+  1A67 FF 78       		SMI	080h-8		;86h
0583+  1A69 D5          CPT_RET		RETN
0584+  1A6A             
0585+  1A6A             
0586+  1A6A             		;NEWPAGE
0587+  1A6A             
0588+  1A6A D4          FAT_SUB1	LDI_RA	SD_RAM_BUFFER+01C6h
0588+  1A6B 22 F4       
0588+  1A6D C1 C6       
0589+  1A6F D4          		LDI_RB	SD_PART_BASE
0589+  1A70 22 FA       
0589+  1A72 FF 10       
0590+  1A74 F8 08       		LDI	8
0591+  1A76 D4          		CALL	COPY_RAM_RA2RB	;Copy BASE & SIZE from BUFFER to RAM Variables
0591+  1A77 23 38       
0592+  1A79 D4          		PRINT
0592+  1A7A 22 80       
0593+  1A7C 2050425200  		.text " PBR\000"
0594+  1A81             		
0595+  1A81 D4          		LDI_RB	SD_PART_BASE
0595+  1A82 22 FA       
0595+  1A84 FF 10       
0596+  1A86 D4          		LDI_RA	SEC_IDX
0596+  1A87 22 F4       
0596+  1A89 FF 3A       
0597+  1A8B D4          		CALL	CPY32_RB2RA	;LET A = B Save Sector in SEC_IDX
0597+  1A8C 25 00       
0598+  1A8E D5          		RETN
0599+  1A8F             
0600+  1A8F D4          FAT_SUB2	LDI_RA	SD_RAM_BUFFER+0Bh	;Read Partition Parameters
0600+  1A90 22 F4       
0600+  1A92 C0 0B       
0601+  1A94 D4          		LDI_RB	BYTE_P_SEC
0601+  1A95 22 FA       
0601+  1A97 FF 18       
0602+  1A99 F8 0A       		LDI	10
0603+  1A9B D4          		CALL	COPY_RAM_RA2RB	;Copy Description Table to RAM Variables (Up to Total Filesys Sectors)
0603+  1A9C 23 38       
0604+  1A9E             					;Test TOTAL_FILESYS_SECTORS = 0
0605+  1A9E 2B          		DEC	RB
0606+  1A9F 2B          		DEC	RB
0607+  1AA0 4B          		LDA	RB
0608+  1AA1 EB          		SEX	RB
0609+  1AA2 F1          		OR
0610+  1AA3 3A B2       		BNZ	INITFAT_TFS_OK
0611+  1AA5 2B          		DEC	RB
0612+  1AA6 D4          		LDI_RA	SD_RAM_BUFFER+020h
0612+  1AA7 22 F4       
0612+  1AA9 C0 20       
0613+  1AAB F8 04       		LDI	4
0614+  1AAD D4          		CALL	COPY_RAM_RA2RB
0614+  1AAE 23 38       
0615+  1AB0 30 B9       		BR	INITFAT_TFS_DONE
0616+  1AB2             
0617+  1AB2 F8 00       INITFAT_TFS_OK	LDI	0
0618+  1AB4 1B          		INC	RB
0619+  1AB5 5B          		STR	RB
0620+  1AB6 1B          		INC	RB
0621+  1AB7 5B          		STR	RB
0622+  1AB8 1B          		INC	RB
0623+  1AB9             INITFAT_TFS_DONE
0624+  1AB9             
0625+  1AB9 D4          		LDI_RA	SD_RAM_BUFFER+01Ch  ;000000F3
0625+  1ABA 22 F4       
0625+  1ABC C0 1C       
0626+  1ABE F8 04       		LDI	4		;Copy HIDDEN_SECTORS to RAM Variables
0627+  1AC0 D4          		CALL	COPY_RAM_RA2RB
0627+  1AC1 23 38       
0628+  1AC3             
0629+  1AC3 D4          		LDI_RA	SD_RAM_BUFFER+016h  ;00F6
0629+  1AC4 22 F4       
0629+  1AC6 C0 16       
0630+  1AC8 F8 02       		LDI	2		;Copy SECTORS_PER_FAT to RAM Variables
0631+  1ACA D4          		CALL	COPY_RAM_RA2RB
0631+  1ACB 23 38       
0632+  1ACD             		
0633+  1ACD             	;CALL	PUT_RB
0634+  1ACD D5          		RETN		
0635+  1ACE             ;-----------------------------------------------------------------------------------------------------
0636+  1ACE             ; DE = Dividend
0637+  1ACE D4          DIVBYSHIFT	LDD	DF_SHIFTCNT
0637+  1ACF 23 28       
0637+  1AD1 FF AA       
0638+  1AD3 FF 01       DBS_LP		SMI	1
0639+  1AD5 52          		STR	R2
0640+  1AD6 32 E1       		BZ	DBS_RET
0641+  1AD8 9D          		GHI	RD
0642+  1AD9 F6          		SHR
0643+  1ADA BD          		PHI	RD
0644+  1ADB 8D          		GLO	RD
0645+  1ADC 76          		SHRC
0646+  1ADD AD          		PLO	RD
0647+  1ADE 02          		LDN	R2
0648+  1ADF 30 D3       		BR	DBS_LP
0649+  1AE1 D5          DBS_RET		RETN
0650+  1AE2             		
0651+  1AE2             
0652+  1AE2             ;-----------------------------------------------------------------------------------------------------
0653+  1AE2 52          MODBYMASK	STR	R2
0654+  1AE3 D4          		LDD	MODMASK
0654+  1AE4 23 28       
0654+  1AE6 FF A9       
0655+  1AE8 F2          		AND
0656+  1AE9 D5          		RETN
0657+  1AEA             
0658+  1AEA             
0659+  1AEA 99          SS_CARD_OUT	GHI	R9
0660+  1AEB FA EF       		ANI	0EFh
0661+  1AED B9          		PHI	R9
0662+  1AEE D4          		PRINT
0662+  1AEF 22 80       
0663+  1AF1 436172642052		.text "Card Removed\r\n\000"
0663+  1AF7 656D6F7665640D0A00
0664+  1B00 D5          		RETN
0665+  1B01             
0666+  1B01             ;-----------------------------------------------------------------------------------------------------
0667+  1B01             ;Read the SD Card to the SD_RAM_BUFFER Sector RA32
0668+  1B01             ;Input:	SEC_IDX = 32 bit dword that holds Sector to read
0669+  1B01             ;Output: 
0670+  1B01             ;	D=0 If successful, RE=SD_CARD_REG
0671+  1B01             ;-----------------------------------------------------------------------------------------------------
0672+  1B01 8A          SD_READ_SEC	GLO	RA	;PUSH RA
0673+  1B02 73          		STXD
0674+  1B03 9A          		GHI	RA
0675+  1B04 73          		STXD
0676+  1B05 D4          		LDI_RA	SEC_IDX
0676+  1B06 22 F4       
0676+  1B08 FF 3A       
0677+  1B0A D4          		CALL	LOAD_PARAM	;Shift Sec# into PARAM as needed by card type
0677+  1B0B 1B 5C       
0678+  1B0D             
0679+  1B0D F8 05       		LDI	5	;5 Retries to read
0680+  1B0F 52          SD_RS_LP0	STR	R2
0681+  1B10 F8 11       		LDI	17 	;Read Sector Command
0682+  1B12 D4          		CALL	SD_CMD	;RE = SD_CARD I/O PORT
0682+  1B13 18 05       
0683+  1B15 32 1E       		BZ	SD_RS_0
0684+  1B17 02          		LDN	R2
0685+  1B18 FF 01       		SMI	1
0686+  1B1A 3A 0F       		BNZ	SD_RS_LP0
0687+  1B1C 30 2D       		BR	SD_RFAIL
0688+  1B1E             		
0689+  1B1E F8 FF       SD_RS_0		LDI	0FFh		;255 Attempts to recieve the DATASTART
0690+  1B20 AA          		PLO	RA
0691+  1B21 F8 FF       SD_RS_LP1	LDI	0FFh	;Read Respsonse
0692+  1B23 5E          		STR	RE
0693+  1B24 0E          		LDN	RE	;Read SPI Returned
0694+  1B25 FF FE       		SMI	0FEh		;IS DATASTART?
0695+  1B27 32 31       		BZ	SD_RS_1
0696+  1B29 2A          		DEC	RA
0697+  1B2A 8A          		GLO	RA
0698+  1B2B 3A 21       		BNZ	SD_RS_LP1
0699+  1B2D             				;Read failed
0700+  1B2D F8 FF       SD_RFAIL	LDI	0FFh		;Return Non-Zero (error)
0701+  1B2F 30 47       		BR	SD_EXIT
0702+  1B31             
0703+  1B31 D4          SD_RS_1		LDI_RA	SD_RAM_BUFFER	;Set buffer space
0703+  1B32 22 F4       
0703+  1B34 C0 00       
0704+  1B36 D4          		CALL	SD_RS_READ256	;READ 512 BYTES
0704+  1B37 1B 52       
0705+  1B39 D4          		CALL	SD_RS_READ256
0705+  1B3A 1B 52       
0706+  1B3C             		
0707+  1B3C             		
0708+  1B3C D4          		CALL	SPI_RX	;BURN 2 BYTES (CRC)
0708+  1B3D 18 41       
0709+  1B3F D4          		CALL	SPI_RX	;
0709+  1B40 18 41       
0710+  1B42 E3          		SEX	R3		;SD_DESELECT
0711+  1B43 65          		OUT	5
0712+  1B44 70          		.DB	70h
0713+  1B45 F8 00       		LDI	0		;D=0=Successful
0714+  1B47 BF          SD_EXIT		PHI	RF
0715+  1B48 E3          		SEX	R3		;SD_DESELECT
0716+  1B49 65          		OUT	5
0717+  1B4A 70          		.DB	70h
0718+  1B4B 12          		INC	R2		;POP RA
0719+  1B4C 42          		LDA	R2
0720+  1B4D BA          		PHI	RA
0721+  1B4E 02          		LDN	R2
0722+  1B4F AA          		PLO	RA
0723+  1B50 9F          		GHI	RF		;RESTORE Status in D
0724+  1B51 D5          		RETN
0725+  1B52             
0726+  1B52 F8 FF       SD_RS_READ256	LDI	0FFh	;Read Respsonse
0727+  1B54 5E          		STR	RE
0728+  1B55 0E          		LDN	RE	;Read SPI Returned
0729+  1B56 5A          		STR	RA
0730+  1B57 1A          		INC	RA
0731+  1B58 8A          		GLO	RA
0732+  1B59 3A 52       		BNZ	SD_RS_READ256
0733+  1B5B D5          		RETN
0734+  1B5C             		
0735+  1B5C             ;----------------------------------------------
0736+  1B5C D4          LOAD_PARAM	LDD	SD_CARD_TYPE	;IF SD_CARD_TYPE <> 3 THEN SHIFT SECTOR << 9 Bits
0736+  1B5D 23 28       
0736+  1B5F FF 0E       
0737+  1B61 D4          		LDI_RE 	SD_PARAM+3	;Save Sector in Param, reverse order for Big Endian
0737+  1B62 23 0C       
0737+  1B64 FF 0C       
0738+  1B66 FF 03       		SMI	3
0739+  1B68 3A 76       		BNZ	SP_SHIFT
0740+  1B6A             
0741+  1B6A 4A          		LDA	RA	;GET RA[0]; RA[1]		PARAM	RA
0742+  1B6B 5E          		STR	RE	;PUT RB[3]			[0] =	[3]
0743+  1B6C 2E          		DEC	RE	;RB[2]				[1] =	[2]
0744+  1B6D 4A          		LDA	RA	;GET RA[1]; RA[2]		[2] =	[1]
0745+  1B6E 5E          		STR	RE	;PUT RB[2]			[3] =	[0]
0746+  1B6F 2E          		DEC	RE	;RB[1]
0747+  1B70 4A          		LDA	RA	;GET RA[2]; RA[3]
0748+  1B71 5E          		STR	RE	;PUT RB[1]
0749+  1B72 2E          		DEC	RE	;RB[0]
0750+  1B73 0A          		LDN	RA	;GET RA[3]
0751+  1B74 5E          		STR	RE	;PUT RB[0]
0752+  1B75 D5          		RETN
0753+  1B76             
0754+  1B76 F8 00       SP_SHIFT	LDI	0	;				PARAM	RA
0755+  1B78 5E          		STR	RE	;PUT RB[3]			[0] =	[2]<<1
0756+  1B79 2E          		DEC	RE	;RB[2]				[1] =	[1]<<1
0757+  1B7A 4A          		LDA	RA	;GET RA[0]; RA[1]		[2] =	[0]<<1
0758+  1B7B FE          		SHL		;				[3] =	 0
0759+  1B7C 5E          		STR	RE	;PUT RB[2]
0760+  1B7D 2E          		DEC	RE	;RB[1]
0761+  1B7E 4A          		LDA	RA	;GET RA[1]; RA[2]
0762+  1B7F 7E          		SHLC
0763+  1B80 5E          		STR	RE	;PUT RB[1]
0764+  1B81 2E          		DEC	RE	;RB[0]
0765+  1B82 0A          		LDN	RA	;GET RA[2]
0766+  1B83 7E          		SHLC
0767+  1B84 5E          		STR	RE	;PUT RB[0]
0768+  1B85 D5          		RETN
0769+  1B86             
0770+  1B86             
0771+  1B86             
0772+  1B86             ;-----------------------------------------------------------------------------------------------------
0773+  1B86             ;If dividing by powers of 2, then we can shift the number for fast divide
0774+  1B86             DIV16BY8SPC	;LDD	SEC_PER_CLUS
0775+  1B86             	;Input:	DE=Dividend, A=Divisor
0776+  1B86             	;Out:	DE=Result, A=Remainder
0777+  1B86             ;DIV16BY8	XCHG		; HL = Dividend
0778+  1B86             ;		MVI	E,00	; Quotient = 0
0779+  1B86             ;		MOV	B, A	; Store        Divisor
0780+  1B86             ;		MVI	C, 08	; Count = 8
0781+  1B86             ;DIV16BY8_LP	DAD H		; Dividend = Dividend x 2
0782+  1B86             ;		MOV	A, E
0783+  1B86             ;		RLC
0784+  1B86             ;		MOV	E, A	; Quotient = Quotient x 2
0785+  1B86             ;		MOV	A, H
0786+  1B86             ;		SUB	B	; Is most significant byte of Dividend > divisor
0787+  1B86             ;		JC	DIV16BY8_SK	; No, go to Next step
0788+  1B86             ;		MOV	H, A	; Yes, subtract divisor
0789+  1B86             ;		INR	E	; and Quotient = Quotient + 1
0790+  1B86             ;DIV16BY8_SK	DCR	C	; Count = Count - 1
0791+  1B86             ;		JNZ	DIV16BY8_LP ; Is count =0 repeat
0792+  1B86             ;		;MOV	A, E
0793+  1B86             ;		;STA	2401H	; Store Quotient
0794+  1B86             ;		MOV	A, H
0795+  1B86             ;		;STA	2410H	; Store remainder
0796+  1B86             ;		MVI	D,0	; Quotient in DE
0797+  1B86 D5          		RETN
0798+  1B87             
0799+  1B87             		;NEWPAGE
0800+  1B87             
0801+  1B87             ;Starting Sector of Cluster, this is the first Sector for that Cluster
0802+  1B87             		
0803+  1B87             	;Here comes the FAT Hopping FUN...
0804+  1B87             	;      CCLUS = FAT(CCLUS)
0805+  1B87             	;it's convenient that 1 Sector is 512 bytes, that's 256 words = 256 FAT Entries, therefore...
0806+  1B87             	;high byte = Sector of FAT
0807+  1B87             	;low byte = Word within that Sector of FAT
0808+  1B87             
0809+  1B87             ;Starting Sector of Cluster, this is the first Sector for that Cluster
0810+  1B87 8A          FAT_HOP		GLO	RA	;PUSH RA
0811+  1B88 73          		STXD
0812+  1B89 9A          		GHI	RA
0813+  1B8A 73          		STXD
0814+  1B8B             
0815+  1B8B D4          		LD_RA	CCLUS		;Use CCLUS when fat hopping.
0815+  1B8C 23 5C       
0815+  1B8E FF 60       
0816+  1B90 9A          		GHI	RA
0817+  1B91 52          		STR	R2		;Save for later
0818+  1B92 1A          		INC	RA		;Test if FFFFh  = no more clusters
0819+  1B93 9A          		GHI	RA
0820+  1B94 3A BC       		BNZ	FH_OK
0821+  1B96 8A          		GLO	RA
0822+  1B97 3A BC       		BNZ	FH_OK
0823+  1B99             
0824+  1B99 D4          		PRINT
0824+  1B9A 22 80       
0825+  1B9C 0D0A4552524F		.text "\r\nERROR, END OF CLUSTER CHAIN\000"
0825+  1BA2 522C20454E44204F4620434C555354455220434841494E00
0826+  1BBA 30 F1       		BR	FAT_HOP_RET
0827+  1BBC             		
0828+  1BBC D4          FH_OK		LDI_RA	SEC_IDX		;Calculate sector of FAT into SEC_IDX
0828+  1BBD 22 F4       
0828+  1BBF FF 3A       
0829+  1BC1 D4          		LDI_RE	FAT1START
0829+  1BC2 23 0C       
0829+  1BC4 FF 2A       
0830+  1BC6 D4          		CALL	CPY32_RE2RA	;
0830+  1BC7 25 03       
0831+  1BC9             
0832+  1BC9 D4          		LDI_RE	TEMP32
0832+  1BCA 23 0C       
0832+  1BCC FF 4A       
0833+  1BCE D4          		CLR32_RE
0833+  1BCF 24 25       
0834+  1BD1             		
0835+  1BD1 02          		LDN	R2		;High byte of cluster = sector of FAT
0836+  1BD2 5E          		STR	RE
0837+  1BD3             		
0838+  1BD3 D4          		CALL	ADD32RE		;SEC_IDX = FAT1START + Cluster high byte
0838+  1BD4 24 82       
0839+  1BD6 D4          		CALL	SD_READ_SEC	;Read FAT into Buffer (RA=32BIT POINTER)
0839+  1BD7 1B 01       
0840+  1BD9             		
0841+  1BD9 D4          		LD_RA	CCLUS		;Use CCLUS when fat hopping.  
0841+  1BDA 23 5C       
0841+  1BDC FF 60       
0842+  1BDE             		
0843+  1BDE 8A          		GLO	RA		;Set pointer into SD_RAM_BUFFER
0844+  1BDF FE          		SHL			;RD = SD_RAM_BUFFER + (low byte Cluster * 2)
0845+  1BE0 AE          		PLO	RE
0846+  1BE1 F8 C0       		LDI	SD_RAM_BUFFER/256
0847+  1BE3 7C 00       		ADCI	0
0848+  1BE5 BE          		PHI	RE
0849+  1BE6             
0850+  1BE6 4E          		LDA	RE
0851+  1BE7 AA          		PLO	RA
0852+  1BE8 0E          		LDN	RE
0853+  1BE9 BA          		PHI	RA
0854+  1BEA D4          		ST_RA	CCLUS
0854+  1BEB 23 8C       
0854+  1BED FF 60       
0855+  1BEF F8 01       		LDI	1		;RETURN NOT ZERO
0856+  1BF1 BF          FAT_HOP_RET	PHI	RF
0857+  1BF2 12          		INC	R2		;POP RA
0858+  1BF3 42          		LDA	R2
0859+  1BF4 BA          		PHI	RA
0860+  1BF5 02          		LDN	R2
0861+  1BF6 AA          		PLO	RA
0862+  1BF7 9F          		GHI	RF
0863+  1BF8 D5          		RETN
0864+  1BF9             		
0865+  1BF9             
0866+  1BF9 E2          		SEX	R2	;PADDING FOR PAGES
0867+  1BFA             
0868+  1BFA             ;=====================================================================================================
0869+  1BFA             ;=====================================================================================================
0870+  1BFA             ;=====================================================================================================
0871+  1BFA             ;=====================================================================================================
0872+  1BFA             ;=====================================================================================================
0873+  1BFA             ;=====================================================================================================
0874+  1BFA             ;=====================================================================================================
0875+  1BFA             ;Directory Routines.  1st Routine to start/init the search, 2nd routine to continue the search
0876+  1BFA             ;=====================================================================================================
0877+  1BFA             ;=====================================================================================================
0878+  1BFA             ;=====================================================================================================
0879+  1BFA             ;=====================================================================================================
0880+  1BFA             ;=====================================================================================================
0881+  1BFA             ;=====================================================================================================
0882+  1BFA             ;=====================================================================================================
0883+  1BFA             
0884+  1BFA             ;-----------------------------------------------------------------------------------------------------
0885+  1BFA             ;Call this routine to initialize and start the RA Pointer to the first Directory Entry
0886+  1BFA             ;
0887+  1BFA D4          DIR_INIT	LD_RA	DCLUS		;Check which Director Cluster is in use
0887+  1BFB 23 5C       
0887+  1BFD FF 62       
0888+  1BFF 9A          		GHI	RA		;0000 OR 0001 = Root Dir
0889+  1C00 3A 5A       		BNZ	DI_SUB		;
0890+  1C02 8A          		GLO	RA		;
0891+  1C03 FA FE       		ANI	0FEh		;
0892+  1C05 3A 5A       		BNZ	DI_SUB		;Jump if SUB DIRECTORY
0893+  1C07             						
0894+  1C07             					;DO INIT for ROOT DIRECTORY
0895+  1C07 D4          		LDI_RA	FULLPATH+256	;Execute Return to ROOT
0895+  1C08 22 F4       
0895+  1C0A FE 00       
0896+  1C0C D4          		CALL	DEC_CLEAR	;Erases FULLPATH
0896+  1C0D 1C 4C       
0897+  1C0F F8 5C       		LDI	05Ch		;Start FULLPATH with \
0898+  1C11 5A          		STR	RA
0899+  1C12 D4          		LDD	DIR_SECTORS	;SECTORS_REMAIN = ROOTDIR_SIZE (Count of Directory Sectors)
0899+  1C13 23 28       
0899+  1C15 FF 49       
0900+  1C17 D4          		STD	SECTORS_REMAIN
0900+  1C18 23 21       
0900+  1C1A FF 65       
0901+  1C1C D4          		LDI_RB	DIR_SECTOR	;SEC_PTR = DIR_SECTOR
0901+  1C1D 22 FA       
0901+  1C1F FF 2E       
0902+  1C21 D4          		LDI_RA	SEC_IDX
0902+  1C22 22 F4       
0902+  1C24 FF 3A       
0903+  1C26 D4          		CALL	CPY32_RB2RA	;LET A = B Save Sector in SEC_IDX
0903+  1C27 25 00       
0904+  1C29 D4          		CALL	SD_READ_SEC	;Fetch a ROOT DIRECTORY sector (RA=32BIT POINTER)
0904+  1C2A 1B 01       
0905+  1C2C D4          		LDI_RA	SD_RAM_BUFFER+11
0905+  1C2D 22 F4       
0905+  1C2F C0 0B       
0906+  1C31 0A          		LDN	RA
0907+  1C32 FA 08       		ANI	8
0908+  1C34 32 45       		BZ	DIR_NOVOLUME
0909+  1C36 D4          		LDI_RA	SD_RAM_BUFFER
0909+  1C37 22 F4       
0909+  1C39 C0 00       
0910+  1C3B D4          		LDI_RB	VOLUME_NAME
0910+  1C3C 22 FA       
0910+  1C3E FF 9B       
0911+  1C40 F8 0B       		LDI	11
0912+  1C42 D4          		CALL	COPY_RAM_RA2RB
0912+  1C43 23 38       
0913+  1C45             
0914+  1C45 D4          DIR_NOVOLUME	LDI_RA	SD_RAM_BUFFER
0914+  1C46 22 F4       
0914+  1C48 C0 00       
0915+  1C4A 30 6F       		BR	SD_FETCH1
0916+  1C4C             
0917+  1C4C 2A          DEC_CLEAR	DEC	RA
0918+  1C4D F8 00       		LDI	0
0919+  1C4F 5A          		STR	RA
0920+  1C50 8A          		GLO	RA
0921+  1C51 3A 4C       		BNZ	DEC_CLEAR
0922+  1C53 D5          		RETN
0923+  1C54             
0924+  1C54 D4          DI_SUB_FAT_HOP	CALL	FAT_HOP		;CCLUS = FAT(CCLUS)
0924+  1C55 1B 87       
0925+  1C57 3A 5F       		BNZ	DI_SUB1		;LOOP BACK IF NO error (or EOF)
0926+  1C59 D5          		RETN
0927+  1C5A             
0928+  1C5A             					;DO INIT for SUB DIRECTORY
0929+  1C5A D4          DI_SUB		ST_RA	CCLUS		;SAVE CURRENT CLUSTER
0929+  1C5B 23 8C       
0929+  1C5D FF 60       
0930+  1C5F D4          DI_SUB1		LDD	SEC_PER_CLUS	
0930+  1C60 23 28       
0930+  1C62 FF 1A       
0931+  1C64 D4          		STD	SECTORS_REMAIN
0931+  1C65 23 21       
0931+  1C67 FF 65       
0932+  1C69 D4          		CALL	CALC_SEC_IDX	;Converts CCLUS to SEC_IDX
0932+  1C6A 1C C6       
0933+  1C6C             
0934+  1C6C D4          SD_FETCH	CALL	SD_READ_SEC	;Fetch a ROOT DIRECTORY sector (RA=32BIT POINTER)
0934+  1C6D 1B 01       
0935+  1C6F D4          SD_FETCH1	LDI_RA	SD_RAM_BUFFER	;(Re)start RB at start of Sector
0935+  1C70 22 F4       
0935+  1C72 C0 00       
0936+  1C74 0A          SD_TEST		LDN	RA		;Check if Valid Directory Entry
0937+  1C75 FF 21       		SMI	33		;Checks if first char is valid ASCII
0938+  1C77 3B 9F       		BM	SD_LDIRNEXT
0939+  1C79 FF 5E       		SMI	127-33
0940+  1C7B 33 9F       		BPZ	SD_LDIRNEXT
0941+  1C7D D4          		CALL	CMPSTR
0941+  1C7E 22 67       
0942+  1C80 2E 2E 00    		.TEXT	"..\000"
0943+  1C83 32 93       		BZ	SD_TESTG
0944+  1C85 8A          		GLO	RA		;Test if starting cluster is 0, skip file
0945+  1C86 BF          		PHI	RF
0946+  1C87 FC 1A       		ADI	1Ah		;DF=0 (adding 1A never overflows)
0947+  1C89 AA          		PLO	RA
0948+  1C8A 4A          		LDA	RA
0949+  1C8B EA          		SEX	RA
0950+  1C8C F1          		OR
0951+  1C8D FC FF       		ADI	255		;DF=1 if not zero
0952+  1C8F 9F          		GHI	RF
0953+  1C90 AA          		PLO	RA		;Restore RA
0954+  1C91 3B 9F       		BNF	SD_LDIRNEXT
0955+  1C93 D4          SD_TESTG	ST_RA	DIR_BUFF_PTR
0955+  1C94 23 8C       
0955+  1C96 FF BD       
0956+  1C98 0A          		LDN	RA		;EXIT not zero if there is a File at this entry
0957+  1C99 D5          		RETN
0958+  1C9A             ;-----------------------------------------------------------------------------------------------------
0959+  1C9A             ;Call this routine to advance to the next Directory Entry (loads next sector and restarts RB as needed)
0960+  1C9A             ;-----------------------------------------------------------------------------------------------------
0961+  1C9A D4          DIR_FETCH	LD_RA	DIR_BUFF_PTR
0961+  1C9B 23 5C       
0961+  1C9D FF BD       
0962+  1C9F 8A          SD_LDIRNEXT	GLO	RA		;Advance to next file entry
0963+  1CA0 FC 20       		ADI	20h		;add 20h to low byte
0964+  1CA2 AA          		PLO	RA
0965+  1CA3 3B 74       		BNF	SD_TEST		;If not rolling rolling over, go test entry
0966+  1CA5 9A          		GHI	RA		;If Rolling over, increment high byte, check for buffer end
0967+  1CA6 7C 00       		ADCI	0
0968+  1CA8 BA          		PHI	RA
0969+  1CA9 FF C2       		SMI	SD_RAM_BUFFER/256+2
0970+  1CAB 3A 74       		BNZ	SD_TEST		;Branch if NOT end of buffer
0971+  1CAD             					;
0972+  1CAD D4          		LDD	SECTORS_REMAIN	;SECTORS_REMAIN = ROOTDIR_SIZE (to count down directory entries searched)
0972+  1CAE 23 28       
0972+  1CB0 FF 65       
0973+  1CB2 FF 01       		SMI	1		;
0974+  1CB4 D4          		STD	SECTORS_REMAIN	;
0974+  1CB5 23 21       
0974+  1CB7 FF 65       
0975+  1CB9 3A BC       		BNZ	SD_LN_0		;Branch if there were more (consecutive) Sectors to read
0976+  1CBB D5          		RETN
0977+  1CBC             		
0978+  1CBC D4          SD_LN_0		LDI_RA	SEC_IDX		;Advance to next SECTOR
0978+  1CBD 22 F4       
0978+  1CBF FF 3A       
0979+  1CC1 D4          		CALL	INC32_RA
0979+  1CC2 24 C3       
0980+  1CC4 30 6C       		BR	SD_FETCH	;GET SECTOR AND RESTART RB
0981+  1CC6             
0982+  1CC6             
0983+  1CC6             
0984+  1CC6             ;-----------------------------------------------------------------		
0985+  1CC6             ;SEC_IDX = (CLUS-2) * SEC_PER_CLUS + DATASTART
0986+  1CC6             ;        = (CLUS-2) * SEC_PER_CLUS + DATASTART
0987+  1CC6             ;INIT SECTORS_REMAIN
0988+  1CC6 8A          CALC_SEC_IDX	GLO	RA	;PUSH RA
0989+  1CC7 73          		STXD
0990+  1CC8 9A          		GHI	RA
0991+  1CC9 73          		STXD
0992+  1CCA             
0993+  1CCA D4          		LDD	SEC_PER_CLUS	;Multiply by 8 bits
0993+  1CCB 23 28       
0993+  1CCD FF 1A       
0994+  1CCF D4          		LDI_RE	TEMP32		;Zero d word for math ahead
0994+  1CD0 23 0C       
0994+  1CD2 FF 4A       
0995+  1CD4 D4          		CLR32_RE
0995+  1CD5 24 25       
0996+  1CD7             
0997+  1CD7 D4          		LD_RA	CCLUS		;Use CCLUS when fat hopping.  
0997+  1CD8 23 5C       
0997+  1CDA FF 60       
0998+  1CDC             					;To read the file again, this value will need to be reloaded from Directory
0999+  1CDC 2A          		DEC	RA		;MATH FOR SS0C STARTS HERE
1000+  1CDD 2A          		DEC	RA
1001+  1CDE D4          		ST_RA	TEMP32		;RB = TEMP = (CLUS-2)
1001+  1CDF 23 8C       
1001+  1CE1 FF 4A       
1002+  1CE3             
1003+  1CE3 D4          		LDI_RA	SEC_IDX		;RA = SEC_IDX = 0000 0000
1003+  1CE4 22 F4       
1003+  1CE6 FF 3A       
1004+  1CE8 D4          		CLR32_RA
1004+  1CE9 24 1F       
1005+  1CEB             		
1006+  1CEB 32 F8       MM_LP1		BZ	MM_DONE
1007+  1CED F6          		SHR
1008+  1CEE 3B F3       		BNF	MM_NOADD
1009+  1CF0 D4          		CALL	ADD32RE		;Adds @RA = @RA + @RB
1009+  1CF1 24 82       
1010+  1CF3 D4          MM_NOADD	CALL	SHL32_RE	;Shift RB32 LEFT
1010+  1CF4 24 06       
1011+  1CF6 30 EB       		BR	MM_LP1
1012+  1CF8             MM_DONE
1013+  1CF8 D4          		LDI_RE	DATASTART
1013+  1CF9 23 0C       
1013+  1CFB FF 32       
1014+  1CFD D4          		CALL	ADD32RE		;SEC_IDX = (CLUS-2) * SEC_PER_CLUS + DATASTART
1014+  1CFE 24 82       
1015+  1D00             					;SEC_IDX has been calculated
1016+  1D00 D4          		LDD	SEC_PER_CLUS	;There are many consecutive sectors in a single cluster,
1016+  1D01 23 28       
1016+  1D03 FF 1A       
1017+  1D05 D4          		STD	SECTORS_REMAIN	;count this number down to determine when to
1017+  1D06 23 21       
1017+  1D08 FF 65       
1018+  1D0A             					;fetch next cluster (from fat hopping)
1019+  1D0A 12          		INC	R2		;POP RA
1020+  1D0B 42          		LDA	R2
1021+  1D0C BA          		PHI	RA
1022+  1D0D 02          		LDN	R2
1023+  1D0E AA          		PLO	RA
1024+  1D0F D5          		RETN
1025+  1D10             
1026+  1D10             
1027+  1D10             
1028+  1D10             
1029+  1D10             ;-----------------------------------------------------------------------------------------------------
1030+  1D10             
1031+  1D10 99          SS_CARD_IN	GHI	R9
1032+  1D11 F9 10       		ORI	10h
1033+  1D13 B9          		PHI	R9
1034+  1D14 D4          		PRINT
1034+  1D15 22 80       
1035+  1D17 436172642049		.text "Card Inserted\r\n\000"
1035+  1D1D 6E7365727465640D0A00
1036+  1D27 D4          		CALL	INIT_FAT
1036+  1D28 18 74       
1037+  1D2A D4          		CALL	LOAD_DIR
1037+  1D2B 1D 2E       
1038+  1D2D D5          		RETN
1039+  1D2E             		
1040+  1D2E             		
1041+  1D2E             		;NEWPAGE
1042+  1D2E             ;0x00 11 bytes	8.3 filename  FILE ATTRIBUTES
1043+  1D2E             ;0x0B  1 byte	Attributes, 1-Read only, 2-Hidden, 4-System, 8-Volume, 10-Directory, 20-Archive
1044+  1D2E             ;0x0C  1 byte	Reserved
1045+  1D2E             ;0x0D  5 bytes	Creation Date/Time in packed binary format
1046+  1D2E             ;0x12  2 bytes	Accessed Date
1047+  1D2E             ;0x14  2 bytes	High order of cluster for FAT32 only (always 00 00 in FAT16)
1048+  1D2E             ;0x16  4 bytes	Written Date/Time
1049+  1D2E             ;0x1A  2 bytes	Low order of Starting Cluster in FAT16
1050+  1D2E             ;0x1C  4 bytes	File Size (0 for directories)
1051+  1D2E             ;--------------------------------------------------------------------------------------
1052+  1D2E D4          LOAD_DIR	LDD	SD_PART_TYPE
1052+  1D2F 23 28       
1052+  1D31 FF 0F       
1053+  1D33 32 89       		BZ	LDR_FAT_ERROR
1054+  1D35             
1055+  1D35 F8 00       		LDI	0
1056+  1D37 D4          		STD	FILE_COUNT
1056+  1D38 23 21       
1056+  1D3A FF 64       
1057+  1D3C D4          		CALL	DIR_INIT	;Init counters and load first Directory Sector
1057+  1D3D 1B FA       
1058+  1D3F 32 85       		BZ	LRD_RET
1059+  1D41 D4          		LDI_RB	SD_DIR_LIST
1059+  1D42 22 FA       
1059+  1D44 C2 00       
1060+  1D46             		
1061+  1D46 D4          LRD_NEXT	CALL	DIR_FETCH
1061+  1D47 1C 9A       
1062+  1D49 32 85       		BZ	LRD_RET
1063+  1D4B             
1064+  1D4B 9A          LRD_PROC	GHI	RA		;Test if Entry is File or Directory
1065+  1D4C BE          		PHI	RE
1066+  1D4D 8A          		GLO	RA
1067+  1D4E FC 0B       		ADI	11		;offest to attribute byte
1068+  1D50 AE          		PLO	RE
1069+  1D51 0E          		LDN	RE		;Ignore SYSTEM
1070+  1D52 FA 02       		ANI	2
1071+  1D54 3A 46       		BNZ	LRD_NEXT
1072+  1D56 0E          		LDN	RE
1073+  1D57 FA 10       		ANI	10h		;Test 10h = Directory
1074+  1D59 32 68       		BZ	LRD_FILE
1075+  1D5B             		
1076+  1D5B F8 28       		LDI	DIRFLAG		;Append Directory with (
1077+  1D5D 5B          		STR	RB
1078+  1D5E 1B          		INC	RB
1079+  1D5F 8A          		GLO	RA
1080+  1D60 AE          		PLO	RE
1081+  1D61 F8 0B       		LDI	11
1082+  1D63 D4          		CALL	COPY_RAM_RE2RB
1082+  1D64 23 53       
1083+  1D66 30 73       		BR	LRD_COUNT
1084+  1D68             
1085+  1D68 8A          LRD_FILE	GLO	RA
1086+  1D69 AE          		PLO	RE
1087+  1D6A F8 0B       		LDI	11
1088+  1D6C D4          		CALL	COPY_RAM_RE2RB
1088+  1D6D 23 53       
1089+  1D6F F8 20       		LDI	' '
1090+  1D71 5B          		STR	RB
1091+  1D72 1B          		INC	RB
1092+  1D73             
1093+  1D73 D4          LRD_COUNT	LDD	FILE_COUNT
1093+  1D74 23 28       
1093+  1D76 FF 64       
1094+  1D78 FC 06       		ADI	6	;Count files
1095+  1D7A 32 85       		BZ	LRD_RET	;MAX 250 files (needed for PIXIE listing)
1096+  1D7C FF 05       		SMI	5
1097+  1D7E D4          		STD	FILE_COUNT
1097+  1D7F 23 21       
1097+  1D81 FF 64       
1098+  1D83 30 46       		BR	LRD_NEXT
1099+  1D85             
1100+  1D85 D4          LRD_RET		CALL	SORT_DIR
1100+  1D86 1D AD       
1101+  1D88 D5          		RETN
1102+  1D89             
1103+  1D89 D4          LDR_FAT_ERROR	PRINT
1103+  1D8A 22 80       
1104+  1D8C 0D0A46415420		.text "\r\nFAT ERROR\000"
1104+  1D92 4552524F5200
1105+  1D98 D5          		RETN
1106+  1D99             
1107+  1D99             
1108+  1D99             
1109+  1D99             ;---------------------------------------------------------------
1110+  1D99             ;Compares 11 bytes, Returns DF=1 if not same
1111+  1D99             ;Input File1 = @RA RA not advanced
1112+  1D99             ;Input File2 = @RB RB is changed
1113+  1D99             ;Output DF=1 if NOT same.  RA unchanged, RB CHANGED
1114+  1D99             ;
1115+  1D99 F8 0B       COMPARE_FNAME	LDI	11
1116+  1D9B AF          		PLO	RF
1117+  1D9C 8A          		GLO	RA
1118+  1D9D BF          		PHI	RF
1119+  1D9E EB          		SEX	RB
1120+  1D9F 4A          CF_LOOP		LDA	RA
1121+  1DA0 F3          		XOR
1122+  1DA1 3A A8       		BNZ	CF_RET	;NOT SAME Exit NOT Zero
1123+  1DA3 1B          		INC	RB
1124+  1DA4 2F          		DEC	RF
1125+  1DA5 8F          		GLO	RF
1126+  1DA6 3A 9F       		BNZ	CF_LOOP
1127+  1DA8             		
1128+  1DA8 FC FF       CF_RET		ADI	0FFh	;DF Set if not zero
1129+  1DAA 9F          		GHI	RF
1130+  1DAB AA          		PLO	RA	;Restore RA (Directory buffer)
1131+  1DAC D5          		RETN		;DF Set = NO Match
1132+  1DAD             
1133+  1DAD             
1134+  1DAD             
1135+  1DAD             ;----------------------------------------------------------------
1136+  1DAD D4          SORT_DIR	LDD	FILE_COUNT
1136+  1DAE 23 28       
1136+  1DB0 FF 64       
1137+  1DB2 AC          		PLO	RC
1138+  1DB3 FF 02       		SMI	2
1139+  1DB5 3B FE       		BM	SD_RET		
1140+  1DB7 3A C3       		BNZ	SD_GO
1141+  1DB9 D4          		LDI_RA	SD_DIR_LIST
1141+  1DBA 22 F4       
1141+  1DBC C2 00       
1142+  1DBE D4          		CALL	CMP_SWAP
1142+  1DBF 1D FF       
1143+  1DC1 30 FE       		BR	SD_RET
1144+  1DC3             		
1145+  1DC3 F8 00       SD_GO		LDI	0
1146+  1DC5 AD          		PLO	RD
1147+  1DC6 D4          		LDI_RA	SD_DIR_LIST
1147+  1DC7 22 F4       
1147+  1DC9 C2 00       
1148+  1DCB 2C          		DEC	RC
1149+  1DCC D4          SD_LP		CALL	CMP_SWAP
1149+  1DCD 1D FF       
1150+  1DCF 3B D4       		BNF	SD_GD
1151+  1DD1 F8 01       		LDI	1
1152+  1DD3 AD          		PLO	RD
1153+  1DD4 2C          SD_GD		DEC	RC
1154+  1DD5 8C          		GLO	RC
1155+  1DD6 3A CC       		BNZ	SD_LP
1156+  1DD8             		
1157+  1DD8 D4          		LDD	FILE_COUNT
1157+  1DD9 23 28       
1157+  1DDB FF 64       
1158+  1DDD AC          		PLO	RC
1159+  1DDE 2C          		DEC	RC
1160+  1DDF 2C          		DEC	RC
1161+  1DE0 8A          SD_LP2		GLO	RA	;REVERSE BUBBLE SORT
1162+  1DE1 FF 18       		SMI	24
1163+  1DE3 AA          		PLO	RA
1164+  1DE4 9A          		GHI	RA
1165+  1DE5 7F 00       		SMBI	0
1166+  1DE7 BA          		PHI	RA
1167+  1DE8 D4          		CALL	CMP_SWAP
1167+  1DE9 1D FF       
1168+  1DEB 3B F0       		BNF	SD_GD2
1169+  1DED F8 01       		LDI	1
1170+  1DEF AD          		PLO	RD
1171+  1DF0 2C          SD_GD2		DEC	RC
1172+  1DF1 8C          		GLO	RC
1173+  1DF2 3A E0       		BNZ	SD_LP2
1174+  1DF4 F8 2E       		LDI	'.'
1175+  1DF6 D4          		PUT_CHAR
1175+  1DF7 FF 7A       
1176+  1DF9 3F FE       		BN4	SD_RET	;If CARD is removed...
1177+  1DFB 8D          		GLO	RD
1178+  1DFC 3A AD       		BNZ	SORT_DIR
1179+  1DFE D5          SD_RET		RETN
1180+  1DFF             		
1181+  1DFF             
1182+  1DFF             
1183+  1DFF             
1184+  1DFF             
1185+  1DFF             
1186+  1DFF F8 0C       CMP_SWAP	LDI	12
1187+  1E01 AF          		PLO	RF
1188+  1E02 8A          		GLO	RA
1189+  1E03 FC 0C       		ADI	12
1190+  1E05 AE          		PLO	RE
1191+  1E06 AB          		PLO	RB	;Next "RA"
1192+  1E07 9A          		GHI	RA
1193+  1E08 7C 00       		ADCI	0
1194+  1E0A BE          		PHI	RE
1195+  1E0B BB          		PHI	RB	;Next "RA"
1196+  1E0C EE          		SEX	RE
1197+  1E0D             		
1198+  1E0D 4A          CMPS_LP		LDA	RA
1199+  1E0E F7          		SM
1200+  1E0F 32 18       		BZ	CMPS_1	;IF zero, chars are same, must go to next char for difference
1201+  1E11 33 1E       		BDF	CMPS_DOSWAP
1202+  1E13 8B          		GLO	RB
1203+  1E14 AA          		PLO	RA
1204+  1E15 9B          		GHI	RB
1205+  1E16 BA          		PHI	RA
1206+  1E17 D5          		RETN
1207+  1E18             
1208+  1E18 1E          CMPS_1		INC	RE
1209+  1E19 2F          		DEC	RF
1210+  1E1A 8F          		GLO	RF
1211+  1E1B 3A 0D       		BNZ	CMPS_LP
1212+  1E1D D5          		RETN		;SHOULD NEVER GET HERE... IE 2 FILES OF SAME NAME???
1213+  1E1E             		
1214+  1E1E             		
1215+  1E1E 2A          CMPS_DOSWAP	DEC	RA	;REVERSE THE LDA
1216+  1E1F 0A          CMPS_LP2	LDN	RA	;SWAP THE BYTES
1217+  1E20 52          		STR	R2
1218+  1E21 0E          		LDN	RE
1219+  1E22 5A          		STR	RA
1220+  1E23 02          		LDN	R2
1221+  1E24 5E          		STR	RE
1222+  1E25 1A          		INC	RA
1223+  1E26 1E          		INC	RE
1224+  1E27 2F          		DEC	RF
1225+  1E28 8F          		GLO	RF
1226+  1E29 3A 1F       		BNZ	CMPS_LP2
1227+  1E2B D5          		RETN		;RA = NEXT	
1228+  1E2C             		
1229+  1E2C             		
1230+  1E2C             
1231+  1E2C             		
1232+  1E2C             
1233+  1E2C AF          COPYFN		PLO	RF
1234+  1E2D 4A          COPYFN_LP	LDA	RA
1235+  1E2E D4          		CALL	ISDOT
1235+  1E2F 1E 40       
1236+  1E31 33 3F       		BDF	COPYFN_RET
1237+  1E33 32 3F       		BZ	COPYFN_RET
1238+  1E35 5B          		STR	RB
1239+  1E36 1B          		INC	RB
1240+  1E37 2F          		DEC	RF
1241+  1E38 8F          		GLO	RF
1242+  1E39 3A 2D       		BNZ	COPYFN_LP
1243+  1E3B 4A          		LDA	RA
1244+  1E3C D4          		CALL	ISDOT
1244+  1E3D 1E 40       
1245+  1E3F D5          COPYFN_RET	RETN
1246+  1E40             	
1247+  1E40             		;Input D
1248+  1E40             		;Output DF=1 if D='.'
1249+  1E40             		;Output D=0 if D=0 or D=' '
1250+  1E40             		;Output D=UCASE(D)
1251+  1E40 D4          ISDOT		CALL	TOUPPER
1251+  1E41 1F C3       
1252+  1E43 32 4F       		BZ	ISDOT_RET
1253+  1E45 FF 20       		SMI	' '
1254+  1E47 32 4F       		BZ	ISDOT_RET
1255+  1E49 FF 0E       		SMI	'.'-' '
1256+  1E4B 32 51       		BZ	ISDOT_RET_DF
1257+  1E4D FC 2E       		ADI	'.'
1258+  1E4F FC 00       ISDOT_RET	ADI	0		;CLEAR DF
1259+  1E51 D5          ISDOT_RET_DF	RETN
1260+  1E52             
1261+  1E52             
1262+  1E52             
1263+  1E52 AF          BLANK		PLO	RF
1264+  1E53 F8 20       BLANK_LP	LDI	' '
1265+  1E55 5B          		STR	RB
1266+  1E56 1B          		INC	RB
1267+  1E57 2F          		DEC	RF
1268+  1E58 8F          		GLO	RF
1269+  1E59 3A 53       		BNZ	BLANK_LP
1270+  1E5B D5          		RETN
1271+  1E5C             
1272+  1E5C             ;-----------------------------------------------------------------------------------------------------
1273+  1E5C D4          SD_CLEAR_ARG	LDI_RA SD_PARAM ;4 BYTE PARAMETERS
1273+  1E5D 22 F4       
1273+  1E5F FF 09       
1274+  1E61 D4          		CLR32_RA
1274+  1E62 24 1F       
1275+  1E64 D5          		RETN
2862   1E65             		#INCLUDE "AEVIP-UT.ASM"	;UTILITY ROUTINES
0001+  1E65             ;**********************************************************************
0002+  1E65             ;**********************************************************************
0003+  1E65             ;**********************************************************************
0004+  1E65             ;**********************************************************************
0005+  1E65             ;**********************************************************************
0006+  1E65             ;**********************************************************************
0007+  1E65             ;**********************************************************************
0008+  1E65             ;**********************************************************************
0009+  1E65             ;**********************************************************************
0010+  1E65             ;**********************************************************************
0011+  1E65             ;**********************************************************************
0012+  1E65             ;**********************************************************************
0013+  1E65             ;**********************************************************************
0014+  1E65             ;**********************************************************************
0015+  1E65             
0016+  1E65             
0017+  1F00             		NEWPAGE		
0018+  1F00             
0019+  1F00             ;**********************************************************************
0020+  1F00             ; Advance RA to next non-blank character
0021+  1F00             ;----------------------------------------------------------------------
0022+  1F00 1A          FNDNEXT_LP	INC	RA
0023+  1F01 0A          FINDNEXT	LDN	RA
0024+  1F02 32 09       		BZ	FNDNEXT_END	;Jump if NUL (end of string)
0025+  1F04 FB 20       		XRI	' '
0026+  1F06 32 00       		BZ	FNDNEXT_LP	;Loop if char = Space
0027+  1F08 0A          		LDN	RA
0028+  1F09 D5          FNDNEXT_END	RETN
0029+  1F0A             
0030+  1F0A 1A          FNDSPACE_LP	INC	RA
0031+  1F0B 0A          FINDSPACE	LDN	RA
0032+  1F0C 32 13       		BZ	FNDSPACE_END	;Jump if NUL (end of string)
0033+  1F0E FB 20       		XRI	' '
0034+  1F10 3A 0A       		BNZ	FNDSPACE_LP	;Loop if char != Space
0035+  1F12 0A          		LDN	RA
0036+  1F13 D5          FNDSPACE_END	RETN
0037+  1F14             
0038+  1F14             
0039+  1F14 D4          WORDEND		CALL	FINDSPACE
0039+  1F15 1F 0B       
0040+  1F17 D4          		CALL	FINDNEXT
0040+  1F18 1F 01       
0041+  1F1A             		;LDN	RA
0042+  1F1A 32 25       		BZ	WRDEND_END
0043+  1F1C 1A          WRDEND_LP	INC	RA
0044+  1F1D 0A          		LDN	RA
0045+  1F1E 32 24       		BZ	WRDENDZ
0046+  1F20 FB 20       		XRI	' '
0047+  1F22 3A 1C       		BNZ	WRDEND_LP	
0048+  1F24 2A          WRDENDZ	DEC	RA
0049+  1F25             WRDEND_END
0050+  1F25             
0051+  1F25 0A          WORDBEGIN	LDN	RA
0052+  1F26 32 2F       		BZ	WRDBEGIN_END
0053+  1F28 FB 20       		XRI	' '
0054+  1F2A 3A 2F       		BNZ	WRDBEGIN_END
0055+  1F2C 2A          		DEC	RA
0056+  1F2D 30 25       		BR	WORDBEGIN
0057+  1F2F D5          WRDBEGIN_END	RETN
0058+  1F30             		
0059+  1F30             
0060+  1F30             	;NEWPAGE
0061+  1F30             
0062+  1F30             ;**********************************************************************
0063+  1F30             ;----------------------------------------------------------------------
0064+  1F30 D4          INPUTBYTE	CALL	INPUTHEX
0064+  1F31 1F 41       
0065+  1F33 3B 40       		BNF 	INPUTBRET	;jump if control char entered
0066+  1F35 FE          		SHL
0067+  1F36 FE          		SHL
0068+  1F37 FE          		SHL
0069+  1F38 FE          		SHL
0070+  1F39 52          		STR	R2	;save to temp X location m(R(x))
0071+  1F3A D4          		CALL	INPUTHEX
0071+  1F3B 1F 41       
0072+  1F3D 3B 40       		BNF	INPUTBRET	;jump if control char entered
0073+  1F3F F1          		OR		;or in 1st digit
0074+  1F40 D5          INPUTBRET	RETN
0075+  1F41             
0076+  1F41             ;**********************************************************************
0077+  1F41             ;		get hex digit
0078+  1F41             ;----------------------------------------------------------------------
0079+  1F41 D4          INPUTHEX:	RX_CHAR		;get rs232 byte
0079+  1F42 21 00       
0080+  1F44 D4          		CALL	ISHEX
0080+  1F45 1F A2       
0081+  1F47 3B 50       		BNF	INPUTHEX_CTRL
0082+  1F49 D4          		PUT_CHAR
0082+  1F4A FF 7A       
0083+  1F4C 8E          		GLO 	RE
0084+  1F4D FF 00       		SMI	0	;SET DF
0085+  1F4F D5          		RETN
0086+  1F50             
0087+  1F50 D4          INPUTHEX_CTRL	PUT_CHAR
0087+  1F51 FF 7A       
0088+  1F53 FC 00       		ADI	0	;CLEAR DF
0089+  1F55 D5          		RETN
0090+  1F56             
0091+  1F56             
0092+  1F56             ;**********************************************************************
0093+  1F56             ;----------------------------------------------------------------------
0094+  1F56 22          USCORE		DEC	R2
0095+  1F57 52          		STR	R2
0096+  1F58 D4          USLOOP1		PRINT
0096+  1F59 22 80       
0097+  1F5B 5F 00       		.TEXT "_\000"
0098+  1F5D FF 01       		SMI	1
0099+  1F5F 3A 58       		BNZ	USLOOP1
0100+  1F61 42          		LDA	R2
0101+  1F62 D4          USLOOP2		PRINT
0101+  1F63 22 80       
0102+  1F65 1B 5B 44 00 		.TEXT "\033[D\000"
0103+  1F69 FF 01       		SMI	1
0104+  1F6B 3A 62       		BNZ	USLOOP2
0105+  1F6D D5          		RETN
0106+  1F6E             
0107+  1F6E             ;**********************************************************************
0108+  1F6E             ;----------------------------------------------------------------------
0109+  1F6E D4          SPACES		PRINT
0109+  1F6F 22 80       
0110+  1F71 20 00       		.TEXT " \000"
0111+  1F73 FF 01       		SMI 1
0112+  1F75 3A 6E       		BNZ SPACES
0113+  1F77 D5          		RETN
0114+  1F78             
0115+  1F78             ;**********************************************************************
0116+  1F78             ;----------------------------------------------------------------------
0117+  1F78 52          HEXOUT		STR R2		;save to temp X location m(R(x))
0118+  1F79 64          		OUT 4
0119+  1F7A 22          		DEC R2
0120+  1F7B D5          		RETN
0121+  1F7C             
0122+  1F7C             ;**********************************************************************
0123+  1F7C             ;----------------------------------------------------------------------
0124+  1F7C 6C          HEXINP		INP 4
0125+  1F7D D4          		CALL HEXOUT
0125+  1F7E 1F 78       
0126+  1F80 D5          		RETN
0127+  1F81             
0128+  1F81             
0129+  1F81             ;**********************************************************************
0130+  1F81             ;ASCII TO HEX, DF set = VALID
0131+  1F81             ;**********************************************************************
0132+  1F81 FF 30       TOHEX		SMI	'0'	;Subtract '0'
0133+  1F83 3B 9B       		BNF	THBAD	;Below '0'
0134+  1F85 FF 0A       		SMI	'9'-'0'+1 ;Test for '0' to '9'
0135+  1F87 3B 9C       		BNF	THNUMB
0136+  1F89 FF 07       		SMI	'A'-'9'-1
0137+  1F8B 3B 9B       		BNF	THBAD	;Between 9 and A
0138+  1F8D FF 06       		SMI	'F'-'A'+1
0139+  1F8F 3B 9F       		BNF	THALFA
0140+  1F91 FF 1A       		SMI	'a'-'G'
0141+  1F93 3B 9B       		BNF	THBAD
0142+  1F95 FF 06       		SMI	'f'-'a'+1
0143+  1F97 3B 9F       		BNF	THALFA
0144+  1F99 FC 00       		ADI	0
0145+  1F9B             
0146+  1F9B D5          THBAD		RETN		;DF clear
0147+  1F9C             
0148+  1F9C FC 0A       THNUMB		ADI	0Ah	;Sets DF
0149+  1F9E D5          		RETN
0150+  1F9F             
0151+  1F9F FC 10       THALFA		ADI	'F'-'A'+1+10 ;Sets DF
0152+  1FA1 D5          		RETN
0153+  1FA2             
0154+  1FA2             
0155+  1FA2             		;NEWPAGE
0156+  1FA2             ;**********************************************************************
0157+  1FA2             ;Is Hex?
0158+  1FA2             ;D is byte to evaluate (n)
0159+  1FA2             ;DF CLEAR if NOT hex
0160+  1FA2             ;RE.1 is same byte (from rx_char), not affected for displaying ascii char
0161+  1FA2             ;RE.0 is HEX Value
0162+  1FA2             ;Returns with D as orignal ascii char (or bell if bad hex char)
0163+  1FA2             ;----------------------------------------------------------------------
0164+  1FA2 D4          ISHEX:		CALL	TOUPPER
0164+  1FA3 1F C3       
0165+  1FA5 BF          		PHI	RF
0166+  1FA6 FF 30       		SMI	30H	;d=n-48
0167+  1FA8 3B B6       		BM	BADHEX	;jump if < 30h
0168+  1FAA FF 0A       		SMI	10	;d=n-58
0169+  1FAC 3B BE       		BM	GOODNUMB ;jump if n is between '0' and '9'
0170+  1FAE FF 07       		SMI	7	;d=n-65
0171+  1FB0 3B B6       		BM	BADHEX	;jump if n is between 3Ah and 40h
0172+  1FB2 FF 06       		SMI	6	;d=n-71
0173+  1FB4 3B BA       		BM	GOODALPHA ;jump if n is between 'A' and 'F'
0174+  1FB6             				
0175+  1FB6 F8 0E       BADHEX		LDI 7<<1	;return sound bell (& DF clear)
0176+  1FB8 F6          		SHR
0177+  1FB9 D5          		RETN
0178+  1FBA             
0179+  1FBA FC 10       GOODALPHA	ADI 16		;Set DF
0180+  1FBC 30 C0       		BR  GOOD
0181+  1FBE FC 0A       GOODNUMB	ADI 10		;Set DF
0182+  1FC0 AE          GOOD:		PLO RE		;save hex digit
0183+  1FC1 9F          		GHI RF		;return orignal char
0184+  1FC2 D5          		RETN
0185+  1FC3             
0186+  1FC3             
0187+  1FC3             ;**********************************************************************
0188+  1FC3             ;TO UPPERCASE,  chars 'a' to 'z' are changed to 'A' to 'Z'
0189+  1FC3             ;Input: D
0190+  1FC3             ;Output: D
0191+  1FC3             ;----------------------------------------------------------------------
0192+  1FC3 FF 61       TOUPPER		SMI	'a'
0193+  1FC5 3B CD       		BM	TUOK
0194+  1FC7 FF 1A       		SMI	'z'-'a'+1
0195+  1FC9 3B D0       		BM	TUCHANGE
0196+  1FCB FC 1A       		ADI	'z'-'a'+1
0197+  1FCD FC 61       TUOK		ADI	'a'
0198+  1FCF D5          		RETN
0199+  1FD0 FC 5B       TUCHANGE	ADI	'z'-'a'+1+'A'
0200+  1FD2 D5          		RETN
0201+  1FD3             
0202+  1FD3             
0203+  1FD3             
0204+  1FD3 99          SELECT_SERIAL	GHI	R9
0205+  1FD4 F6          		SHR
0206+  1FD5 33 E3       		BDF	USE_TXCHARIDL
0207+  1FD7 D4          		CALL	STORE_STRING
0207+  1FD8 23 12       
0208+  1FDA FF 7A       		  .DW	PUT_CHAR_SUB
0209+  1FDC 04          		  .DB	4		;4 BYTES
0210+  1FDD D4          		  SEP R4		;CALL TXCHAR
0211+  1FDE 22 01       		  .DW	 TXCHAR
0212+  1FE0 D5          		  RETN			;RETN
0213+  1FE1 9F          		GHI	RF		;RESTORE D
0214+  1FE2 D5          		RETN
0215+  1FE3 D4          USE_TXCHARIDL	CALL	STORE_STRING
0215+  1FE4 23 12       
0216+  1FE6 FF 7A       		  .DW	PUT_CHAR_SUB
0217+  1FE8 04          		  .DB	4		;4 BYTES
0218+  1FE9 D4          		  SEP R4		;CALL TXCHAR
0219+  1FEA 22 00       		  .DW	 TXCHARIDL
0220+  1FEC D5          		  RETN			;RETN
0221+  1FED 9F          		GHI	RF		;RESTORE D
0222+  1FEE D5          		RETN
0223+  1FEF             
0224+  1FEF 99          SELECT_BOTH	GHI	R9	;Get PIXIE Status   Trying to Select BOTH without PIXIE cause SERIAL ONLY
0225+  1FF0 F6          		SHR		;into DF PIXIE ENABLE
0226+  1FF1 3B D3       		BNF	SELECT_SERIAL	;
0227+  1FF3             
0228+  1FF3 D4          		CALL	STORE_STRING
0228+  1FF4 23 12       
0229+  1FF6 FF 7A       		  .DW	PUT_CHAR_SUB
0230+  1FF8 07          		  .DB	7		;7 BYTES
0231+  1FF9 D4          		  SEP R4		;CALL TXCHAR
0232+  1FFA 22 00       		  .DW	 TXCHARIDL
0233+  1FFC D4          		  SEP R4		;CALL TXCHAR
0234+  1FFD 29 01       		  .DW	 PRINTC		;Send to PIXIE
0235+  1FFF D5          		  RETN			;RETN
0236+  2000 9F          		GHI	RF		;RESTORE D
0237+  2001 D5          		RETN
0238+  2002             
0239+  2002 D4          SELECT_PIXIE	CALL	STORE_STRING
0239+  2003 23 12       
0240+  2005 FF 7A       		  .DW	PUT_CHAR_SUB
0241+  2007 04          		  .DB	4		;4 BYTES
0242+  2008 D4          		  SEP R4		;CALL TXCHAR
0243+  2009 29 01       		  .DW	 PRINTC		;Send to PIXIE
0244+  200B D5          		  RETN			;RETN
0245+  200C 9F          		GHI	RF		;RESTORE D
0246+  200D D5          		RETN
0247+  200E             
0248+  200E             ;If PIXIE not enabled, Print to RS232 only
0249+  200E             ;If PIXIE is enabled, Print to RS232 if Enabled, then Print to PIXIE
0250+  200E D4          DEFAULT_SERIAL	CALL	STORE_STRING
0250+  200F 23 12       
0251+  2011 FF 7E       		  .DW	SELECT_DEFAULT
0252+  2013 04          		  .DB	4		;4 BYTES
0253+  2014 D4          		  SEP R4		;CALL SELECT_SERIAL
0254+  2015 1F D3       		  .DW	 SELECT_SERIAL
0255+  2017 D5          		  RETN			;RETN
0256+  2018 9F          		GHI	RF		;RESTORE D
0257+  2019 D5          		RETN
0258+  201A             
0259+  201A D4          DEFAULT_PIXIE	CALL	STORE_STRING
0259+  201B 23 12       
0260+  201D FF 7E       		  .DW	SELECT_DEFAULT	;Save routines
0261+  201F 04          		  .DB	4		;4 BYTES
0262+  2020 D4          		  SEP R4		;CALL SELECT_PIXIE
0263+  2021 20 02       		  .DW	 SELECT_PIXIE
0264+  2023 D5          		  RETN			;RETN
0265+  2024 9F          		GHI	RF		;RESTORE D
0266+  2025 D5          		RETN
0267+  2026             
0268+  2026 D4          SELECT_RD	CALL	STORE_STRING
0268+  2027 23 12       
0269+  2029 FF 7A       		  .DW	PUT_CHAR_SUB
0270+  202B 03          		  .DB	3		;3 BYTES
0271+  202C 5D          		  STR	RD
0272+  202D 1D          		  INC	RD
0273+  202E D5          		  RETN			;RETN
0274+  202F 9F          		GHI	RF		;RESTORE D
0275+  2030 D5          		RETN
0276+  2031             
0277+  2031 D4          SELECT_NONE	CALL	STORE_STRING
0277+  2032 23 12       
0278+  2034 FF 7A       		  .DW	PUT_CHAR_SUB
0279+  2036 01          		  .DB	1		;1 BYTE
0280+  2037 D5          		  RETN			;RETN
0281+  2038 9F          		GHI	RF		;RESTORE D
0282+  2039 D5          		RETN
0283+  203A             
0284+  203A             
0285+  2100             	NEWPAGE
0286+  2100             ;**********************************************************************
0287+  2100             ;rx_char
0288+  2100             ;Receive Byte via EF2 connected to RS232 receiver
0289+  2100             ;Recieves 8 bits
0290+  2100             ;call with R3 being the previous PC
0291+  2100             ;Returns with Byte received in D and re.1
0292+  2100             ;Destroys re.0
0293+  2100             ;Starts original VIP ROM if EF4 input switch pressed
0294+  2100             ;----------------------------------------------------------------------
0295+  2100 F8 FF       RXCHAR_SUB:	LDI	0FFh
0296+  2102 AE          		PLO	RE
0297+  2103 F8 3E       		LDI	RXC_SERIAL%256
0298+  2105 AF          		PLO	RF		
0299+  2106 99          		GHI	R9
0300+  2107 F6          		SHR
0301+  2108 3B 3E       		BNF	RXC_SERIAL	;NO VIDEO = NO KEYPAD SUPPORT
0302+  210A FA 20       		ANI	40h>>1
0303+  210C 32 25       		BZ	RXVIP		;RX With VIP keypad
0304+  210E             		
0305+  210E E3          RXELF		SEX	R3
0306+  210F 65          		OUT	5
0307+  2110 20          		.DB	20h	;011 = ELF KEYPAD SENSING		
0308+  2111 35 66       		   B2	RXGO	;If down, wait here while looking for start bit
0309+  2113 3F 0E       		BN4	RXELF	;LOOP while key is down
0310+  2115             
0311+  2115 F8 18       		LDI	RXELFGET%256
0312+  2117 AF          		PLO	RF
0313+  2118             
0314+  2118 E3          RXELFGET	SEX	R3
0315+  2119 65          		OUT	5
0316+  211A 20          		.DB	20h	;011 = ELF KEYPAD SENSING
0317+  211B 35 66       		   B2	RXGO	;wait for start bit. Inbetween waiting for a start bit,
0318+  211D 3F 89       		BN4  	RXELFKEY ;Branch if KEYPAD pressed
0319+  211F 35 66       		   B2	RXGO
0320+  2121             
0321+  2121 65          		OUT	5
0322+  2122 21          		.DB	21h	;111 = Enable Card Detect sensing
0323+  2123 30 3E       		BR	RXC_SERIAL
0324+  2125             
0325+  2125 35 66       RXVIP		   B2	RXGO	;If down, wait here while looking for start bit
0326+  2127 36 25       		B3	RXVIP	;Check if key up/down
0327+  2129             
0328+  2129 F8 2C       		LDI	RXVIPSCAN%256
0329+  212B AF          		PLO	RF
0330+  212C             
0331+  212C 35 66       RXVIPSCAN:	   B2	RXGO	;wait for start bit. Inbetween waiting for a start bit,
0332+  212E 02          		LDN	R2	;Check for Keypad Input or Card Eject/Insert
0333+  212F FC 01       		ADI	1	;Increment byte on stack to strobe VIP Keyboard
0334+  2131 35 66       		   B2	RXGO	;wait for start bit. Inbetween waiting for a start bit,
0335+  2133 52          		STR	R2
0336+  2134 35 66       		   B2	RXGO
0337+  2136 62          		OUT	2	;Strobe next VIP key
0338+  2137 22          		DEC	R2	
0339+  2138 35 66       		   B2	RXGO
0340+  213A 36 8D       		B3  	RXVIPVKEY ;Branch if KEYPAD pressed
0341+  213C 35 66       		   B2	RXGO
0342+  213E             
0343+  213E 99          RXC_SERIAL	GHI	R9
0344+  213F FA 02       		ANI	2	;	bit1	Cursor
0345+  2141 35 66       		   B2	RXGO	;wait for start bit. Inbetween waiting for a start bit,
0346+  2143 32 4B       		BZ	RXVS_NOCURSOR
0347+  2145 2E          		DEC	RE
0348+  2146 35 66       		   B2	RXGO	;wait for start bit. Inbetween waiting for a start bit,
0349+  2148 8E          		GLO	RE
0350+  2149 32 9F       		BZ	RXVS_CURSOR
0351+  214B             RXVS_NOCURSOR
0352+  214B 99          		GHI	R9
0353+  214C 35 66       		   B2	RXGO		
0354+  214E FA 10       		ANI	10h	;10h but STATUS was shifted LEFT into DF
0355+  2150 35 66       		   B2	RXGO
0356+  2152 32 5E       		BZ	RXCN_NOCD	;If STATUS = NO-CARD then check for CARD IN condition
0357+  2154 35 66       		   B2	RXGO
0358+  2156 3F 91       		BN4	RXCCARDOUT  ;Else, look for CARD OUT condition
0359+  2158 35 66       		   B2	RXGO
0360+  215A 8F          		GLO	RF
0361+  215B 35 66       		   B2	RXGO
0362+  215D A3          		PLO	R3	;BRANCH TO THIS ROUTINE
0363+  215E             
0364+  215E 37 98       RXCN_NOCD	B4	RXCCARDIN
0365+  2160 35 66       		   B2	RXGO
0366+  2162 8F          		GLO	RF
0367+  2163 35 66       		   B2	RXGO
0368+  2165 A3          		PLO	R3	;BRANCH TO THIS ROUTINE
0369+  2166             
0370+  2166             	;each instr takes 9us, we need 104us = 11.5
0371+  2166             				;delay 1/2 bit time to center samples
0372+  2166 F8 08       RXGO		LDI	8	;start bit +7 bits from loop, last bit on returning
0373+  2168 AE          		PLO	RE
0374+  2169 F8 01       		LDI	1
0375+  216B BE          		PHI	RE
0376+  216C F8 00       		LDI 0		;
0377+  216E             RXCLOOP:
0378+  216E C4          		NOP		;10.5
0379+  216F 35 75       		B2 $+6		;11.5 sample rx input bit
0380+  2171 F9 80       		ORI 80H		;1
0381+  2173 30 77       		BR $+4		;2
0382+  2175 BE          		PHI RE		;1
0383+  2176 BE          		PHI RE		;2
0384+  2177 F6          		SHR		;3
0385+  2178 BE          		PHI RE		;4
0386+  2179 2E          		DEC RE		;5
0387+  217A 8E          		GLO RE		;6
0388+  217B 32 80       		BZ RXCRET	;7
0389+  217D 9E          		GHI RE		;8
0390+  217E 30 6E       		BR  RXCLOOP	;9
0391+  2180 9E          RXCRET:		GHI RE		;8
0392+  2181 9E          		GHI RE		;9
0393+  2182 C4          		NOP		;10.5
0394+  2183 35 87       		B2 RXCEXIT	;11.5 sample last rx input bit
0395+  2185 F9 80       		ORI 80H		;1
0396+  2187 BE          RXCEXIT		PHI RE
0397+  2188 D5          		RETN
0398+  2189             
0399+  2189 6C          RXELFKEY	INP	4
0400+  218A FA 0F       		ANI	0Fh
0401+  218C D5          		RETN
0402+  218D             
0403+  218D 02          RXVIPVKEY	LDN	R2
0404+  218E FA 0F       		ANI	0Fh
0405+  2190 D5          		RETN
0406+  2191             
0407+  2191 99          RXCCARDOUT 	GHI	R9
0408+  2192 FA EF       		ANI	0EFh
0409+  2194 B9          		PHI	R9
0410+  2195 F8 15       		LDI	15h	;SD_CARD_OUT
0411+  2197 D5          	   	RETN
0412+  2198             
0413+  2198 99          RXCCARDIN  	GHI	R9
0414+  2199 F9 10       		ORI	10h
0415+  219B B9          		PHI	R9
0416+  219C F8 19       		LDI	19h	;SD_CARD_IN
0417+  219E D5          RXVS_RET   	RETN
0418+  219F             
0419+  219F             
0420+  219F E2          RXVS_CURSOR	SEX	R2
0421+  21A0 F8 E0       		LDI	0E0h	;Set Bit pattern for flash
0422+  21A2 BF          		PHI	RF
0423+  21A3 F8 00       		LDI	0
0424+  21A5 AF          		PLO	RF
0425+  21A6             
0426+  21A6 F8 FF       		LDI	PIXIE_COL/256
0427+  21A8 BE          		PHI	RE
0428+  21A9 F8 A8       		LDI	PIXIE_COL%256
0429+  21AB AE          		PLO	RE
0430+  21AC 0E          		LDN	RE	;Get Column 0 - 63
0431+  21AD 22          		DEC	R2
0432+  21AE FA 07       		ANI	7
0433+  21B0 52          RXVS_LP		STR	R2	
0434+  21B1 32 BE       		BZ	RXVS_NS
0435+  21B3 9F          		GHI	RF
0436+  21B4 F6          		SHR
0437+  21B5 BF          		PHI	RF
0438+  21B6 8F          		GLO	RF
0439+  21B7 76          		SHRC
0440+  21B8 AF          		PLO	RF
0441+  21B9 02          		LDN	R2
0442+  21BA FF 01       		SMI	1
0443+  21BC 30 B0       		BR	RXVS_LP
0444+  21BE 0E          RXVS_NS		LDN	RE	;Get Column 0 - 63
0445+  21BF F6          		SHR
0446+  21C0 F6          		SHR
0447+  21C1 F6          		SHR
0448+  21C2 52          		STR	R2	;BYTE OFFSET OF COLUMN
0449+  21C3             		
0450+  21C3 2E          		DEC	RE	;Pixie ROW 0 to 4
0451+  21C4 0E          		LDN	RE
0452+  21C5 F9 08       		ORI	08		;OFFSET 8 INTO TABLE For start address of ROW
0453+  21C7 AE          		PLO	RE
0454+  21C8 F8 2A       		LDI	ROWTABLE/256	;M(RX)=Column Mask
0455+  21CA BE          		PHI	RE
0456+  21CB 0E          		LDN	RE		;Get from Table start Display Address for ROW
0457+  21CC FC 20       		ADI	8*4
0458+  21CE F4          		ADD
0459+  21CF 52          		STR	R2	;M(R2) = BYTE OFFSET INTO VIDEO PAGE
0460+  21D0             		
0461+  21D0 F8 FF       		LDI	VIDEO_PAGE/256
0462+  21D2 BE          		PHI	RE
0463+  21D3 F8 00       		LDI	VIDEO_PAGE%256
0464+  21D5 AE          		PLO	RE
0465+  21D6 0E          		LDN	RE	;D=VIDEO PAGE
0466+  21D7 BE          		PHI	RE	;RE.1=VIDEO PAGE
0467+  21D8 72          		LDXA		;GET BYTE OFFSET INTO VIDEO PAGE
0468+  21D9             		;(INC	R2)
0469+  21D9 AE          		PLO	RE	
0470+  21DA 9F          		GHI	RF
0471+  21DB EE          		SEX	RE
0472+  21DC F3          		XOR
0473+  21DD 5E          		STR	RE
0474+  21DE 8F          		GLO	RF
0475+  21DF 1E          		INC	RE
0476+  21E0 F3          		XOR
0477+  21E1 5E          		STR	RE
0478+  21E2 E2          		SEX	R2
0479+  21E3 F8 00       		LDI	0
0480+  21E5 AE          		PLO	RE
0481+  21E6 30 00       		BR	RXCHAR_SUB
0482+  21E8             
0483+  21E8             	
0484+  2200             		NEWPAGE
0485+  2200             ;**********************************************************************
0486+  2200             ;Transmit Byte via Q connected to RS232 driver
0487+  2200             ;call with R3 being the previous PC
0488+  2200             ;Byte to send in D
0489+  2200             ;Returns with D unaffected
0490+  2200             ;M(R2) = D
0491+  2200             ;Destroys RF.0
0492+  2200             ;----------------------------------------------------------------------
0493+  2200 00          TXCHARIDL	IDL		;Wait for an Interrupt to synchronize TX Data
0494+  2201             ;PUT_CHAR_SUB
0495+  2201             TXCHAR:		;PHI	RF
0496+  2201 F8 09       		LDI 	9	;9 bits to transmit (1 start + 8 data)
0497+  2203 AF          		PLO	RF
0498+  2204 9F          		GHI	RF
0499+  2205 FE          		SHL		;set start bit
0500+  2206 76          		RSHR		;DF=0
0501+  2207             
0502+  2207             TXCLOOP:
0503+  2207 33 0C       		BDF	$+5	;10.5   jump to seq to send a 1 bit
0504+  2209 7B          		SEQ		;11.5   send a 0 bit
0505+  220A 30 0F       		BR	$+5	;1      jump +5 to next shift
0506+  220C 7A          		REQ		;11.5   send a 1 bit
0507+  220D 30 0F       		BR	$+2	;1      jump +2 to next shift (NOP for timing)
0508+  220F 76          		RSHR		;2      shift next bit to DF flag
0509+  2210 BF          		PHI	RF	;3      save D in M(R2)
0510+  2211 2F          		DEC	RF	;4      dec bit count
0511+  2212 8F          		GLO	RF	;5      get bit count
0512+  2213 32 19       		BZ	TXCRET	;6      if 0 then all 9 bits (start and data) sent
0513+  2215 9F          		GHI	RF	;7      restore D
0514+  2216 9F          		GHI	RF	;8
0515+  2217 30 07       		BR  	TXCLOOP	;9.5    loop back to send next bit
0516+  2219 9F          TXCRET:		GHI	RF	;7
0517+  221A 19          		INC	R9	;PC_POS++
0518+  221B FF 10       		SMI	010h
0519+  221D 33 22       		BPZ	TXCNOTCR
0520+  221F F8 00       		LDI	0
0521+  2221 A9          		PLO	R9	;PC_POS = 0
0522+  2222 9F          TXCNOTCR	GHI	RF	;8
0523+  2223 7A          		REQ		;11.5 stop bit
0524+  2224 D5          		RETN
0525+  2225             
0526+  2225             
0527+  2225             
0528+  2225             
0529+  2225             	;NEWPAGE
0530+  2225             
0531+  2225 AE          LONG_DELAY	PLO	RE
0532+  2226 D4          GO_BIG_LP	CALL	DELAY
0532+  2227 22 2D       
0533+  2229 2E          		DEC	RE
0534+  222A 8E          		GLO	RE
0535+  222B 3A 26       		BNZ	GO_BIG_LP
0536+  222D             
0537+  222D F8 FF       DELAY		LDI 0FFh
0538+  222F FF 01       DELAY_D		SMI	1
0539+  2231 E2          		SEX	R2
0540+  2232 3A 2F       		BNZ	DELAY_D
0541+  2234 D5          		RETN
0542+  2235             
0543+  2235             
0544+  2235             
0545+  2235 D4          PUT_SPACE_BYTE	PRINT
0545+  2236 22 80       
0546+  2238 20 00       		.text " \000"
0547+  223A D5          		RETN
0548+  223B             
0549+  223B             ;**********************************************************************
0550+  223B             ;Transmit Hex Byte in D
0551+  223B             ;----------------------------------------------------------------------
0552+  223B 73          PUT_BYTE_SUB:	STXD
0553+  223C 73          		STXD
0554+  223D F6          		SHR
0555+  223E F6          		SHR
0556+  223F F6          		SHR
0557+  2240 F6          		SHR
0558+  2241 D4          		CALL PUT_HEX
0558+  2242 22 4E       
0559+  2244 60          		IRX
0560+  2245 02          		LDN  R2
0561+  2246 FA 0F       		ANI  0Fh
0562+  2248 D4          		CALL PUT_HEX
0562+  2249 22 4E       
0563+  224B 60          		IRX
0564+  224C 02          		LDN  R2
0565+  224D D5          		RETN
0566+  224E             
0567+  224E             ;**********************************************************************
0568+  224E             ;Transmit Hex nibble in D
0569+  224E             ;----------------------------------------------------------------------
0570+  224E FF 0A       PUT_HEX:	SMI 10		;d=n-10
0571+  2250 3B 58       		BM  PHNUMB
0572+  2252 FC 41       		ADI 41H		;else if alpha
0573+  2254 D4          		PUT_CHAR
0573+  2255 FF 7A       
0574+  2257 D5          		RETN
0575+  2258             
0576+  2258 FC 0A       PHNUMB:		ADI 10
0577+  225A F9 30       		ORI 30H
0578+  225C D4          		PUT_CHAR
0578+  225D FF 7A       
0579+  225F D5          		RETN
0580+  2260             
0581+  2260             ;**********************************************************************
0582+  2260             ;New Line
0583+  2260             ;----------------------------------------------------------------------
0584+  2260 D4          NEWLINE		PRINT		;NEWLINE
0584+  2261 22 80       
0585+  2263 0D 0A 00    		.text "\r\n\000"
0586+  2266 D5          		RETN
0587+  2267             
0588+  2267             
0589+  2267             
0590+  2267             ;**********************************************************************
0591+  2267             ;Compare String @RA to Immediate,  ZERO = MATCH
0592+  2267             ;----------------------------------------------------------------------
0593+  2267 9A          CMPSTR		GHI	RA
0594+  2268 73          		STXD
0595+  2269 8A          		GLO	RA
0596+  226A 73          		STXD
0597+  226B 46          CMPSTR_LP	LDA	R6
0598+  226C 32 78       		BZ	CMPSTR_RET
0599+  226E 52          		STR	R2
0600+  226F 4A          		LDA	RA
0601+  2270 F7          		SM
0602+  2271 32 6B       		BZ	CMPSTR_LP
0603+  2273             		
0604+  2273 46          CMPSTR_LP2	LDA	R6
0605+  2274 3A 73       		BNZ	CMPSTR_LP2
0606+  2276 F8 01       		LDI	1
0607+  2278             
0608+  2278 BF          CMPSTR_RET	PHI	RF	;SAVE RETURN CODE
0609+  2279 60          		IRX
0610+  227A 72          		LDXA
0611+  227B AA          		PLO	RA
0612+  227C F0          		LDX
0613+  227D BA          		PHI	RA
0614+  227E 9F          		GHI	RF
0615+  227F D5          		RETN		;Zero = match
0616+  2280             
0617+  2280             
0618+  2280             ;**********************************************************************
0619+  2280             ;Print Immediate String to Screen
0620+  2280             ;returns to instruction after last End-Of-String byte \000
0621+  2280             ;----------------------------------------------------------------------
0622+  2280 52          PRINT_SUB:	STR	R2	;Save D
0623+  2281 46          PRINT_SUB_LP	LDA	R6
0624+  2282 32 89       		BZ	PRINT_SUB_RET
0625+  2284 D4          		PUT_CHAR
0625+  2285 FF 7A       
0626+  2287 30 81       		BR	PRINT_SUB_LP
0627+  2289 02          PRINT_SUB_RET:	LDN	R2	;Restore D
0628+  228A D5          		RETN
0629+  228B             
0630+  228B             ;**********************************************************************
0631+  228B             ;Print String to Screen
0632+  228B             ;returns to instruction after last End-Of-String byte \000
0633+  228B             ;----------------------------------------------------------------------
0634+  228B 52          PRINTZ_SUB:	STR	R2	;Save D
0635+  228C 4A          PRINTZ_SUB_LP	LDA	RA
0636+  228D 32 94       		BZ	PRINTZ_SUB_RET
0637+  228F D4          		PUT_CHAR
0637+  2290 FF 7A       
0638+  2292 30 8C       		BR	PRINTZ_SUB_LP
0639+  2294 02          PRINTZ_SUB_RET:	LDN	R2	;Restore D
0640+  2295 D5          		RETN
0641+  2296             
0642+  2296             
0643+  2296             ;**********************************************************************
0644+  2296             ;Print String to Screen from RA, Length = RB.0
0645+  2296             ;----------------------------------------------------------------------
0646+  2296 4A          PRINTB_SUB	LDA	RA
0647+  2297 D4          		PUT_CHAR
0647+  2298 FF 7A       
0648+  229A 2B          		DEC	RB
0649+  229B 8B          		GLO	RB
0650+  229C 3A 96       		BNZ	PRINTB_SUB
0651+  229E D5          		RETN
0652+  229F             
0653+  229F             
0654+  229F             
0655+  229F             ;-----------------------------------------------------------------------------------------------------
0656+  229F             ;	Print Filename at RA, RA ADVANCES +12
0657+  229F             ;-----------------------------------------------------------------------------------------------------
0658+  229F 0A          PRINT_FILENAME	LDN	RA
0659+  22A0 FF 28       		SMI	DIRFLAG
0660+  22A2 32 D9       		BZ	PF_DIR
0661+  22A4             
0662+  22A4 F8 08       PF_FILENAME	LDI	8
0663+  22A6 D4          		CALL	PF_PART
0663+  22A7 22 BF       
0664+  22A9             
0665+  22A9 0A          PF_EXT		LDN	RA
0666+  22AA FF 20       		SMI	' '
0667+  22AC 32 BA       		BZ	PF_NOEXT
0668+  22AE F8 2E       		LDI	'.'
0669+  22B0 D4          		PUT_CHAR
0669+  22B1 FF 7A       
0670+  22B3 F8 03       		LDI	3
0671+  22B5 D4          		CALL	PF_PART
0671+  22B6 22 BF       
0672+  22B8 1A          		INC	RA
0673+  22B9 D5          		RETN
0674+  22BA             
0675+  22BA 1A          PF_NOEXT	INC	RA
0676+  22BB 1A          		INC	RA
0677+  22BC 1A          		INC	RA
0678+  22BD 1A          		INC	RA
0679+  22BE D5          		RETN
0680+  22BF             
0681+  22BF             
0682+  22BF 52          PF_PART		STR	R2		
0683+  22C0 4A          PF_LP1		LDA	RA	;Fetch char
0684+  22C1 FF 20       		SMI	' '
0685+  22C3 32 D1       		BZ	PF_END	;Exit if at end of name
0686+  22C5 FC 20       		ADI	' '
0687+  22C7 D4          		PUT_CHAR
0687+  22C8 FF 7A       
0688+  22CA 02          		LDN	R2
0689+  22CB FF 01       		SMI	1
0690+  22CD 52          		STR	R2
0691+  22CE 3A C0       		BNZ	PF_LP1
0692+  22D0 D5          		RETN
0693+  22D1             		
0694+  22D1 02          PF_END		LDN	R2
0695+  22D2 2A          		DEC	RA
0696+  22D3 1A          PF_LP2		INC	RA
0697+  22D4 FF 01       		SMI	1
0698+  22D6 3A D3       		BNZ	PF_LP2
0699+  22D8 D5          		RETN
0700+  22D9             
0701+  22D9 1A          PF_DIR		INC	RA
0702+  22DA F8 5B       		LDI	'['
0703+  22DC D4          		PUT_CHAR
0703+  22DD FF 7A       
0704+  22DF D4          		CALL	PF_FILENAME
0704+  22E0 22 A4       
0705+  22E2 F8 5D       		LDI	']'
0706+  22E4 D4          		PUT_CHAR
0706+  22E5 FF 7A       
0707+  22E7 2A          		DEC	RA
0708+  22E8 D5          		RETN
0709+  22E9             
0710+  22E9             
0711+  22E9             ;**********************************************************************
0712+  22E9             ;Print String to Screen from RA, Length = RB.0
0713+  22E9             ;----------------------------------------------------------------------
0714+  22E9 52          PRINTF_SUB	STR	R2
0715+  22EA 4A          PRINTF_SUB_LP	LDA	RA
0716+  22EB D4          		PUT_CHAR
0716+  22EC FF 7A       
0717+  22EE 02          		LDN	R2
0718+  22EF FF 01       		SMI	1
0719+  22F1 3A E9       		BNZ	PRINTF_SUB
0720+  22F3 D5          		RETN
0721+  22F4             
0722+  22F4             
0723+  22F4             
0724+  22F4             
0725+  22F4             
0726+  22F4             
0727+  22F4             
0728+  22F4             
0729+  22F4             
0730+  22F4             ;**********************************************************************
0731+  22F4             ;----------------------------------------------------------------------
0732+  22F4             ;Load RA with a value (location of variable, etc)
0733+  22F4             ;eg.	LDI_RA 07F80h	;32 BIT WORD FOR RA
0734+  22F4             ;----------------------------------------------------------------------
0735+  22F4 46          LDI_RA_SUB	LDA	R6
0736+  22F5 BA          		PHI	RA
0737+  22F6 46          		LDA	R6
0738+  22F7 AA          		PLO	RA
0739+  22F8 9F          		GHI	RF	;Restore D
0740+  22F9 D5          		RETN
0741+  22FA             
0742+  22FA 46          LDI_RB_SUB	LDA	R6
0743+  22FB BB          		PHI	RB
0744+  22FC 46          		LDA	R6
0745+  22FD AB          		PLO	RB
0746+  22FE 9F          		GHI	RF	;Restore D
0747+  22FF D5          		RETN
0748+  2300             
0749+  2300 46          LDI_RC_SUB	LDA	R6
0750+  2301 BC          		PHI	RC
0751+  2302 46          		LDA	R6
0752+  2303 AC          		PLO	RC
0753+  2304 9F          		GHI	RF	;Restore D
0754+  2305 D5          		RETN
0755+  2306             
0756+  2306 46          LDI_RD_SUB	LDA	R6
0757+  2307 BD          		PHI	RD
0758+  2308 46          		LDA	R6
0759+  2309 AD          		PLO	RD
0760+  230A 9F          		GHI	RF	;Restore D
0761+  230B D5          		RETN
0762+  230C             
0763+  230C 46          LDI_RE_SUB	LDA	R6
0764+  230D BE          		PHI	RE
0765+  230E 46          		LDA	R6
0766+  230F AE          		PLO	RE
0767+  2310 9F          		GHI	RF	;Restore D
0768+  2311 D5          		RETN
0769+  2312             
0770+  2312             		;Store String (Length & String) to M(RE)
0771+  2312 46          STORE_STRING	LDA	R6	;Fetch High address byte where to store
0772+  2313 BE          		PHI	RE
0773+  2314 46          		LDA	R6	;Fetch Low address byte
0774+  2315 AE          		PLO	RE
0775+  2316 46          		LDA	R6	;Fetch Length
0776+  2317 AF          		PLO	RF
0777+  2318 46          SS_LOOP		LDA	R6
0778+  2319 5E          		STR	RE
0779+  231A 1E          		INC	RE
0780+  231B 2F          		DEC	RF
0781+  231C 8F          		GLO	RF
0782+  231D 3A 18       		BNZ	SS_LOOP		
0783+  231F 9F          SS_EXIT		GHI	RF	;Restore D
0784+  2320 D5          		RETN
0785+  2321             
0786+  2321 46          STD_SUB		LDA	R6
0787+  2322 BE          		PHI	RE
0788+  2323 46          		LDA	R6
0789+  2324 AE          		PLO	RE
0790+  2325 9F          		GHI	RF	;Restore D
0791+  2326 5E          		STR	RE
0792+  2327 D5          		RETN
0793+  2328             
0794+  2328 46          LDD_SUB		LDA	R6
0795+  2329 BE          		PHI	RE
0796+  232A 46          		LDA	R6
0797+  232B AE          		PLO	RE
0798+  232C 0E          		LDN	RE
0799+  232D D5          		RETN
0800+  232E             
0801+  232E             
0802+  232E             
0803+  232E 46          INIT_PTRA	LDA	R6
0804+  232F BA          		PHI	RA
0805+  2330 46          		LDA	R6
0806+  2331 AA          		PLO	RA
0807+  2332 F8 00       		LDI	0
0808+  2334 5A          		STR	RA
0809+  2335 1A          		INC	RA
0810+  2336 9F          		GHI	RF	;Restore D
0811+  2337 D5          		RETN
0812+  2338             
0813+  2338 AF          COPY_RAM_RA2RB	PLO	RF	;RA TO RB
0814+  2339 4A          COPY_RAM_A2B_LP	LDA	RA
0815+  233A 5B          		STR	RB
0816+  233B 1B          		INC	RB
0817+  233C 2F          		DEC	RF
0818+  233D 8F          		GLO	RF
0819+  233E 3A 39       		BNZ	COPY_RAM_A2B_LP
0820+  2340 D5          		RETN
0821+  2341             
0822+  2341             		;NEWPAGE
0823+  2341             
0824+  2341 AF          COPY_RAM_RB2RA	PLO	RF	;RB TO RA
0825+  2342 4B          COPY_RAM_B2A_LP	LDA	RB
0826+  2343 5A          		STR	RA
0827+  2344 1A          		INC	RA
0828+  2345 2F          		DEC	RF
0829+  2346 8F          		GLO	RF
0830+  2347 3A 42       		BNZ	COPY_RAM_B2A_LP
0831+  2349 D5          		RETN
0832+  234A             
0833+  234A AF          COPY_RAM_RE2RA	PLO	RF	;RE TO RA
0834+  234B 4E          COPY_RAM_E2A_LP	LDA	RE
0835+  234C 5A          		STR	RA
0836+  234D 1A          		INC	RA
0837+  234E 2F          		DEC	RF
0838+  234F 8F          		GLO	RF
0839+  2350 3A 4B       		BNZ	COPY_RAM_E2A_LP
0840+  2352 D5          		RETN
0841+  2353             
0842+  2353 AF          COPY_RAM_RE2RB	PLO	RF	;RE TO RA
0843+  2354 4E          COPY_RAM_E2B_LP	LDA	RE
0844+  2355 5B          		STR	RB
0845+  2356 1B          		INC	RB
0846+  2357 2F          		DEC	RF
0847+  2358 8F          		GLO	RF
0848+  2359 3A 54       		BNZ	COPY_RAM_E2B_LP
0849+  235B D5          		RETN
0850+  235C             
0851+  235C             
0852+  235C             ;**********************************************************************
0853+  235C             ;**********************************************************************
0854+  235C             ;**********************************************************************
0855+  235C             ;16BIT ROUTINES
0856+  235C             ;----------------------------------------------------------------------
0857+  235C             ;----------------------------------------------------------------------
0858+  235C             ;----------------------------------------------------------------------
0859+  235C             	
0860+  235C             		;LOAD LITTLE ENDIAN
0861+  235C 46          LD_RA_SUB	LDA	R6	;Fetch address
0862+  235D BA          		PHI	RA	;RA = Address
0863+  235E 46          		LDA	R6
0864+  235F AA          		PLO	RA
0865+  2360 4A          		LDA	RA	;Fetch contents of M(RA) to load into RA
0866+  2361 52          		STR	R2
0867+  2362 0A          		LDN	RA
0868+  2363 BA          		PHI	RA	;LITTLE ENDIAN VALUE
0869+  2364 02          		LDN	R2
0870+  2365 AA          		PLO	RA
0871+  2366 9F          		GHI	RF	;Restore D
0872+  2367 D5          		RETN
0873+  2368             
0874+  2368             		;LOAD LITTLE ENDIAN
0875+  2368 46          LD_RB_SUB	LDA	R6	;Fetch address
0876+  2369 BB          		PHI	RB
0877+  236A 46          		LDA	R6
0878+  236B AB          		PLO	RB
0879+  236C 4B          		LDA	RB
0880+  236D 52          		STR	R2
0881+  236E 0B          		LDN	RB
0882+  236F BB          		PHI	RB	;LITTLE ENDIAN VALUE
0883+  2370 02          		LDN	R2
0884+  2371 AB          		PLO	RB
0885+  2372 9F          		GHI	RF	;Restore D
0886+  2373 D5          		RETN
0887+  2374             
0888+  2374             		;LOAD LITTLE ENDIAN
0889+  2374 46          LD_RC_SUB	LDA	R6	;Fetch address
0890+  2375 BC          		PHI	RC
0891+  2376 46          		LDA	R6
0892+  2377 AC          		PLO	RC
0893+  2378 4C          		LDA	RC
0894+  2379 52          		STR	R2
0895+  237A 0C          		LDN	RC
0896+  237B BC          		PHI	RC	;LITTLE ENDIAN VALUE
0897+  237C 02          		LDN	R2
0898+  237D AC          		PLO	RC
0899+  237E 9F          		GHI	RF	;Restore D
0900+  237F D5          		RETN
0901+  2380             
0902+  2380             		;LOAD LITTLE ENDIAN
0903+  2380 46          LD_RD_SUB	LDA	R6	;Fetch address
0904+  2381 BD          		PHI	RD
0905+  2382 46          		LDA	R6
0906+  2383 AD          		PLO	RD
0907+  2384 4D          		LDA	RD
0908+  2385 52          		STR	R2
0909+  2386 0D          		LDN	RD
0910+  2387 BD          		PHI	RD	;LITTLE ENDIAN VALUE
0911+  2388 02          		LDN	R2
0912+  2389 AD          		PLO	RD
0913+  238A 9F          		GHI	RF	;Restore D
0914+  238B D5          		RETN
0915+  238C             
0916+  238C             
0917+  238C             
0918+  238C             		;SAVE LITTLE ENDIAN
0919+  238C 8A          ST_RA_SUB	GLO	RA	;PUSH RA TWICE 
0920+  238D 73          		STXD		;ONCE TO STORE
0921+  238E 9A          		GHI	RA	;ONCE TO RESTORE TO RA
0922+  238F 73          		STXD
0923+  2390 8A          		GLO	RA
0924+  2391 52          		STR	R2
0925+  2392 46          		LDA	R6	;Fetch address
0926+  2393 BA          		PHI	RA
0927+  2394 46          		LDA	R6
0928+  2395 AA          		PLO	RA
0929+  2396 F0          		LDX		;Fetch Low byte
0930+  2397 5A          		STR	RA	;Save first (Little Endian)
0931+  2398 1A          		INC	RA
0932+  2399 60          		IRX
0933+  239A F0          		LDX		;Get high byte
0934+  239B 5A          		STR	RA	;Write RA high to M(RA+1)
0935+  239C BA          		PHI	RA
0936+  239D 60          		IRX
0937+  239E F0          		LDX		;Get low byte
0938+  239F AA          		PLO	RA
0939+  23A0 9F          		GHI	RF	;Restore D
0940+  23A1 D5          		RETN
0941+  23A2             
0942+  23A2             		;SAVE LITTLE ENDIAN
0943+  23A2 8B          ST_RB_SUB	GLO	RB	;PUSH RB TWICE 
0944+  23A3 73          		STXD		;ONCE TO STORE
0945+  23A4 9B          		GHI	RB	;ONCE TO RESTORE TO RB
0946+  23A5 73          		STXD
0947+  23A6 8B          		GLO	RB
0948+  23A7 52          		STR	R2
0949+  23A8 46          		LDA	R6	;Fetch address
0950+  23A9 BB          		PHI	RB
0951+  23AA 46          		LDA	R6
0952+  23AB AB          		PLO	RB
0953+  23AC F0          		LDX		;Fetch Low byte
0954+  23AD 5B          		STR	RB	;Save first (Little Endian)
0955+  23AE 1B          		INC	RB
0956+  23AF 60          		IRX
0957+  23B0 F0          		LDX		;Get high byte
0958+  23B1 5B          		STR	RB	;Write RB high to M(RB+1)
0959+  23B2 BB          		PHI	RB
0960+  23B3 60          		IRX
0961+  23B4 F0          		LDX		;Get low byte
0962+  23B5 AB          		PLO	RB
0963+  23B6 9F          		GHI	RF	;Restore D
0964+  23B7 D5          		RETN
0965+  23B8             
0966+  23B8             		;SAVE LITTLE ENDIAN
0967+  23B8 8C          ST_RC_SUB	GLO	RC	;PUSH RC TWICE 
0968+  23B9 73          		STXD		;ONCE TO STORE
0969+  23BA 9C          		GHI	RC	;ONCE TO RESTORE TO RC
0970+  23BB 73          		STXD
0971+  23BC 8C          		GLO	RC
0972+  23BD 52          		STR	R2
0973+  23BE 46          		LDA	R6	;Fetch address
0974+  23BF BC          		PHI	RC
0975+  23C0 46          		LDA	R6
0976+  23C1 AC          		PLO	RC
0977+  23C2 F0          		LDX		;Fetch Low byte
0978+  23C3 5C          		STR	RC	;Save first (Little Endian)
0979+  23C4 1C          		INC	RC
0980+  23C5 60          		IRX
0981+  23C6 F0          		LDX		;Get high byte
0982+  23C7 5C          		STR	RC	;Write RC high to M(RC+1)
0983+  23C8 BC          		PHI	RC
0984+  23C9 60          		IRX
0985+  23CA F0          		LDX		;Get low byte
0986+  23CB AC          		PLO	RC
0987+  23CC 9F          		GHI	RF	;Restore D
0988+  23CD D5          		RETN
0989+  23CE             
0990+  23CE             
0991+  23CE             
0992+  23CE             		;SAVE LITTLE ENDIAN
0993+  23CE 8D          ST_RD_SUB	GLO	RD	;PUSH RD TWICE 
0994+  23CF 73          		STXD		;ONCE TO STORE
0995+  23D0 9D          		GHI	RD	;ONCE TO RESTORE TO RD
0996+  23D1 73          		STXD
0997+  23D2 8D          		GLO	RD
0998+  23D3 52          		STR	R2
0999+  23D4 46          		LDA	R6	;Fetch address
1000+  23D5 BD          		PHI	RD
1001+  23D6 46          		LDA	R6
1002+  23D7 AD          		PLO	RD
1003+  23D8 F0          		LDX		;Fetch Low byte
1004+  23D9 5D          		STR	RD	;Save first (Little Endian)
1005+  23DA 1D          		INC	RD
1006+  23DB 60          		IRX
1007+  23DC F0          		LDX		;Get high byte
1008+  23DD 5D          		STR	RD
1009+  23DE BD          		PHI	RD
1010+  23DF 60          		IRX
1011+  23E0 F0          		LDX		;Get low byte
1012+  23E1 AD          		PLO	RD
1013+  23E2 9F          		GHI	RF	;Restore D
1014+  23E3 D5          		RETN
1015+  23E4             
1016+  23E4             
1017+  23E4             			
1018+  23E4             			;RA = RA + RB
1019+  23E4 8B          ADD_RA_RB_SUB	GLO	RB
1020+  23E5 52          		STR	R2
1021+  23E6 8A          		GLO	RA
1022+  23E7 F4          		ADD
1023+  23E8 AA          		PLO	RA
1024+  23E9 9B          		GHI	RB
1025+  23EA 52          		STR	R2
1026+  23EB 9A          		GHI	RA
1027+  23EC 74          		ADC
1028+  23ED BA          		PHI	RA
1029+  23EE 9F          		GHI	RF	;Restore D
1030+  23EF D5          		RETN
1031+  23F0             
1032+  23F0             
1033+  2400             								NEWPAGE
1034+  2400             ;**********************************************************************
1035+  2400             ;**********************************************************************
1036+  2400             ;**********************************************************************
1037+  2400             ;32BIT ROUTINES
1038+  2400             ;
1039+  2400             ;SHL32_RA	Shifts @RA left
1040+  2400             ;SHL32_RE	Shifts @RE left
1041+  2400             ;CLR32_RA_SUB	Clears @RA
1042+  2400             ;CLR32_RB_SUB	Clears @RA
1043+  2400             ;PUT32_RA_MSG	Prints "A:" followed by @RA
1044+  2400             ;PUT32_RA_SUB	Prints @RA
1045+  2400             ;LDI32_RA	Loads Constant into @RA. eg  LDI32_RA 1234h,5678h
1046+  2400             ;LDI32_RB_SUB	Loads Constant into @RB
1047+  2400             ;ADD32RB	Adds @RA = @RA + @RB
1048+  2400             ;ADD32RE	Adds @RA = @RA + @RE
1049+  2400             ;CMP_PTRA_PTRB	Compare values, PTRA - PTRB.  Zero or DF=0 if PTRA < PTRB
1050+  2400             ;CPY32_RA2RB	Copy @RA to @RB
1051+  2400             ;CPY32_RB2RA	Copy @RB to @RA
1052+  2400             ;CPY32_RE2RA	Copy @RE to @RA
1053+  2400             ;INC32_RA	Increment @RA
1054+  2400             ;INC32_RB	Increment @RB
1055+  2400             ;DEC32_RB	Decrement @RB
1056+  2400             ;DEC32_RC	Decrement @RC
1057+  2400             ;TSTZ32_RB	Test if Zero @RB, returns 00 or the value of the MSB if XX000000
1058+  2400             ;TSTZ32_RC	Test if Zero @RC
1059+  2400             
1060+  2400             
1061+  2400             ;----------------------------------------------------------------------
1062+  2400             ;----------------------------------------------------------------------
1063+  2400             ;----------------------------------------------------------------------
1064+  2400 EA          SHL32_RA	SEX	RA
1065+  2401 30 07       		BR	SHL32_RX
1066+  2403 EB          SHL32_RB	SEX	RB
1067+  2404 30 07       		BR	SHL32_RX
1068+  2406 EE          SHL32_RE	SEX	RE
1069+  2407 F0          SHL32_RX	LDX
1070+  2408 FE          		SHL
1071+  2409 73          		STXD
1072+  240A 60          		IRX
1073+  240B 60          		IRX
1074+  240C F0          		LDX
1075+  240D 7E          		SHLC
1076+  240E 73          		STXD
1077+  240F 60          		IRX
1078+  2410 60          		IRX
1079+  2411 F0          		LDX
1080+  2412 7E          		SHLC
1081+  2413 73          		STXD
1082+  2414 60          		IRX
1083+  2415 60          		IRX
1084+  2416 F0          		LDX
1085+  2417 7E          		SHLC
1086+  2418 73          		STXD
1087+  2419 F0          		LDX
1088+  241A 73          		STXD
1089+  241B F0          		LDX
1090+  241C 73          		STXD
1091+  241D 9F          		GHI	RF	;Restore D
1092+  241E D5          		RETN
1093+  241F             
1094+  241F             
1095+  241F EA          CLR32_RA_SUB	SEX	RA
1096+  2420 30 26       		BR	CLR32_RX_SUB
1097+  2422 EB          CLR32_RB_SUB	SEX	RB
1098+  2423 30 26       		BR	CLR32_RX_SUB
1099+  2425 EE          CLR32_RE_SUB	SEX	RE
1100+  2426 60          CLR32_RX_SUB	IRX
1101+  2427 60          		IRX
1102+  2428 60          		IRX
1103+  2429 F8 00       		LDI	0
1104+  242B 73          		STXD
1105+  242C 73          		STXD
1106+  242D 73          		STXD
1107+  242E 73          		STXD
1108+  242F 60          		IRX
1109+  2430 9F          		GHI	RF	;Restore D
1110+  2431 D5          		RETN
1111+  2432             
1112+  2432 D4          PUT32_RA_MSG	PRINT
1112+  2433 22 80       
1113+  2435 0D0A413A00  		.text "\r\nA:\000"
1114+  243A             
1115+  243A EA          PUT32_RA_SUB	SEX	RA
1116+  243B 30 46       		BR	PUT32_RX_SUB
1117+  243D             
1118+  243D D4          PUT32_RB_MSG	PRINT
1118+  243E 22 80       
1119+  2440 0D0A423A00  		.text "\r\nB:\000"
1120+  2445             
1121+  2445 EB          PUT32_RB_SUB	SEX	RB
1122+  2446             
1123+  2446 52          PUT32_RX_SUB	STR	R2	;Save D
1124+  2447 22          		DEC	R2
1125+  2448 F0          		LDX		;RX[0]
1126+  2449 52          		STR	R2
1127+  244A 22          		DEC	R2
1128+  244B 60          		IRX		;RX[1]
1129+  244C F0          		LDX
1130+  244D 52          		STR	R2
1131+  244E 22          		DEC	R2
1132+  244F 60          		IRX		;RX[2]
1133+  2450 F0          		LDX
1134+  2451 52          		STR	R2
1135+  2452 22          		DEC	R2
1136+  2453 60          		IRX		;RX[3]
1137+  2454 F0          		LDX
1138+  2455 52          		STR	R2
1139+  2456 73          		STXD		;RX[2]
1140+  2457 F0          		LDX
1141+  2458 73          		STXD		;RX[1]
1142+  2459 F0          		LDX
1143+  245A 73          		STXD		;RX[0]
1144+  245B 42          		LDA	R2
1145+  245C D4          		PUT_BYTE
1145+  245D 22 3B       
1146+  245F 42          		LDA	R2
1147+  2460 D4          		PUT_BYTE
1147+  2461 22 3B       
1148+  2463 42          		LDA	R2
1149+  2464 D4          		PUT_BYTE
1149+  2465 22 3B       
1150+  2467 42          		LDA	R2
1151+  2468 D4          		PUT_BYTE
1151+  2469 22 3B       
1152+  246B 02          		LDN	R2
1153+  246C D5          		RETN
1154+  246D             
1155+  246D             
1156+  246D             ;--------------------------------------------------------------------------------------
1157+  246D             ;Load a 32bit constant into 32 bit variable pointed to by Rx
1158+  246D             ;eg.	LDI_RA 07F80h	;32 BIT WORD FOR RA
1159+  246D             ;	LDI32_RA	1234h,5678h	;Store this number into Variable, Little Endian	
1160+  246D             ;--------------------------------------------------------------------------------------
1161+  246D EA          LDI32_RA_SUB	SEX	RA
1162+  246E 30 71       		BR	LDI32_RX_SUB
1163+  2470             
1164+  2470 EB          LDI32_RB_SUB	SEX	RB
1165+  2471 60          LDI32_RX_SUB	IRX
1166+  2472 60          		IRX
1167+  2473 60          		IRX
1168+  2474 46          		LDA	R6
1169+  2475 73          		STXD
1170+  2476 46          		LDA	R6
1171+  2477 73          		STXD
1172+  2478 46          		LDA	R6
1173+  2479 73          		STXD
1174+  247A 46          		LDA	R6
1175+  247B 73          		STXD
1176+  247C 60          		IRX
1177+  247D 9F          		GHI	RF	;Restore D
1178+  247E D5          		RETN		
1179+  247F             
1180+  247F             ;--------------------------------------------------------------------------------------
1181+  247F             ;		32BIT RA = 32BIT RA + 32BIT RB
1182+  247F             ;
1183+  247F EB          ADD32RB		SEX	RB
1184+  2480 30 83       		BR	ADD32RX
1185+  2482 EE          ADD32RE		SEX	RE
1186+  2483 0A          ADD32RX		LDN	RA
1187+  2484 F4          		ADD
1188+  2485 5A          		STR	RA
1189+  2486 1A          		INC	RA
1190+  2487 60          		IRX
1191+  2488 0A          		LDN	RA
1192+  2489 74          		ADC
1193+  248A 5A          		STR	RA
1194+  248B 1A          		INC	RA
1195+  248C 60          		IRX
1196+  248D 0A          		LDN	RA
1197+  248E 74          		ADC
1198+  248F 5A          		STR	RA
1199+  2490 1A          		INC	RA
1200+  2491 60          		IRX
1201+  2492 0A          		LDN	RA
1202+  2493 74          		ADC
1203+  2494 5A          		STR	RA
1204+  2495 2A          		DEC	RA
1205+  2496 2A          		DEC	RA
1206+  2497 2A          		DEC	RA
1207+  2498 F0          		LDX
1208+  2499 73          		STXD
1209+  249A F0          		LDX
1210+  249B 73          		STXD
1211+  249C F0          		LDX
1212+  249D 73          		STXD
1213+  249E 9F          		GHI	RF	;Restore D
1214+  249F D5          		RETN		
1215+  24A0             
1216+  24A0             
1217+  24A0             		
1218+  24A0             ;--------------------------------------------------------------------------------------
1219+  24A0             		;Compare 32bit values, PTRA - PTRB
1220+  24A0 EB          CMP_PTRA_PTRB	SEX	RB
1221+  24A1 1B          		INC	RB
1222+  24A2 1B          		INC	RB
1223+  24A3 1B          		INC	RB
1224+  24A4 1A          		INC	RA
1225+  24A5 1A          		INC	RA
1226+  24A6 1A          		INC	RA
1227+  24A7 0A          		LDN	RA
1228+  24A8 F7          		SM		;D=PTRA-PTRB MSB
1229+  24A9 3A BC       		BNZ	CPAPB_1	;Difference found, exit
1230+  24AB 2B          		DEC	RB
1231+  24AC 2A          		DEC	RA
1232+  24AD 0A          		LDN	RA
1233+  24AE F7          		SM		;D=PTRA-PTRB
1234+  24AF 3A BE       		BNZ	CPAPB_2	;Difference found, exit
1235+  24B1 2B          		DEC	RB
1236+  24B2 2A          		DEC	RA
1237+  24B3 0A          		LDN	RA
1238+  24B4 F7          		SM		;D=PTRA-PTRB
1239+  24B5 3A C0       		BNZ	CPAPB_3	;Difference found, exit
1240+  24B7 2B          		DEC	RB
1241+  24B8 2A          		DEC	RA
1242+  24B9 0A          		LDN	RA
1243+  24BA F7          		SM		;D=PTRA-PTRB
1244+  24BB D5          		RETN
1245+  24BC 2B          CPAPB_1		DEC	RB
1246+  24BD 2A          		DEC	RA
1247+  24BE 2B          CPAPB_2		DEC	RB
1248+  24BF 2A          		DEC	RA
1249+  24C0 2B          CPAPB_3		DEC	RB
1250+  24C1 2A          		DEC	RA
1251+  24C2 D5          		RETN
1252+  24C3             
1253+  24C3             
1254+  24C3             ;--------------------------------------------------------------------------------------
1255+  24C3 EA          INC32_RA	SEX	RA
1256+  24C4 30 CA       		BR	INC32_RX
1257+  24C6 EB          INC32_RB	SEX	RB
1258+  24C7 30 CA       		BR	INC32_RX
1259+  24C9 ED          INC32_RD	SEX	RD
1260+  24CA F0          INC32_RX	LDX		;RX[0]
1261+  24CB FC 01       		ADI	1
1262+  24CD 73          		STXD		;RX[-1]
1263+  24CE 60          		IRX		;RX[0]
1264+  24CF 3B EA       		BNF	INC32RX_EX3
1265+  24D1 60          		IRX		;RX[1]
1266+  24D2 F0          		LDX
1267+  24D3 FC 01       		ADI	1
1268+  24D5 73          		STXD		;RX[0]
1269+  24D6 3B EA       		BNF	INC32RX_EX3
1270+  24D8 60          		IRX		;RX[1]
1271+  24D9 60          		IRX		;RX[2]
1272+  24DA F0          		LDX
1273+  24DB FC 01       		ADI	1
1274+  24DD 73          		STXD		;RX[1]
1275+  24DE 3B E8       		BNF	INC32RB_EX2
1276+  24E0 60          		IRX		;RX[2]
1277+  24E1 60          		IRX		;RX[3]
1278+  24E2 F0          		LDX
1279+  24E3 FC 01       		ADI	1
1280+  24E5 73          		STXD		;RX[2]
1281+  24E6 F0          		LDX
1282+  24E7 73          		STXD		;RX[1]
1283+  24E8 F0          INC32RB_EX2	LDX
1284+  24E9 73          		STXD		;RX[0]
1285+  24EA 9F          INC32RX_EX3	GHI	RF	;Restore D
1286+  24EB D5          		RETN
1287+  24EC             
1288+  24EC             
1289+  24EC             ;--------------------------------------------------------------------------------------
1290+  24EC 4A          CPY32_RA2RB	LDA	RA	;1
1291+  24ED 5B          		STR	RB
1292+  24EE 1B          		INC	RB
1293+  24EF 4A          		LDA	RA
1294+  24F0 5B          		STR	RB
1295+  24F1 1B          		INC	RB
1296+  24F2 4A          		LDA	RA
1297+  24F3 5B          		STR	RB
1298+  24F4 1B          		INC	RB
1299+  24F5 0A          		LDN	RA
1300+  24F6 5B          		STR	RB
1301+  24F7 2A          		DEC	RA
1302+  24F8 2A          		DEC	RA
1303+  24F9 2A          		DEC	RA
1304+  24FA 2B          		DEC	RB
1305+  24FB 2B          		DEC	RB
1306+  24FC 2B          		DEC	RB
1307+  24FD 9F          		GHI	RF	;Restore D
1308+  24FE D5          		RETN
1309+  24FF             
1310+  24FF             
1311+  2500             								NEWPAGE
1312+  2500             ;-------------------------------------------------------------------------------------
1313+  2500 EB          CPY32_RB2RA	SEX	RB
1314+  2501 30 04       		BR	CPY32_RX2RA
1315+  2503 EE          CPY32_RE2RA	SEX	RE
1316+  2504 72          CPY32_RX2RA	LDXA		;1
1317+  2505 5A          		STR	RA
1318+  2506 1A          		INC	RA
1319+  2507 72          		LDXA
1320+  2508 5A          		STR	RA
1321+  2509 1A          		INC	RA
1322+  250A 72          		LDXA
1323+  250B 5A          		STR	RA
1324+  250C 1A          		INC	RA
1325+  250D F0          		LDX
1326+  250E 5A          		STR	RA
1327+  250F 73          		STXD	
1328+  2510 F0          		LDX
1329+  2511 73          		STXD	
1330+  2512 F0          		LDX
1331+  2513 73          		STXD	
1332+  2514 2A          		DEC	RA
1333+  2515 2A          		DEC	RA
1334+  2516 2A          		DEC	RA
1335+  2517 9F          		GHI	RF	;Restore D
1336+  2518 D5          		RETN
1337+  2519             
1338+  2519             
1339+  2519             		
1340+  2519 EC          DEC32_RC	SEX	RC
1341+  251A 30 1D       		BR	DEC32_RX
1342+  251C EB          DEC32_RB	SEX	RB
1343+  251D F0          DEC32_RX	LDX		;RX[0]
1344+  251E FF 01       		SMI	1
1345+  2520 73          		STXD		;RX[-1]
1346+  2521 60          		IRX		;RX[0]
1347+  2522 33 3D       		BDF	DEC32RX_EX3
1348+  2524 60          		IRX		;RX[1]
1349+  2525 F0          		LDX
1350+  2526 FF 01       		SMI	1
1351+  2528 73          		STXD		;RX[0]
1352+  2529 33 3D       		BDF	DEC32RX_EX3
1353+  252B 60          		IRX		;RX[1]
1354+  252C 60          		IRX		;RX[2]
1355+  252D F0          		LDX
1356+  252E FF 01       		SMI	1
1357+  2530 73          		STXD		;RX[1]
1358+  2531 33 3B       		BDF	DEC32RX_EX2
1359+  2533 60          		IRX		;RX[2]
1360+  2534 60          		IRX		;RX[3]
1361+  2535 F0          		LDX
1362+  2536 FF 01       		SMI	1
1363+  2538 73          		STXD		;RX[2]
1364+  2539 F0          		LDX
1365+  253A 73          		STXD		;RX[1]
1366+  253B F0          DEC32RX_EX2	LDX
1367+  253C 73          		STXD		;RX[0]
1368+  253D 9F          DEC32RX_EX3	GHI	RF	;Restore D
1369+  253E D5          		RETN
1370+  253F             
1371+  253F             
1372+  253F EB          TSTZ32_RB	SEX	RB
1373+  2540 30 43       		BR	TSTZ32_RX	
1374+  2542 EC          TSTZ32_RC	SEX	RC
1375+  2543 F0          TSTZ32_RX	LDX		;RX[0]
1376+  2544 3A 5D       		BNZ	TSTZ32RX_EX0
1377+  2546 60          		IRX		;RX[1]
1378+  2547 F0          		LDX		;RX[1]
1379+  2548 3A 5A       		BNZ	TSTZ32RX_EX1
1380+  254A 60          		IRX		;RX[2]
1381+  254B F0          		LDX		;RX[2]
1382+  254C 3A 58       		BNZ	TSTZ32RX_EX2
1383+  254E 60          		IRX		;RX[3]
1384+  254F F0          		LDX		;RX[3]
1385+  2550 3A 56       		BNZ	TSTZ32RX_EX3
1386+  2552 73          		STXD		;RX[2]	;All values are zero, just save and DEC
1387+  2553 73          		STXD		;RX[1]
1388+  2554 73          		STXD		;RX[0]
1389+  2555 D5          		RETN
1390+  2556 73          TSTZ32RX_EX3	STXD		;RX[2]
1391+  2557 F0          		LDX
1392+  2558 73          TSTZ32RX_EX2	STXD		;RX[1]
1393+  2559 F0          		LDX
1394+  255A 73          TSTZ32RX_EX1	STXD		;RX[0]
1395+  255B F8 01       		LDI	1	;RETURN NOT ZERO
1396+  255D D5          TSTZ32RX_EX0	RETN
1397+  255E             
1398+  255E             
1399+  255E             	
1400+  255E D4          DUMP_RA		PRINT
1400+  255F 22 80       
1401+  2561 2052413A00  		.TEXT	" RA:\000"
1402+  2566 52          PUT_RA		STR	R2
1403+  2567 9A          		GHI	RA
1404+  2568 D4          		PUT_BYTE
1404+  2569 22 3B       
1405+  256B 8A          		GLO	RA
1406+  256C D4          		PUT_BYTE
1406+  256D 22 3B       
1407+  256F 02          		LDN	R2	;Return with D unaffected
1408+  2570 D5          		RETN 
1409+  2571             
1410+  2571 D4          DUMP_RB		PRINT
1410+  2572 22 80       
1411+  2574 2052423A00  		.TEXT	" RB:\000"
1412+  2579 52          PUT_RB		STR	R2
1413+  257A 9B          		GHI	RB
1414+  257B D4          		PUT_BYTE
1414+  257C 22 3B       
1415+  257E 8B          		GLO	RB
1416+  257F D4          		PUT_BYTE
1416+  2580 22 3B       
1417+  2582 02          		LDN	R2	;Return with D unaffected
1418+  2583 D5          		RETN 
1419+  2584             		
1420+  2584 D4          DUMP_RC		PRINT
1420+  2585 22 80       
1421+  2587 2052433A00  		.TEXT	" RC:\000"
1422+  258C 9C          PUT_RC		GHI	RC
1423+  258D D4          		PUT_BYTE
1423+  258E 22 3B       
1424+  2590 8C          		GLO	RC
1425+  2591 D4          		PUT_BYTE
1425+  2592 22 3B       
1426+  2594 02          		LDN	R2	;Return with D unaffected
1427+  2595 D5          		RETN 
1428+  2596             
1429+  2596 D4          DUMP_REG	CALL	NEWLINE
1429+  2597 22 60       
1430+  2599 D4          		CALL	DUMP_RA
1430+  259A 25 5E       
1431+  259C D4          		CALL	DUMP_RB
1431+  259D 25 71       
1432+  259F D4          		CALL	DUMP_RC
1432+  25A0 25 84       
1433+  25A2 D4          DUMP_RD		PRINT
1433+  25A3 22 80       
1434+  25A5 2052443A00  		.TEXT	" RD:\000"
1435+  25AA 52          PUT_RD		STR	R2
1436+  25AB 9D          		GHI	RD
1437+  25AC D4          		PUT_BYTE
1437+  25AD 22 3B       
1438+  25AF 8D          		GLO	RD
1439+  25B0 D4          		PUT_BYTE
1439+  25B1 22 3B       
1440+  25B3 02          		LDN	R2	;Return with D unaffected
1441+  25B4 D5          		RETN 
1442+  25B5             
1443+  25B5 52          PUT_RE		STR	R2
1444+  25B6 9E          		GHI	RE
1445+  25B7 D4          		PUT_BYTE
1445+  25B8 22 3B       
1446+  25BA 8E          		GLO	RE
1447+  25BB D4          		PUT_BYTE
1447+  25BC 22 3B       
1448+  25BE 02          		LDN	R2	;Return with D unaffected
1449+  25BF D5          		RETN 
1450+  25C0             
1451+  25C0             
1452+  25C0             
1453+  25C0 52          INSTR		STR	R2	;Save D, char to search for
1454+  25C1 F8 01       		LDI	1	;Start with 1 as possible match
1455+  25C3 BF          INSTR_LP	PHI	RF	;Save
1456+  25C4 46          		LDA	R6	;Fetch string byte
1457+  25C5 32 D3       		BZ	INSTR_RET ;exit if END
1458+  25C7 F3          		XOR		;test for match
1459+  25C8 32 CF       		BZ	INSTR_FOUND
1460+  25CA 9F          		GHI	RF	;no match? add 1 to position marker
1461+  25CB FC 01       		ADI	1
1462+  25CD 30 C3       		BR	INSTR_LP ;try next char in string
1463+  25CF 46          INSTR_FOUND	LDA	R6		;Burn through rest of string
1464+  25D0 3A CF       		BNZ	INSTR_FOUND	;before returning
1465+  25D2 9F          		GHI	RF	;get the character position byte was found
1466+  25D3 D5          INSTR_RET	RETN
1467+  25D4             
1468+  25D4             
1469+  2600             		NEWPAGE
1470+  2600             ;Print Decimal Value
1471+  2600             ;Input: RA = 32bit value
1472+  2600             ;
1473+  2600 D4          PRINT_DEC	LDI_RD	DEC_STR	;STRING OF DECIMAL VALUES
1473+  2601 23 06       
1473+  2603 FF B3       
1474+  2605 F8 20       		LDI	32	;Count of bits
1475+  2607 BC          		PHI	RC
1476+  2608 F8 0A       		LDI	10
1477+  260A AC          		PLO	RC
1478+  260B F8 00       PD_CLP1		LDI	0	;Clear decimal string
1479+  260D 5D          		STR	RD
1480+  260E 1D          		INC	RD
1481+  260F 2C          		DEC	RC
1482+  2610 8C          		GLO	RC
1483+  2611 3A 0B       		BNZ	PD_CLP1
1484+  2613 AF          		PLO	RF	;CARRY FLAG
1485+  2614 D4          		LDI_RB	DEC_WEIGHTS
1485+  2615 22 FA       
1485+  2617 26 75       
1486+  2619 EB          		SEX	RB
1487+  261A             		
1488+  261A 0A          PD_NEXTBIT	LDN	RA	;Fetch a bit
1489+  261B F6          		SHR
1490+  261C 4B          		LDA	RB	;Get Weight Length
1491+  261D AC          		PLO	RC	
1492+  261E 33 27       		BDF	PD_ADD
1493+  2620 1B          PD_BURNLP	INC	RB	;Burn through a Weight
1494+  2621 2C          		DEC	RC
1495+  2622 8C          		GLO	RC
1496+  2623 3A 20       		BNZ	PD_BURNLP
1497+  2625 30 41       		BR	PD_SHIFT
1498+  2627             
1499+  2627             PD_ADD		;LDI_RD	DEC_STR+9
1500+  2627 F8 BC       		LDI	(DEC_STR+9)%256
1501+  2629 AD          		PLO	RD
1502+  262A             	;	SEX	RB
1503+  262A             
1504+  262A 8F          PD_ADDLP	GLO	RF
1505+  262B F6          		SHR
1506+  262C AF          		PLO	RF
1507+  262D 0D          		LDN	RD
1508+  262E 74          		ADC		;Add with carry
1509+  262F FF 0A       		SMI	10	;Did it over flow 10?
1510+  2631 33 37       		BGE	PD_CARRY
1511+  2633 FC 0A       		ADI	10
1512+  2635 30 38       		BR	PD_NEXT_DIG
1513+  2637 1F          PD_CARRY	INC	RF
1514+  2638             		
1515+  2638             
1516+  2638 5D          PD_NEXT_DIG	STR	RD
1517+  2639 2D          		DEC	RD	;Go next digit to the left
1518+  263A 1B          		INC	RB	;Next Weight
1519+  263B 2C          		DEC	RC
1520+  263C 8C          		GLO	RC
1521+  263D 3A 2A       		BNZ	PD_ADDLP
1522+  263F FF 00       		SMI	0	;Set DF
1523+  2641             		
1524+  2641 1A          PD_SHIFT	INC	RA
1525+  2642 1A          		INC	RA
1526+  2643 1A          		INC	RA
1527+  2644 0A          		LDN	RA
1528+  2645 76          		SHRC
1529+  2646 5A          		STR	RA
1530+  2647 2A          		DEC	RA
1531+  2648 0A          		LDN	RA
1532+  2649 76          		SHRC
1533+  264A 5A          		STR	RA
1534+  264B 2A          		DEC	RA
1535+  264C 0A          		LDN	RA
1536+  264D 76          		SHRC
1537+  264E 5A          		STR	RA
1538+  264F 2A          		DEC	RA
1539+  2650 0A          		LDN	RA
1540+  2651 76          		SHRC
1541+  2652 5A          		STR	RA
1542+  2653 9C          		GHI	RC
1543+  2654 FF 01       		SMI	1
1544+  2656 BC          		PHI	RC
1545+  2657 3A 1A       		BNZ	PD_NEXTBIT
1546+  2659             ;		RETN
1547+  2659             					;PRINT THE NUMBER
1548+  2659             		
1549+  2659 D4          PD_PRINT	LDI_RD	DEC_STR	;STRING OF DECIMAL VALUES
1549+  265A 23 06       
1549+  265C FF B3       
1550+  265E F8 09       		LDI	9		;REMOVE LEADING ZERO'S
1551+  2660 AC          		PLO	RC
1552+  2661 0D          PD_LZLP		LDN	RD
1553+  2662 3A 69       		BNZ	PD_GOPRINT
1554+  2664 1D          		INC	RD
1555+  2665 2C          		DEC	RC
1556+  2666 8C          		GLO	RC
1557+  2667 3A 61       		BNZ	PD_LZLP
1558+  2669 1C          PD_GOPRINT	INC	RC
1559+  266A 4D          PD_PRINT_LP	LDA	RD
1560+  266B F9 30       		ORI	'0'
1561+  266D D4          		PUT_CHAR
1561+  266E FF 7A       
1562+  2670 2C          		DEC	RC
1563+  2671 8C          		GLO	RC
1564+  2672 3A 6A       		BNZ	PD_PRINT_LP
1565+  2674 D5          		RETN
1566+  2675             		
1567+  2675             
1568+  2675             
1569+  2675 02          DEC_WEIGHTS	.DB	2	;Bit 0 = 01
1570+  2676 01          		.DB	1
1571+  2677 00          		.DB	0
1572+  2678 02          		.DB	2	;Bit 1 = 02
1573+  2679 02          		.DB	2
1574+  267A 00          		.DB	0
1575+  267B 02          		.DB	2	;Bit 2 = 04
1576+  267C 04          		.DB	4
1577+  267D 00          		.DB	0
1578+  267E 02          		.DB	2	;Bit 3 = 08
1579+  267F 08          		.DB	8
1580+  2680 00          		.DB	0
1581+  2681 03          		.DB	3	;Bit 4 = 016
1582+  2682 06          		.DB	6
1583+  2683 01          		.DB	1
1584+  2684 00          		.DB	0
1585+  2685 03          		.DB	3	;Bit 5 = 032
1586+  2686 02          		.DB	2
1587+  2687 03          		.DB	3
1588+  2688 00          		.DB	0
1589+  2689 03          		.DB	3	;Bit 6 = 064
1590+  268A 04          		.DB	4
1591+  268B 06          		.DB	6
1592+  268C 00          		.DB	0
1593+  268D 04          		.DB	4	;Bit 7 = 0128
1594+  268E 08          		.DB	8
1595+  268F 02          		.DB	2
1596+  2690 01          		.DB	1
1597+  2691 00          		.DB	0
1598+  2692 04          		.DB	4	;Bit 8 = 0256
1599+  2693 06          		.DB	6
1600+  2694 05          		.DB	5
1601+  2695 02          		.DB	2
1602+  2696 00          		.DB	0
1603+  2697 04          		.DB	4	;Bit 9 = 0512
1604+  2698 02          		.DB	2
1605+  2699 01          		.DB	1
1606+  269A 05          		.DB	5
1607+  269B 00          		.DB	0
1608+  269C 05          		.DB	5	;Bit 10 = 01024
1609+  269D 04          		.DB	4
1610+  269E 02          		.DB	2
1611+  269F 00          		.DB	0
1612+  26A0 01          		.DB	1
1613+  26A1 00          		.DB	0
1614+  26A2 05          		.DB	5	;Bit 11 = 02048
1615+  26A3 08          		.DB	8
1616+  26A4 04          		.DB	4
1617+  26A5 00          		.DB	0
1618+  26A6 02          		.DB	2
1619+  26A7 00          		.DB	0
1620+  26A8 05          		.DB	5	;Bit 12 = 04096
1621+  26A9 06          		.DB	6
1622+  26AA 09          		.DB	9
1623+  26AB 00          		.DB	0
1624+  26AC 04          		.DB	4
1625+  26AD 00          		.DB	0
1626+  26AE 05          		.DB	5	;Bit 13 = 08192
1627+  26AF 02          		.DB	2
1628+  26B0 09          		.DB	9
1629+  26B1 01          		.DB	1
1630+  26B2 08          		.DB	8
1631+  26B3 00          		.DB	0
1632+  26B4 06          		.DB	6	;Bit 14 = 016384
1633+  26B5 04          		.DB	4
1634+  26B6 08          		.DB	8
1635+  26B7 03          		.DB	3
1636+  26B8 06          		.DB	6
1637+  26B9 01          		.DB	1
1638+  26BA 00          		.DB	0
1639+  26BB 06          		.DB	6	;Bit 15 = 032768
1640+  26BC 08          		.DB	8
1641+  26BD 06          		.DB	6
1642+  26BE 07          		.DB	7
1643+  26BF 02          		.DB	2
1644+  26C0 03          		.DB	3
1645+  26C1 00          		.DB	0
1646+  26C2 06          		.DB	6	;Bit 16 = 065536
1647+  26C3 06          		.DB	6
1648+  26C4 03          		.DB	3
1649+  26C5 05          		.DB	5
1650+  26C6 05          		.DB	5
1651+  26C7 06          		.DB	6
1652+  26C8 00          		.DB	0
1653+  26C9 07          		.DB	7	;Bit 17 = 0131072
1654+  26CA 02          		.DB	2
1655+  26CB 07          		.DB	7
1656+  26CC 00          		.DB	0
1657+  26CD 01          		.DB	1
1658+  26CE 03          		.DB	3
1659+  26CF 01          		.DB	1
1660+  26D0 00          		.DB	0
1661+  26D1 07          		.DB	7	;Bit 18 = 0262144
1662+  26D2 04          		.DB	4
1663+  26D3 04          		.DB	4
1664+  26D4 01          		.DB	1
1665+  26D5 02          		.DB	2
1666+  26D6 06          		.DB	6
1667+  26D7 02          		.DB	2
1668+  26D8 00          		.DB	0
1669+  26D9 07          		.DB	7	;Bit 19 = 0524288
1670+  26DA 08          		.DB	8
1671+  26DB 08          		.DB	8
1672+  26DC 02          		.DB	2
1673+  26DD 04          		.DB	4
1674+  26DE 02          		.DB	2
1675+  26DF 05          		.DB	5
1676+  26E0 00          		.DB	0
1677+  26E1 08          		.DB	8	;Bit 20 = 01048576
1678+  26E2 06          		.DB	6
1679+  26E3 07          		.DB	7
1680+  26E4 05          		.DB	5
1681+  26E5 08          		.DB	8
1682+  26E6 04          		.DB	4
1683+  26E7 00          		.DB	0
1684+  26E8 01          		.DB	1
1685+  26E9 00          		.DB	0
1686+  26EA 08          		.DB	8	;Bit 21 = 02097152
1687+  26EB 02          		.DB	2
1688+  26EC 05          		.DB	5
1689+  26ED 01          		.DB	1
1690+  26EE 07          		.DB	7
1691+  26EF 09          		.DB	9
1692+  26F0 00          		.DB	0
1693+  26F1 02          		.DB	2
1694+  26F2 00          		.DB	0
1695+  26F3 08          		.DB	8	;Bit 22 = 04194304
1696+  26F4 04          		.DB	4
1697+  26F5 00          		.DB	0
1698+  26F6 03          		.DB	3
1699+  26F7 04          		.DB	4
1700+  26F8 09          		.DB	9
1701+  26F9 01          		.DB	1
1702+  26FA 04          		.DB	4
1703+  26FB 00          		.DB	0
1704+  26FC 08          		.DB	8	;Bit 23 = 08388608
1705+  26FD 08          		.DB	8
1706+  26FE 00          		.DB	0
1707+  26FF 06          		.DB	6
1708+  2700 08          		.DB	8
1709+  2701 08          		.DB	8
1710+  2702 03          		.DB	3
1711+  2703 08          		.DB	8
1712+  2704 00          		.DB	0
1713+  2705 09          		.DB	9	;Bit 24 = 016777216
1714+  2706 06          		.DB	6
1715+  2707 01          		.DB	1
1716+  2708 02          		.DB	2
1717+  2709 07          		.DB	7
1718+  270A 07          		.DB	7
1719+  270B 07          		.DB	7
1720+  270C 06          		.DB	6
1721+  270D 01          		.DB	1
1722+  270E 00          		.DB	0
1723+  270F 09          		.DB	9	;Bit 25 = 033554432
1724+  2710 02          		.DB	2
1725+  2711 03          		.DB	3
1726+  2712 04          		.DB	4
1727+  2713 04          		.DB	4
1728+  2714 05          		.DB	5
1729+  2715 05          		.DB	5
1730+  2716 03          		.DB	3
1731+  2717 03          		.DB	3
1732+  2718 00          		.DB	0
1733+  2719 09          		.DB	9	;Bit 26 = 067108864
1734+  271A 04          		.DB	4
1735+  271B 06          		.DB	6
1736+  271C 08          		.DB	8
1737+  271D 08          		.DB	8
1738+  271E 00          		.DB	0
1739+  271F 01          		.DB	1
1740+  2720 07          		.DB	7
1741+  2721 06          		.DB	6
1742+  2722 00          		.DB	0
1743+  2723 0A          		.DB	10	;Bit 27 = 0134217728
1744+  2724 08          		.DB	8
1745+  2725 02          		.DB	2
1746+  2726 07          		.DB	7
1747+  2727 07          		.DB	7
1748+  2728 01          		.DB	1
1749+  2729 02          		.DB	2
1750+  272A 04          		.DB	4
1751+  272B 03          		.DB	3
1752+  272C 01          		.DB	1
1753+  272D 00          		.DB	0
1754+  272E 0A          		.DB	10	;Bit 28 = 0268435456
1755+  272F 06          		.DB	6
1756+  2730 05          		.DB	5
1757+  2731 04          		.DB	4
1758+  2732 05          		.DB	5
1759+  2733 03          		.DB	3
1760+  2734 04          		.DB	4
1761+  2735 08          		.DB	8
1762+  2736 06          		.DB	6
1763+  2737 02          		.DB	2
1764+  2738 00          		.DB	0
1765+  2739 0A          		.DB	10	;Bit 29 = 0536870912
1766+  273A 02          		.DB	2
1767+  273B 01          		.DB	1
1768+  273C 09          		.DB	9
1769+  273D 00          		.DB	0
1770+  273E 07          		.DB	7
1771+  273F 08          		.DB	8
1772+  2740 06          		.DB	6
1773+  2741 03          		.DB	3
1774+  2742 05          		.DB	5
1775+  2743 00          		.DB	0
1776+  2744 0A          		.DB	10	;Bit 30 = 1073741824
1777+  2745 04          		.DB	4
1778+  2746 02          		.DB	2
1779+  2747 08          		.DB	8
1780+  2748 01          		.DB	1
1781+  2749 04          		.DB	4
1782+  274A 07          		.DB	7
1783+  274B 03          		.DB	3
1784+  274C 07          		.DB	7
1785+  274D 00          		.DB	0
1786+  274E 01          		.DB	1
1787+  274F 0A          		.DB	10	;Bit 31 = 2147483648
1788+  2750 08          		.DB	8
1789+  2751 04          		.DB	4
1790+  2752 06          		.DB	6
1791+  2753 03          		.DB	3
1792+  2754 08          		.DB	8
1793+  2755 04          		.DB	4
1794+  2756 07          		.DB	7
1795+  2757 04          		.DB	4
1796+  2758 01          		.DB	1
1797+  2759 02          		.DB	2
1798+  275A             				;Bit 32 = 4294967296  (Largest number +1)
1799+  275A             
1800+  275A             
1801+  275A             
1802+  275A             
1803+  275A 36 69       EF_DUMP		B3	GO3
1804+  275C D4          		PRINT
1804+  275D 22 80       
1805+  275F 4546332D4F46		.TEXT	"EF3-OFF\000"
1805+  2765 4600
1806+  2767 30 73       		BR	GOE3
1807+  2769 D4          GO3		PRINT
1807+  276A 22 80       
1808+  276C 4546332D4F4E		.TEXT	"EF3-ON\000"
1808+  2772 00
1809+  2773             GOE3
1810+  2773 37 83       		B4	GO4
1811+  2775 D4          		PRINT
1811+  2776 22 80       
1812+  2778 204546342D4F		.TEXT	" EF4-OFF\000"
1812+  277E 464600
1813+  2781 30 8E       		BR	GOE4
1814+  2783 D4          GO4		PRINT
1814+  2784 22 80       
1815+  2786 204546342D4F		.TEXT	" EF4-ON\000"
1815+  278C 4E00
1816+  278E             GOE4
1817+  278E D4          		CALL	NEWLINE
1817+  278F 22 60       
1818+  2791 30 5A       		BR	EF_DUMP
1819+  2793             
1820+  2793             
2863   2793             		#INCLUDE "AEVIP-PP.ASM"	;PIXIE PRINT ROUTINES
0001+  2800             	NEWPAGE
0002+  2800             
0003+  2800             ;VIDEO PAGE AT RA SHIFTS LEFT 1 BIT
0004+  2800             ;	
0005+  2800 EA          SHIFTPAGE_LEFT	SEX	RA
0006+  2801 F8 FF       		LDI	0FFh	;START AT LOWER RIGHT CORNER
0007+  2803 AA          		PLO	RA
0008+  2804 8A          SPL_LP		GLO	RA	;Fetch bit from left side
0009+  2805 AF          		PLO	RF	
0010+  2806 FF 07       		SMI	7
0011+  2808 AA          		PLO	RA
0012+  2809 0A          		LDN	RA
0013+  280A 52          		STR	R2	;Save bit on stack
0014+  280B 8F          		GLO	RF
0015+  280C AA          		PLO	RA	;Restore A
0016+  280D 02          		LDN	R2
0017+  280E 7E          		SHLC
0018+  280F F0          		LDX
0019+  2810 7E          		SHLC
0020+  2811 73          		STXD		;Update Byte 7
0021+  2812 F0          		LDX
0022+  2813 7E          		SHLC
0023+  2814 73          		STXD		;Update Byte 6
0024+  2815 F0          		LDX
0025+  2816 7E          		SHLC
0026+  2817 73          		STXD		;Update Byte 5
0027+  2818 F0          		LDX
0028+  2819 7E          		SHLC
0029+  281A 73          		STXD		;Update Byte 4
0030+  281B F0          		LDX
0031+  281C 7E          		SHLC
0032+  281D 73          		STXD		;Update Byte 3
0033+  281E F0          		LDX
0034+  281F 7E          		SHLC
0035+  2820 73          		STXD		;Update Byte 2
0036+  2821 F0          		LDX
0037+  2822 7E          		SHLC
0038+  2823 73          		STXD		;Update Byte 1
0039+  2824 8A          		GLO	RA
0040+  2825 32 2C       		BZ	SPL_EX
0041+  2827 F0          		LDX
0042+  2828 7E          		SHLC
0043+  2829 73          		STXD		;Update Byte 0
0044+  282A 30 04       		BR	SPL_LP
0045+  282C             
0046+  282C F0          SPL_EX		LDX
0047+  282D 7E          		SHLC
0048+  282E 73          		STXD		;Update Byte 0 of TOP line
0049+  282F 60          		IRX		;
0050+  2830 D5          		RETN
0051+  2831             
0052+  2831             
0053+  2831             ;Copy left column of page RB to right column of page RA
0054+  2831 F8 F8       COPYPAGECOL_LR	LDI	0F8h	
0055+  2833 AB          		PLO	RB
0056+  2834 F8 FF       		LDI	0FFh
0057+  2836 AA          		PLO	RA
0058+  2837             
0059+  2837 0B          CPC_LR_LP	LDN	RB
0060+  2838 FE          		SHL
0061+  2839 0A          		LDN	RA
0062+  283A F9 01       		ORI	1
0063+  283C 33 40       		BDF	CPC_LR_0
0064+  283E FB 01       		XRI	1
0065+  2840 5A          CPC_LR_0	STR	RA
0066+  2841 8B          		GLO	RB
0067+  2842 32 4D       		BZ	CPC_LR_RET
0068+  2844 FF 08       		SMI	8
0069+  2846 AB          		PLO	RB
0070+  2847 8A          		GLO	RA
0071+  2848 FF 08       		SMI	8
0072+  284A AA          		PLO	RA
0073+  284B 30 37       		BR	CPC_LR_LP
0074+  284D D5          CPC_LR_RET	RETN				
0075+  284E             
0076+  284E             ;Copy left column of page RB to left column of page RA
0077+  284E F8 F8       COPYPAGECOL_LL	LDI	0F8h	
0078+  2850 AB          		PLO	RB
0079+  2851 AA          		PLO	RA
0080+  2852             
0081+  2852 0B          CPC_LL_LP	LDN	RB
0082+  2853 FE          		SHL
0083+  2854 0A          		LDN	RA
0084+  2855 F9 80       		ORI	80h
0085+  2857 33 5B       		BDF	CPC_LL_0
0086+  2859 FB 80       		XRI	80h
0087+  285B 5A          CPC_LL_0	STR	RA
0088+  285C 8B          		GLO	RB
0089+  285D 32 4D       		BZ	CPC_LR_RET
0090+  285F FF 08       		SMI	8
0091+  2861 AB          		PLO	RB
0092+  2862 AA          		PLO	RA
0093+  2863 30 52       		BR	CPC_LL_LP
0094+  2865             
0095+  2865             
0096+  2865             ;SHIFT PRINT PAGE INTO VIDEO PAGE
0097+  2865 F8 40       DOPAGELEFT	LDI	64
0098+  2867 AC          		PLO	RC
0099+  2868 D4          DPL_LP		LDD	VIDEO_PAGE
0099+  2869 23 28       
0099+  286B FF 00       
0100+  286D BA          		PHI	RA
0101+  286E D4          		LDD	PRINT_PAGE
0101+  286F 23 28       
0101+  2871 FF 01       
0102+  2873 BB          		PHI	RB
0103+  2874 D4          		CALL	SHIFTPAGE_LEFT		;Shift Video Page Left
0103+  2875 28 00       
0104+  2877 D4          		CALL	COPYPAGECOL_LR
0104+  2878 28 31       
0105+  287A D4          		LDD	PRINT_PAGE
0105+  287B 23 28       
0105+  287D FF 01       
0106+  287F BA          		PHI	RA
0107+  2880 D4          		CALL	SHIFTPAGE_LEFT		;Shift PRINT Page Left
0107+  2881 28 00       
0108+  2883 2C          		DEC	RC
0109+  2884 8C          		GLO	RC
0110+  2885 3A 68       		BNZ	DPL_LP
0111+  2887 D5          		RETN
0112+  2888             	
0113+  2888             	
0114+  2900             	NEWPAGE
0115+  2900             ;**********************************************************************
0116+  2900             ;PIXIE PRINT Draw Character
0117+  2900             ;Input Parameters:
0118+  2900             ;D = char
0119+  2900             ;PIXIE_ROW = 0, 1, 2, 3, 4.  
0120+  2900             ;PIXIE_COL = 0 to 63 (PIXEL POSITION)
0121+  2900             ;Uses/Destroys these registers
0122+  2900             ;RA = address of character to draw
0123+  2900             ;RD = SCREEN POINTER
0124+  2900             ;RE = TEMP, HOLD & COUNTER
0125+  2900             ;----------------------------------------------------------------------
0126+  2900 E2          		SEX	R2		;CAUSE PRINTC TO NOT HAVE 00 IN ADDRESS, NECESSARY FOR STORE_STRING
0127+  2901 73          PRINTC		STXD
0128+  2902 9A          		GHI	RA
0129+  2903 73          		STXD
0130+  2904 8A          		GLO	RA
0131+  2905 73          		STXD
0132+  2906 9D          		GHI	RD
0133+  2907 73          		STXD
0134+  2908 8D          		GLO	RD
0135+  2909 73          		STXD
0136+  290A 9F          		GHI	RF		;Restore D
0137+  290B             		
0138+  290B FF 0A       		SMI	0Ah		
0139+  290D 3B 26       		BNF	PRINTC_RET	;Jump if char < 0A
0140+  290F 3A 31       		BNZ	PRINTC_1	;Jump if NOT 0A
0141+  2911 D4          PRINTC_LF	STD	PIXIE_COL	;Zero Column
0141+  2912 23 21       
0141+  2914 FF A8       
0142+  2916 D4          		LDD	PIXIE_ROW	;CASE 0A (LF)
0142+  2917 23 28       
0142+  2919 FF A7       
0143+  291B FF 04       		SMI	4		;Increment ROW if <4
0144+  291D 33 26       		BDF	PRINTC_RET
0145+  291F FC 05       		ADI	5
0146+  2921 D4          		STD	PIXIE_ROW
0146+  2922 23 21       
0146+  2924 FF A7       
0147+  2926 60          PRINTC_RET	IRX
0148+  2927 72          		LDXA
0149+  2928 AD          		PLO	RD
0150+  2929 72          		LDXA
0151+  292A BD          		PHI	RD
0152+  292B 72          		LDXA
0153+  292C AA          		PLO	RA
0154+  292D 72          		LDXA
0155+  292E BA          		PHI	RA
0156+  292F F0          		LDX
0157+  2930 D5          		RETN
0158+  2931             					;D = Char - 0A
0159+  2931 FF 03       PRINTC_1	SMI	0Dh-0Ah
0160+  2933 3B 26       		BNF	PRINTC_RET	;Jump if Char < 0Dh
0161+  2935 3A 3E       		BNZ	PRINTC_2	;Jump if NOT 0Dh
0162+  2937 D4          		STD	PIXIE_COL	;Zero Column
0162+  2938 23 21       
0162+  293A FF A8       
0163+  293C 30 26       		BR	PRINTC_RET
0164+  293E             		
0165+  293E FF 13       PRINTC_2	SMI	20h-0Dh
0166+  2940 3B 26       		BNF	PRINTC_RET	;Jump if Char < 20h
0167+  2942 AE          		PLO	RE		;SAVE Char-20h INTO INDEX
0168+  2943 FF 41       		SMI	61h-20h
0169+  2945 3B 58       		BNF	PRINTC_VALID	;Jump if Char < 61h
0170+  2947 FC 21       		ADI	21h
0171+  2949 AE          		PLO	RE		;SAVE Char-40h INTO INDEX (lower case to upper case)
0172+  294A FF 3B       		SMI	1Ah+21h
0173+  294C 3B 58       		BNF	PRINTC_VALID	;Jump if Char < 7Bh
0174+  294E FC 41       		ADI	41h
0175+  2950 AE          		PLO	RE
0176+  2951 FF 45       		SMI	45h
0177+  2953 3B 58       		BNF	PRINTC_VALID	;Jump if Char < 7Fh
0178+  2955 F8 45       		LDI	45h		;Default Truckn char
0179+  2957 AE          		PLO	RE
0180+  2958             		
0181+  2958 F8 2B       PRINTC_VALID	LDI	FONTIDX/256
0182+  295A BE          		PHI	RE
0183+  295B 0E          		LDN	RE		;FETCH FONT START ADDRESS
0184+  295C AA          		PLO	RA
0185+  295D F8 2A       		LDI	FONT/256
0186+  295F BA          		PHI	RA
0187+  2960             		
0188+  2960             		;Drop into Draw Charcter....
0189+  2960             
0190+  2960             ;**********************************************************************
0191+  2960             ;PIXIE PRINT Draw Character
0192+  2960             ;Input Parameters:
0193+  2960             ;M(VIDEO_PAGE) = Page of Video Screen
0194+  2960             ;RA = address of character to draw
0195+  2960             ;PIXIE_ROW = 0, 1, 2, 3, 4.  
0196+  2960             ;PIXIE_COL = 0 to 63 (PIXEL POSITION)
0197+  2960             ;Uses/Destroys these registers
0198+  2960             ;RD = SCREEN POINTER
0199+  2960             ;RE = TEMP, HOLD & COUNTER
0200+  2960             ;----------------------------------------------------------------------
0201+  2960 D4          PPRINT:		LDD	PIXIE_COL	;(RE Nuked)
0201+  2961 23 28       
0201+  2963 FF A8       
0202+  2965 AD          		PLO	RD		;Save PIXIE_COL
0203+  2966 FA 40       		ANI	40h		;CHECK FOR END OF LINE
0204+  2968 3A C2       		BNZ	PPRINT_RET	;EXIT IF END OF LINE REACHED
0205+  296A D4          		LDD	PRINT_PAGE	;(RE Nuked)
0205+  296B 23 28       
0205+  296D FF 01       
0206+  296F BD          		PHI	RD		;RD = SCREEN LOCATION OF TOP ROW OF FONT PIXELS	
0207+  2970 D4          		LDD	PIXIE_ROW	;FETCH ROW (RE Nuked)
0207+  2971 23 28       
0207+  2973 FF A7       
0208+  2975 F9 08       		ORI	08		;OFFSET 8 INTO TABLE For start address of ROW
0209+  2977 AE          		PLO	RE
0210+  2978 F8 2A       		LDI	ROWTABLE/256	;M(RX)=Column Mask
0211+  297A BE          		PHI	RE
0212+  297B 0E          		LDN	RE		;Get from Table start Display Address for ROW
0213+  297C 52          		STR	R2		;SAVE AT M(RX) (later add in Column)
0214+  297D 8D          		GLO	RD		;GET PIXEL COL POSITION
0215+  297E FA 07       		ANI	07
0216+  2980 AE          		PLO	RE		;PIXEL Bit Postition
0217+  2981 8D          		GLO	RD		;GET PIXEL POSITION
0218+  2982 AF          		PLO	RF		;Temp COLUMN pointer
0219+  2983 F6          		SHR			;>>3 FOR BYTE POSITION
0220+  2984 F6          		SHR
0221+  2985 F6          		SHR			;GET BYTE POSITION
0222+  2986 F4          		ADD			;D = ROW + BYTE POSITION
0223+  2987 AD          		PLO	RD		;RD now = Screen Location
0224+  2988             		
0225+  2988             
0226+  2988 0E          		LDN	RE		;Fetch Bit Mask
0227+  2989 52          PPRINT_LOOP1:	STR	R2		;SAVE AT M(RX)
0228+  298A             
0229+  298A 4A          		LDA	RA		;FETCH COLUMN OF FONT PIXELS
0230+  298B BE          		PHI	RE		;SAVE FOR SHIFTING THROUGH DF
0231+  298C             
0232+  298C F8 05       		LDI	5		;COUNT DOWN 5 ROWS OF FONT PIXELS
0233+  298E AE          		PLO	RE
0234+  298F             
0235+  298F             		
0236+  298F 9E          PPRINT_LOOP2:	GHI	RE		;SHIFT COLOMN OF FONT INTO DF
0237+  2990 F6          		SHR			;SHIFT PIXEL INTO DF
0238+  2991 BE          		PHI	RE
0239+  2992             		
0240+  2992 0D          		LDN	RD		;GET SCREEN BYTE
0241+  2993 F1          		OR			;SET PIXEL
0242+  2994 33 97       		BDF	PPRINT_1
0243+  2996 F3          		XOR			;CLEAR PIXEL
0244+  2997             		
0245+  2997 5D          PPRINT_1:	STR	RD		;UPDATE SCREEN BYTE
0246+  2998             
0247+  2998 8D          		GLO	RD		;ADVANCE TO NEXT ROW OF PIXELS
0248+  2999 FC 08       		ADI	8
0249+  299B AD          		PLO	RD
0250+  299C             		
0251+  299C 2E          		DEC	RE
0252+  299D 8E          		GLO	RE
0253+  299E 3A 8F       		BNZ	PPRINT_LOOP2
0254+  29A0             		
0255+  29A0 1F          		INC	RF		;ADVANCE TO NEXT POSITION
0256+  29A1 8F          		GLO	RF
0257+  29A2 FA 40       		ANI	40h		;CHECK FOR END OF LINE
0258+  29A4 3A BC       		BNZ	PPRINT_END	;EXIT IF END OF LINE REACHED
0259+  29A6             
0260+  29A6 9E          		GHI	RE		;COLUMN OF FONT PATTERN (SHIFTED)
0261+  29A7 32 B0       		BZ	PPRINT_CONT	;LOOP BACK TO PRINT NEXT COLUMN IF 000XXXXXh
0262+  29A9 FF 01       		SMI	1
0263+  29AB 3A BC       		BNZ	PPRINT_END	;EXIT IF GAP PRINTED 111XXXXXh
0264+  29AD F8 0F       		LDI	FEND%256	;POINT TO END 1110000h
0265+  29AF AA          		PLO	RA
0266+  29B0             
0267+  29B0 8D          PPRINT_CONT	GLO	RD		;RETURN TO TOP ROW OF PIXELS
0268+  29B1 FF 28       		SMI	28h
0269+  29B3 AD          		PLO	RD
0270+  29B4 02          		LDN	R2		;FETCH COL MASK AND SHIFT TO NEXT COL
0271+  29B5 F6          		SHR			;0->D->DF
0272+  29B6 3B 89       		BNF	PPRINT_LOOP1	
0273+  29B8 1D          		INC	RD		;IF BIT OUT SET, MOVE TO NEXT BYTE
0274+  29B9 76          		SHRC
0275+  29BA 30 89       		BR	PPRINT_LOOP1
0276+  29BC             
0277+  29BC 8F          PPRINT_END	GLO	RF
0278+  29BD D4          		STD	PIXIE_COL
0278+  29BE 23 21       
0278+  29C0 FF A8       
0279+  29C2 30 26       PPRINT_RET	BR	PRINTC_RET
0280+  29C4             
0281+  29C4             
0282+  29C4             
0283+  29C4             
0284+  29C4             
0285+  29C4             
0286+  29C4             
0287+  29C4             
0288+  29C4             
0289+  29C4             
0290+  29C4             
0291+  2A00             	NEWPAGE
0292+  2A00 80          ROWTABLE:	.DB	10000000b	;Bit map for quick mask		
0293+  2A01 40          		.DB	01000000b		
0294+  2A02 20          		.DB	00100000b		
0295+  2A03 10          		.DB	00010000b		
0296+  2A04 08          		.DB	00001000b		
0297+  2A05 04          		.DB	00000100b		
0298+  2A06 02          		.DB	00000010b		
0299+  2A07 01          		.DB	00000001b		
0300+  2A08 00          		.DB	00		;Start Video Address for ROW 0
0301+  2A09 30          		.DB	30h		;ROW 1
0302+  2A0A 60          		.DB	60h		;ROW 2
0303+  2A0B 90          		.DB	90h		;ROW 3
0304+  2A0C C0          		.DB	0C0h		;ROW 4
0305+  2A0D             
0306+  2A0D             
0307+  2A0D             Font:			;~200 BYTES
0308+  2A0D 00          FSPACE	.db  00000000b ;0
0309+  2A0E 00          	.db  00000000b
0310+  2A0F E0          FEND	.db  11100000b	;SPECIAL BYTE TO END CHAR FONT WITH A SPACE
0311+  2A10 37          FEXCL	.db  00110111b ;!
0312+  2A11 03          FDQUO	.db  00000011b ;"
0313+  2A12 23          	.db  00100011b
0314+  2A13 0A          FHASH	.db  00001010b ;#
0315+  2A14 1F          	.db  00011111b
0316+  2A15 0A          	.db  00001010b
0317+  2A16 1F          	.db  00011111b
0318+  2A17 2A          	.db  00101010b
0319+  2A18 14          FDOL	.db  00010100b ;$
0320+  2A19 1F          	.db  00011111b
0321+  2A1A 2A          	.db  00101010b
0322+  2A1B 13          FPER	.db  00010011b ;%
0323+  2A1C 0B          	.db  00001011b
0324+  2A1D 04          	.db  00000100b
0325+  2A1E 1A          	.db  00011010b
0326+  2A1F 39          	.db  00111001b
0327+  2A20             
0328+  2A20 0A          FAMP	.db  00001010b ;&
0329+  2A21 15          	.db  00010101b
0330+  2A22 0A          	.db  00001010b
0331+  2A23 30          	.db  00110000b
0332+  2A24             
0333+  2A24 23          FSQUO	.db  00100011b ;'
0334+  2A25 0E          FOPAR	.db  00001110b ;(
0335+  2A26 31          	.db  00110001b
0336+  2A27 11          FCPAR	.db  00010001b ;)
0337+  2A28 2E          	.db  00101110b
0338+  2A29 15          FAST	.db  00010101b ;*
0339+  2A2A 0E          	.db  00001110b
0340+  2A2B 1F          	.db  00011111b
0341+  2A2C 0E          	.db  00001110b
0342+  2A2D 35          	.db  00110101b
0343+  2A2E 04          FPLUS	.db  00000100b ;+
0344+  2A2F 0E          	.db  00001110b
0345+  2A30 24          	.db  00100100b
0346+  2A31 10          FCOMA	.db  00010000b ;,
0347+  2A32 28          	.db  00101000b
0348+  2A33 04          FMINUS	.db  00000100b ;-
0349+  2A34 04          	.db  00000100b
0350+  2A35 24          	.db  00100100b
0351+  2A36 30          FPERIOD	.db  00110000b ;.
0352+  2A37 10          FFSLASH	.db  00010000b ;/
0353+  2A38 08          	.db  00001000b
0354+  2A39 04          	.db  00000100b
0355+  2A3A 02          	.db  00000010b
0356+  2A3B 21          	.db  00100001b
0357+  2A3C 1F          F0	.db  00011111b ;0
0358+  2A3D 11          	.db  00010001b
0359+  2A3E 3F          	.db  00111111b
0360+  2A3F 02          F1	.db  00000010b ;1
0361+  2A40 1F          	.db  00011111b
0362+  2A41 20          	.db  00100000b
0363+  2A42 1D          F2	.db  00011101b ;2
0364+  2A43 15          	.db  00010101b
0365+  2A44 37          	.db  00110111b
0366+  2A45 15          F3	.db  00010101b ;3
0367+  2A46 15          	.db  00010101b
0368+  2A47 3F          	.db  00111111b
0369+  2A48 07          F4	.db  00000111b ;4
0370+  2A49 04          	.db  00000100b
0371+  2A4A 3F          	.db  00111111b
0372+  2A4B 17          F5	.db  00010111b ;5
0373+  2A4C 15          	.db  00010101b
0374+  2A4D 3D          	.db  00111101b
0375+  2A4E 1F          F6	.db  00011111b ;6
0376+  2A4F 14          	.db  00010100b
0377+  2A50 3C          	.db  00111100b
0378+  2A51 01          F7	.db  00000001b ;7
0379+  2A52 01          	.db  00000001b
0380+  2A53 3F          	.db  00111111b
0381+  2A54 1F          F8	.db  00011111b ;8
0382+  2A55 15          	.db  00010101b
0383+  2A56 3F          	.db  00111111b
0384+  2A57 07          F9	.db  00000111b ;9
0385+  2A58 05          	.db  00000101b
0386+  2A59 3F          	.db  00111111b
0387+  2A5A 2A          FCOL	.db  00101010b ;:
0388+  2A5B 10          FSCOL	.db  00010000b ;;
0389+  2A5C 2A          	.db  00101010b ;
0390+  2A5D 04          FLESST	.db  00000100b ;<
0391+  2A5E 0A          	.db  00001010b
0392+  2A5F 31          	.db  00110001b
0393+  2A60 0A          FEQU	.db  00001010b ;=
0394+  2A61 0A          	.db  00001010b
0395+  2A62 2A          	.db  00101010b
0396+  2A63 11          FGREATT	.db  00010001b ;>
0397+  2A64 0A          	.db  00001010b
0398+  2A65 24          	.db  00100100b
0399+  2A66 02          FQUES	.db  00000010b ;?
0400+  2A67 19          	.db  00011001b
0401+  2A68 26          	.db  00100110b	
0402+  2A69 0E          FATT	.db  00001110b ;@
0403+  2A6A 01          	.db  00000001b
0404+  2A6B 1D          	.db  00011101b
0405+  2A6C 15          	.db  00010101b
0406+  2A6D 3E          	.db  00111110b
0407+  2A6E 1E          FA	.db  00011110b ;A
0408+  2A6F 05          	.db  00000101b
0409+  2A70 3E          	.db  00111110b
0410+  2A71 1F          FB	.db  00011111b ;B
0411+  2A72 15          	.db  00010101b
0412+  2A73 2A          	.db  00101010b
0413+  2A74 0E          FC	.db  00001110b ;C
0414+  2A75 11          	.db  00010001b
0415+  2A76 2A          	.db  00101010b
0416+  2A77 1F          FD	.db  00011111b ;D
0417+  2A78 11          	.db  00010001b
0418+  2A79 2E          	.db  00101110b
0419+  2A7A 1F          FE	.db  00011111b ;E
0420+  2A7B 15          	.db  00010101b
0421+  2A7C 31          	.db  00110001b
0422+  2A7D 1F          FF	.db  00011111b ;F
0423+  2A7E 05          	.db  00000101b
0424+  2A7F 21          	.db  00100001b
0425+  2A80 0E          FG	.db  00001110b ;G
0426+  2A81 11          	.db  00010001b
0427+  2A82 15          	.db  00010101b
0428+  2A83 2D          	.db  00101101b
0429+  2A84 1F          FH	.db  00011111b ;H
0430+  2A85 04          	.db  00000100b
0431+  2A86 3F          	.db  00111111b
0432+  2A87 11          FI	.db  00010001b ;I
0433+  2A88 1F          	.db  00011111b
0434+  2A89 31          	.db  00110001b
0435+  2A8A 08          FJ	.db  00001000b ;J
0436+  2A8B 10          	.db  00010000b
0437+  2A8C 2F          	.db  00101111b
0438+  2A8D 1F          FK	.db  00011111b ;K
0439+  2A8E 0A          	.db  00001010b
0440+  2A8F 31          	.db  00110001b
0441+  2A90 1F          FL	.db  00011111b ;L
0442+  2A91 10          	.db  00010000b
0443+  2A92 30          	.db  00110000b
0444+  2A93 1F          FM	.db  00011111b ;M
0445+  2A94 02          	.db  00000010b
0446+  2A95 04          	.db  00000100b
0447+  2A96 02          	.db  00000010b
0448+  2A97 3F          	.db  00111111b
0449+  2A98 1F          FN	.db  00011111b ;N
0450+  2A99 02          	.db  00000010b
0451+  2A9A 04          	.db  00000100b
0452+  2A9B 08          	.db  00001000b
0453+  2A9C 3F          	.db  00111111b
0454+  2A9D 0E          FO	.db  00001110b ;O
0455+  2A9E 11          	.db  00010001b
0456+  2A9F 2E          	.db  00101110b
0457+  2AA0 1F          FP	.db  00011111b ;P
0458+  2AA1 05          	.db  00000101b
0459+  2AA2 22          	.db  00100010b
0460+  2AA3 0E          FQ	.db  00001110b ;Q
0461+  2AA4 11          	.db  00010001b
0462+  2AA5 19          	.db  00011001b
0463+  2AA6 3E          	.db  00111110b
0464+  2AA7 1F          FR	.db  00011111b ;R
0465+  2AA8 05          	.db  00000101b
0466+  2AA9 3A          	.db  00111010b
0467+  2AAA 12          FS	.db  00010010b ;S
0468+  2AAB 15          	.db  00010101b
0469+  2AAC 29          	.db  00101001b
0470+  2AAD 01          FT	.db  00000001b ;T
0471+  2AAE 1F          	.db  00011111b
0472+  2AAF 21          	.db  00100001b
0473+  2AB0 1F          FU	.db  00011111b ;U
0474+  2AB1 10          	.db  00010000b
0475+  2AB2 3F          	.db  00111111b
0476+  2AB3 0F          FV	.db  00001111b ;V
0477+  2AB4 10          	.db  00010000b
0478+  2AB5 2F          	.db  00101111b
0479+  2AB6 1F          FW	.db  00011111b ;W
0480+  2AB7 08          	.db  00001000b
0481+  2AB8 04          	.db  00000100b
0482+  2AB9 08          	.db  00001000b
0483+  2ABA 3F          	.db  00111111b
0484+  2ABB 11          FX	.db  00010001b ;X
0485+  2ABC 0A          	.db  00001010b
0486+  2ABD 04          	.db  00000100b
0487+  2ABE 0A          	.db  00001010b
0488+  2ABF 31          	.db  00110001b
0489+  2AC0 03          FY	.db  00000011b ;Y
0490+  2AC1 1C          	.db  00011100b
0491+  2AC2 23          	.db  00100011b
0492+  2AC3 19          FZ	.db  00011001b ;Z
0493+  2AC4 15          	.db  00010101b
0494+  2AC5 33          	.db  00110011b
0495+  2AC6 1F          FOBRACK	.db  00011111b ;[
0496+  2AC7 31          	.db  00110001b
0497+  2AC8 01          FBSLASH	.db  00000001b ;\
0498+  2AC9 02          	.db  00000010b
0499+  2ACA 04          	.db  00000100b
0500+  2ACB 08          	.db  00001000b
0501+  2ACC 30          	.db  00110000b
0502+  2ACD 11          FCBRACK	.db  00010001b ;]
0503+  2ACE 3F          	.db  00111111b
0504+  2ACF 02          FCARROT	.db  00000010b ;^
0505+  2AD0 01          	.db  00000001b
0506+  2AD1 22          	.db  00100010b
0507+  2AD2 10          FUSCORE	.db  00010000b ;_
0508+  2AD3 10          	.db  00010000b
0509+  2AD4 30          	.db  00110000b
0510+  2AD5 01          FRQUOTE	.db  00000001b ;`
0511+  2AD6 22          	.db  00100010b
0512+  2AD7 04          FOBRACE	.db  00000100b ;{
0513+  2AD8 1B          	.db  00011011b
0514+  2AD9 31          	.db  00110001b
0515+  2ADA 3B          FBAR	.db  00111011b ;|
0516+  2ADB 11          FCBRACE	.db  00010001b ;}
0517+  2ADC 1B          	.db  00011011b
0518+  2ADD 24          	.db  00100100b
0519+  2ADE 02          FTILD	.db  00000010b ;~
0520+  2ADF 01          	.db  00000001b
0521+  2AE0 02          	.db  00000010b
0522+  2AE1 21          	.db  00100001b
0523+  2AE2 02          FTRUCKN	.db  00000010b ;&
0524+  2AE3 0B          	.db  00001011b
0525+  2AE4 05          	.db  00000101b
0526+  2AE5 1A          	.db  00011010b
0527+  2AE6 30          	.db  00110000b
0528+  2AE7             
0529+  2AE7             
0530+  2B00             	NEWPAGE
0531+  2B00             FONTIDX:
0532+  2B00 0D          	.DB	FSPACE%256	;ASCII 20h  Indexed 00
0533+  2B01 10          	.DB	FEXCL%256
0534+  2B02 11          	.DB	FDQUO%256
0535+  2B03 13          	.DB	FHASH%256
0536+  2B04 18          	.DB	FDOL%256
0537+  2B05 1B          	.DB	FPER%256
0538+  2B06 20          	.DB	FAMP%256
0539+  2B07 24          	.DB	FSQUO%256
0540+  2B08 25          	.DB	FOPAR%256
0541+  2B09 27          	.DB	FCPAR%256
0542+  2B0A 29          	.DB	FAST%256
0543+  2B0B 2E          	.DB	FPLUS%256
0544+  2B0C 31          	.DB	FCOMA%256
0545+  2B0D 33          	.DB	FMINUS%256
0546+  2B0E 36          	.DB	FPERIOD%256
0547+  2B0F 37          	.DB	FFSLASH%256
0548+  2B10 3C          	.DB	F0%256		;ASCII 30h   Indexed 10
0549+  2B11 3F          	.DB	F1%256
0550+  2B12 42          	.DB	F2%256
0551+  2B13 45          	.DB	F3%256
0552+  2B14 48          	.DB	F4%256
0553+  2B15 4B          	.DB	F5%256
0554+  2B16 4E          	.DB	F6%256
0555+  2B17 51          	.DB	F7%256
0556+  2B18 54          	.DB	F8%256
0557+  2B19 57          	.DB	F9%256
0558+  2B1A 5A          	.DB	FCOL%256
0559+  2B1B 5B          	.DB	FSCOL%256
0560+  2B1C 5D          	.DB	FLESST%256
0561+  2B1D 60          	.DB	FEQU%256
0562+  2B1E 63          	.DB	FGREATT%256
0563+  2B1F 66          	.DB	FQUES%256
0564+  2B20 69          	.DB	FATT%256	;ASCII 40h   Indexed 20
0565+  2B21 6E          	.DB	FA%256
0566+  2B22 71          	.DB	FB%256
0567+  2B23 74          	.DB	FC%256
0568+  2B24 77          	.DB	FD%256
0569+  2B25 7A          	.DB	FE%256
0570+  2B26 7D          	.DB	FF%256
0571+  2B27 80          	.DB	FG%256
0572+  2B28 84          	.DB	FH%256
0573+  2B29 87          	.DB	FI%256
0574+  2B2A 8A          	.DB	FJ%256
0575+  2B2B 8D          	.DB	FK%256
0576+  2B2C 90          	.DB	FL%256
0577+  2B2D 93          	.DB	FM%256
0578+  2B2E 98          	.DB	FN%256
0579+  2B2F 9D          	.DB	FO%256
0580+  2B30 A0          	.DB	FP%256		;ASCII 50h  Indexed 30
0581+  2B31 A3          	.DB	FQ%256
0582+  2B32 A7          	.DB	FR%256
0583+  2B33 AA          	.DB	FS%256
0584+  2B34 AD          	.DB	FT%256
0585+  2B35 B0          	.DB	FU%256
0586+  2B36 B3          	.DB	FV%256
0587+  2B37 B6          	.DB	FW%256
0588+  2B38 BB          	.DB	FX%256
0589+  2B39 C0          	.DB	FY%256
0590+  2B3A C3          	.DB	FZ%256
0591+  2B3B C6          	.DB	FOBRACK%256
0592+  2B3C C8          	.DB	FBSLASH%256
0593+  2B3D CD          	.DB	FCBRACK%256
0594+  2B3E CF          	.DB	FCARROT%256
0595+  2B3F D2          	.DB	FUSCORE%256	;ASCII 5Fh
0596+  2B40 D5          	.DB	FRQUOTE%256	;ASCII 60h Indexed 40
0597+  2B41 D7          	.DB	FOBRACE%256
0598+  2B42 DA          	.DB	FBAR%256
0599+  2B43 DB          	.DB	FCBRACE%256
0600+  2B44 DE          	.DB	FTILD%256	
0601+  2B45 E2          	.DB	FTRUCKN%256	;ASCII Indexed 45
0602+  2B46             
0603+  2B46             
0604+  2C00             	NEWPAGE			;VIDEO PAGES MUST BE ALLIGNED ON PAGE
0605+  2C00             STARSHIP
0606+  2C00 90 B1       	.dw	$90B1
0607+  2C02 B2 B3       	.dw	$B2B3
0608+  2C04 B4 F8       	.dw	$B4F8
0609+  2C06 2D A3       	.dw	$2DA3
0610+  2C08 F8 3F       	.dw	$F83F
0611+  2C0A A2 F8       	.dw	$A2F8
0612+  2C0C 11 A1       	.dw	$11A1
0613+  2C0E D3 72       	.dw	$D372
0614+  2C10 70 22       	.dw	$7022
0615+  2C12 78 22       	.dw	$7822
0616+  2C14 52 C4       	.dw	$52C4
0617+  2C16 C4 C4       	.dw	$C4C4
0618+  2C18 F8 00       	.dw	$F800
0619+  2C1A B0 F8       	.dw	$B0F8
0620+  2C1C 00 A0       	.dw	$00A0
0621+  2C1E 80 E2       	.dw	$80E2
0622+  2C20 E2 20       	.dw	$E220
0623+  2C22 A0 E2       	.dw	$A0E2
0624+  2C24 20 A0       	.dw	$20A0
0625+  2C26 E2 20       	.dw	$E220
0626+  2C28 A0 3C       	.dw	$A03C
0627+  2C2A 1E 30       	.dw	$1E30
0628+  2C2C 0F E2       	.dw	$0FE2
0629+  2C2E 69 3F       	.dw	$693F
0630+  2C30 2F 6C       	.dw	$2F6C
0631+  2C32 A4 37       	.dw	$A437
0632+  2C34 33 3F       	.dw	$333F
0633+  2C36 35 6C       	.dw	$356C
0634+  2C38 54 14       	.dw	$5414
0635+  2C3A 30 33       	.dw	$3033
0636+  2C3C 00 00       	.dw	$0000
0637+  2C3E 00 00       	.dw	$0000
0638+  2C40 00 00       	.dw	$0000
0639+  2C42 00 00       	.dw	$0000
0640+  2C44 00 00       	.dw	$0000
0641+  2C46 00 00       	.dw	$0000
0642+  2C48 00 00       	.dw	$0000
0643+  2C4A 00 00       	.dw	$0000
0644+  2C4C 00 00       	.dw	$0000
0645+  2C4E 00 00       	.dw	$0000
0646+  2C50 7B DE       	.dw	$7BDE
0647+  2C52 DB DE       	.dw	$DBDE
0648+  2C54 00 00       	.dw	$0000
0649+  2C56 00 00       	.dw	$0000
0650+  2C58 4A 50       	.dw	$4A50
0651+  2C5A DA 52       	.dw	$DA52
0652+  2C5C 00 00       	.dw	$0000
0653+  2C5E 00 00       	.dw	$0000
0654+  2C60 42 5E       	.dw	$425E
0655+  2C62 AB D0       	.dw	$ABD0
0656+  2C64 00 00       	.dw	$0000
0657+  2C66 00 00       	.dw	$0000
0658+  2C68 4A 42       	.dw	$4A42
0659+  2C6A 8A 52       	.dw	$8A52
0660+  2C6C 00 00       	.dw	$0000
0661+  2C6E 00 00       	.dw	$0000
0662+  2C70 7B DE       	.dw	$7BDE
0663+  2C72 8A 5E       	.dw	$8A5E
0664+  2C74 00 00       	.dw	$0000
0665+  2C76 00 00       	.dw	$0000
0666+  2C78 00 00       	.dw	$0000
0667+  2C7A 00 00       	.dw	$0000
0668+  2C7C 00 00       	.dw	$0000
0669+  2C7E 00 00       	.dw	$0000
0670+  2C80 00 00       	.dw	$0000
0671+  2C82 00 00       	.dw	$0000
0672+  2C84 00 00       	.dw	$0000
0673+  2C86 07 E0       	.dw	$07E0
0674+  2C88 00 00       	.dw	$0000
0675+  2C8A 00 00       	.dw	$0000
0676+  2C8C FF FF       	.dw	$FFFF
0677+  2C8E FF FF       	.dw	$FFFF
0678+  2C90 00 06       	.dw	$0006
0679+  2C92 00 01       	.dw	$0001
0680+  2C94 00 00       	.dw	$0000
0681+  2C96 00 01       	.dw	$0001
0682+  2C98 00 7F       	.dw	$007F
0683+  2C9A E0 01       	.dw	$E001
0684+  2C9C 00 00       	.dw	$0000
0685+  2C9E 00 02       	.dw	$0002
0686+  2CA0 7F C0       	.dw	$7FC0
0687+  2CA2 3F E0       	.dw	$3FE0
0688+  2CA4 FC FF       	.dw	$FCFF
0689+  2CA6 FF FE       	.dw	$FFFE
0690+  2CA8 40 0F       	.dw	$400F
0691+  2CAA 00 10       	.dw	$0010
0692+  2CAC 04 80       	.dw	$0480
0693+  2CAE 00 00       	.dw	$0000
0694+  2CB0 7F C0       	.dw	$7FC0
0695+  2CB2 3F E0       	.dw	$3FE0
0696+  2CB4 04 80       	.dw	$0480
0697+  2CB6 00 00       	.dw	$0000
0698+  2CB8 00 3F       	.dw	$003F
0699+  2CBA D0 40       	.dw	$D040
0700+  2CBC 04 80       	.dw	$0480
0701+  2CBE 00 00       	.dw	$0000
0702+  2CC0 00 0F       	.dw	$000F
0703+  2CC2 08 20       	.dw	$0820
0704+  2CC4 04 80       	.dw	$0480
0705+  2CC6 7A 1E       	.dw	$7A1E
0706+  2CC8 00 00       	.dw	$0000
0707+  2CCA 07 90       	.dw	$0790
0708+  2CCC 04 80       	.dw	$0480
0709+  2CCE 42 10       	.dw	$4210
0710+  2CD0 00 00       	.dw	$0000
0711+  2CD2 18 7F       	.dw	$187F
0712+  2CD4 FC F0       	.dw	$FCF0
0713+  2CD6 72 1C       	.dw	$721C
0714+  2CD8 00 00       	.dw	$0000
0715+  2CDA 30 00       	.dw	$3000
0716+  2CDC 00 10       	.dw	$0010
0717+  2CDE 42 10       	.dw	$4210
0718+  2CE0 00 00       	.dw	$0000
0719+  2CE2 73 FC       	.dw	$73FC
0720+  2CE4 00 10       	.dw	$0010
0721+  2CE6 7B D0       	.dw	$7BD0
0722+  2CE8 00 00       	.dw	$0000
0723+  2CEA 30 00       	.dw	$3000
0724+  2CEC 3F F0       	.dw	$3FF0
0725+  2CEE 00 00       	.dw	$0000
0726+  2CF0 00 00       	.dw	$0000
0727+  2CF2 18 0F       	.dw	$180F
0728+  2CF4 C0 00       	.dw	$C000
0729+  2CF6 00 00       	.dw	$0000
0730+  2CF8 00 00       	.dw	$0000
0731+  2CFA 07 F0       	.dw	$07F0
0732+  2CFC 00 00       	.dw	$0000
0733+  2CFE 00 00       	.dw	$0000
2864   2D00             		
2865   7E00             		.ORG	7E00h
2866   7E00             		
2867   7E00             		#INCLUDE "AEVIP-VR.ASM"	;VIP ROM ROUTINES
0001+  7E00             	;AE VIP ROM
0002+  7E00             	;.org	8000h
0003+  7E00 F8 80       VIPROM  ldi 80h		;set R2=8008     ;this code is found at XVipRom
0004+  7E02 B2                  phi r2
0005+  7E03 F8 08               ldi here1%256
0006+  7E05 A2                  plo r2
0007+  7E06 E2                  sex r2
0008+  7E07 D2                  sep r2          ;make R2 the program counter
0009+  7E08             
0010+  7E08 64          here1:  out 4           ;reset address inhibit latch (map RAM to 0000 area)
0011+  7E09 00                  .db  0
0012+  7E0A 62                  out 2           ;set keyboard latch to monitor "C" Key
0013+  7E0B 0C                  .db  0Ch
0014+  7E0C F8 FF               ldi 0FFh        ;test for high end of RAM
0015+  7E0E A1                  plo r1
0016+  7E0F F8 0F               ldi 0Fh
0017+  7E11 B1                  phi r1          ;set R1=0FFF (4k; max RAM on VIP)
0018+  7E12 F8 AA       notram: ldi 0AAh        ;store AA
0019+  7E14 51                  str r1
0020+  7E15 01                  ldn r1          ;load it
0021+  7E16 FB AA               xri 0AAh        ;if it worked,
0022+  7E18 32 22               bz  isram       ;  then R1 points to top of RAM
0023+  7E1A 91                  ghi r1
0024+  7E1B FF 04               smi 4           ;else R1=R1-0400 (try 1k lower)
0025+  7E1D 3B 22               bnf isram       ;if underflow, no RAM, continue anyway
0026+  7E1F B1                  phi r1
0027+  7E20 30 12               br  notram      ;if not 4k of RAM, then try 1k lower
0028+  7E22 36 28       isram:  b3  monitor	;if "C" key is not pressed,
0029+  7E24 90                  ghi r0          ;  set R0=0000
0030+  7E25 A0                  plo r0
0031+  7E26 E0                  sex r0          ;  set X=0, P=0,
0032+  7E27 D0                  sep r0          ;  and go execute program at 0
0033+  7E28                     		;  R1=Last byte of RAM available (0FFF,0CFF,08FF or 04FF) (0FFF on VElf)
0034+  7E28 E1          monitor: sex r1
0035+  7E29             clear10:                ;clear RAM from top=0xFF to 0xB0 of last page of ram (0FFF to 0FB0 on VElf)
0036+  7E29 F8 00               ldi 0           ;  clear a byte
0037+  7E2B 73                  stxd            ;  decrement pointer
0038+  7E2C 81                  glo r1
0039+  7E2D FB AF               xri 0AFh        ;  until address=0xAF
0040+  7E2F 3A 29               bnz clear10
0041+  7E31                                     ;create RAM program to save registers
0042+  7E31 F8 D2               ldi 0D2h        ;  push SEP R2 @rrAF
0043+  7E33 73                  stxd
0044+  7E34 F8 9F               ldi 9Fh         ;  push GHI RF @rrAE
0045+  7E36 51                  str r1
0046+  7E37 81                  glo r1          ;point R0 to RAM program
0047+  7E38 A0                  plo r0
0048+  7E39 91                  ghi r1
0049+  7E3A B0                  phi r0
0050+  7E3B F8 CF               ldi 0CFh	;R1=rrCF
0051+  7E3D A1                  plo r1
0052+  7E3E                     		;M(rrCF) = RF.1
0053+  7E3E                     		;M(rrCE) = RE.1
0054+  7E3E                     		;M(rrCD) = RD.1
0055+  7E3E                     		;M(rrCC) = RC.1
0056+  7E3E                     		;M(rrCB) = RB.1
0057+  7E3E                     		;M(rrCA) = RA.1
0058+  7E3E                     		;M(rrC9) = R9.1
0059+  7E3E                     		;M(rrC8) = R8.1
0060+  7E3E                     		;M(rrC7) = R7.1
0061+  7E3E                     		;M(rrC6) = R6.1
0062+  7E3E                     		;M(rrC5) = R5.1
0063+  7E3E                     		;M(rrC4) = R4.1
0064+  7E3E                     		;M(rrC3) = R3.1
0065+  7E3E             
0066+  7E3E D0          savereg: sep r0          ;call the RAM program
0067+  7E3F 73                  stxd            ;push register contents it returns and dec X
0068+  7E40 20                  dec r0
0069+  7E41 20                  dec r0          ;point R0 to RAM program again
0070+  7E42 40                  lda r0          ;decrement GHI Rx instruction
0071+  7E43 FF 01               smi 1
0072+  7E45 20                  dec r0          ;point R0 to RAM program again
0073+  7E46 50                  str r0
0074+  7E47 FB 82               xri 82h         ;if not down to GHI R2,
0075+  7E49 3A 3E               bnz savereg     ;  then repeat
0076+  7E4B             
0077+  7E4B 92                  ghi r2          ;change PC to R3 (R2 was PC)
0078+  7E4C B3                  phi r3
0079+  7E4D F8 51               ldi here2%256
0080+  7E4F A3                  plo r3
0081+  7E50 D3                  sep r3
0082+  7E51 90          here2:  ghi r0
0083+  7E52 B2                  phi r2		;R2.1 = rr (top page of ram) (0F on VElf)
0084+  7E53 BB                  phi rb		;RB.1 = rr (top page of ram) Page to load R0 with in video refresh
0085+  7E54 BD                  phi rd		;RD.1 = rr (top page of ram)
0086+  7E55 F8 81               ldi 81h		;Set page of subroutines
0087+  7E57 B1                  phi r1		;R1=81xx
0088+  7E58 B4                  phi r4		;R4=81xx
0089+  7E59 B5                  phi r5		;R5=81xx
0090+  7E5A B7                  phi r7		;R7=81xx
0091+  7E5B BA                  phi ra          ;RA=81xx
0092+  7E5C BC                  phi rc		;RC=81xx
0093+  7E5D F8 46               ldi int%256
0094+  7E5F A1                  plo r1          ;R1=8146 (1861 interrupt handler)
0095+  7E60 F8 AF               ldi 0AFh
0096+  7E62 A2                  plo r2          ;R2=rrAF
0097+  7E63 F8 DD               ldi dismem%256
0098+  7E65 A4                  plo r4          ;R4=81DD (display memory subroutine)
0099+  7E66 F8 C6               ldi display%256
0100+  7E68 A5                  plo r5          ;R5=81C6 (display hex char subroutine)
0101+  7E69 F8 BA               ldi getbyte%256
0102+  7E6B A7                  plo r7          ;R7=81BA (get hex byte subroutine)
0103+  7E6C F8 A1               ldi keyfound%256
0104+  7E6E AC                  plo rc          ;RC=81A1 (get key subroutine, Start at "KeyFound" since
0105+  7E6F                     		;the C key was pressed to get to this point)
0106+  7E6F             
0107+  7E6F E2          getaddr: sex r2
0108+  7E70 69                  inp 1           ;turn on 1861 TV display
0109+  7E71 DC                  sep rc          ;wait until C key released
0110+  7E72 D7                  sep r7          ;  get 1st key
0111+  7E73 D7                  sep r7          ;  go back to get byte to shift and get 2nd key
0112+  7E74 D7                  sep r7          ;  go back to get byte to OR the hex digits
0113+  7E75 B6                  phi r6          ;save in R6.1
0114+  7E76 D7                  sep r7          ;  get 1st key
0115+  7E77 D7                  sep r7          ;  go back to get byte to shift and get 2nd key
0116+  7E78 D7                  sep r7          ;  go back to get byte to OR the hex digits
0117+  7E79 A6                  plo r6          ;save in R6.0
0118+  7E7A D4                  sep r4          ;display address R6, and M(R6)
0119+  7E7B DC                  sep rc          ;get a key
0120+  7E7C BE                  phi re          ;  save it
0121+  7E7D 32 F4               bz  mwrite      ;if "0", go to Memory Write command
0122+  7E7F FB 0A               xri 10
0123+  7E81 32 EF               bz  mread       ;if "A", go to Memory Read command
0124+  7E83 DC                  sep rc          ;get a key (count of pages to write/read to tape)
0125+  7E84 AE                  plo re          ;  save it
0126+  7E85 22                  dec r2
0127+  7E86 61                  out 1           ;turn off TV
0128+  7E87 9E                  ghi re          ;get saved key
0129+  7E88 FB 0B               xri 0Bh
0130+  7E8A 32 C2               bz  tread       ;if "B", go to Tape Read command
0131+  7E8C 9E                  ghi re          ;get saved key
0132+  7E8D FB 0F               xri 0Fh         ;if anything but "F",
0133+  7E8F 3A 8F               bnz $           ;  loop forever
0134+  7E91             ;
0135+  7E91             ; twrite -- tape write command
0136+  7E91             ;
0137+  7E91 F8 6F               ldi beep%256    ;change RC to point to Beep subroutine
0138+  7E93 AC                  plo rc
0139+  7E94 F8 40               ldi 40h		;write lead in 0x40xx bits (~16,000 bits)
0140+  7E96 B9                  phi r9
0141+  7E97             
0142+  7E97             twrite:			;write lead in loop
0143+  7E97 93                  ghi r3		;r3 = PC = 0x8098
0144+  7E98 F6                  shr		;aka Clear DF flag Send "0"
0145+  7E99 DC                  sep rc          ;call Beep to write 0 bit
0146+  7E9A 29                  dec r9
0147+  7E9B 99                  ghi r9
0148+  7E9C 3A 97               bnz twrite	;Loop ~16,000 times
0149+  7E9E             twrite1:
0150+  7E9E F8 10               ldi 10h		;Reset Parity Counter (Counts 1's sent)
0151+  7EA0 A7                  plo r7
0152+  7EA1 F8 08               ldi 8
0153+  7EA3 A9                  plo r9
0154+  7EA4 46                  lda r6		;Get byte to write to Tape
0155+  7EA5 B7                  phi r7		;Hold Byte in R7.1
0156+  7EA6 93                  ghi r3
0157+  7EA7 FE                  shl		;Send "1"
0158+  7EA8 DC                  sep rc          ;call Beep to write a 1 bit             -SEND START BIT (1)
0159+  7EA9 86                  glo r6		;Check for page boundary
0160+  7EAA 3A AD               bnz twrite2
0161+  7EAC 2E                  dec re		;count down pages writen on every page boundary
0162+  7EAD             twrite2:
0163+  7EAD 97                  ghi r7		;Fetch Byte to write
0164+  7EAE F6                  shr		;Shift out bit
0165+  7EAF B7                  phi r7
0166+  7EB0 DC                  sep rc          ;call Beep to write a data bit          -SEND 8 DATA BITS
0167+  7EB1 29                  dec r9		;decrement bit counter
0168+  7EB2 89                  glo r9
0169+  7EB3 3A AD               bnz twrite2	;loop back to write 8 bits
0170+  7EB5 17                  inc r7		;Calculate EVEN Parity
0171+  7EB6 87                  glo r7
0172+  7EB7 F6                  shr
0173+  7EB8 DC                  sep rc          ;call Beep to write parity bit          -SEND PARITY BIT          
0174+  7EB9 8E                  glo re
0175+  7EBA 3A 9E               bnz twrite1	;loop back to write next byte until all pages are written
0176+  7EBC DC                  sep rc          ;call Beep to write FINAL bit
0177+  7EBD             tread6:
0178+  7EBD 69                  inp 1           ;turn on TV display
0179+  7EBE 26                  dec r6
0180+  7EBF D4                  sep r4          ;display last byte written
0181+  7EC0 30 C0               br  $           ;end; loop forever
0182+  7EC2             ;
0183+  7EC2             ; tread -- tape read command
0184+  7EC2             ;
0185+  7EC2             tread:
0186+  7EC2 F8 83               ldi tapein%256  ;change RC to point to tapein
0187+  7EC4 AC                  plo rc          ;  subroutine to read 1 bit
0188+  7EC5             tread1:			;Lead In Loop
0189+  7EC5 F8 0A               ldi 10
0190+  7EC7 B9                  phi r9
0191+  7EC8             tread2:
0192+  7EC8 DC                  sep rc          ;call TapeIn to read 1 bit
0193+  7EC9             
0194+  7EC9 33 C5               bdf tread1	;Loop back while 1 (Lead IN)
0195+  7ECB 29                  dec r9
0196+  7ECC 99                  ghi r9
0197+  7ECD 3A C8               bnz tread2
0198+  7ECF             tread5:
0199+  7ECF DC                  sep rc          ;call TapeIn to read 1 bit
0200+  7ED0 3B CF               bnf tread5	;Loop back until we get START BIT (1)
0201+  7ED2 F8 09               ldi 9
0202+  7ED4 A9                  plo 9		;Set Bit Counter
0203+  7ED5 A7                  plo 7		;Set Parity Counter
0204+  7ED6             tread3:
0205+  7ED6 97                  ghi r7		;Get Byte to assemble
0206+  7ED7 76                  shrc		;Shift in READ bit
0207+  7ED8 B7                  phi r7		;Save Byte
0208+  7ED9 29                  dec r9		;Count bits
0209+  7EDA DC                  sep rc          ;call TapeIn to read Data & Parity bits
0210+  7EDB 89                  glo r9
0211+  7EDC 3A D6               bnz tread3	;Loop back to read 9 bits (Shifts start bit out)
0212+  7EDE 87                  glo r7
0213+  7EDF F6                  shr
0214+  7EE0 33 E3               bdf tread4	;Jump if NO parity error
0215+  7EE2 7B                  seq		;else, SET Q to indicate ERROR
0216+  7EE3             tread4:
0217+  7EE3 97                  ghi r7		;Save BYTE
0218+  7EE4 56                  str r6
0219+  7EE5 16                  inc r6
0220+  7EE6 86                  glo r6
0221+  7EE7 3A CF               bnz tread5	;Test for Page boundary
0222+  7EE9 2E                  dec re		;Count down pages to read
0223+  7EEA 8E                  glo re
0224+  7EEB 3A CF               bnz tread5	;Jump back until all pages are read.
0225+  7EED 30 BD               br  tread6      ;end; loop forever
0226+  7EEF             ;
0227+  7EEF             ; mread -- memory read command
0228+  7EEF             ;
0229+  7EEF             mread:
0230+  7EEF DC                  sep rc          ;get a key
0231+  7EF0 16                  inc r6          ;increment address in R6
0232+  7EF1 D4                  sep r4          ;display address R6 and M(R6)
0233+  7EF2 30 EF               br  mread       ;repeat forever
0234+  7EF4             ;
0235+  7EF4             ; mwrite -- memory write command
0236+  7EF4             ;
0237+  7EF4             mwrite:
0238+  7EF4 D7                  sep r7          ;get keys, assemble into byte
0239+  7EF5 D7                  sep r7
0240+  7EF6 D7                  sep r7
0241+  7EF7 56                  str r6
0242+  7EF8 D4                  sep r4          ;display address R6 and M(R6)
0243+  7EF9                                     ;  (i.e. new contents of memory)
0244+  7EF9 16                  inc r6          ;increment memory pointer
0245+  7EFA             
0246+  7EFA 30 F4               br  mwrite      ;repeat forever
0247+  7EFC             
0248+  7EFC 00 00 00 00         .db  0,0,0,0     ;unused?
0249+  7F00             ;
0250+  7F00             ; index table -- converts hex digit into address in bitmap
0251+  7F00             ;       table where that digit's bitmap begins.
0252+  7F00             
0253+  7F00             	;.org 8100h
0254+  7F00             index:
0255+  7F00 30                  .db  30h         ;"0" digit bitmap starting addr
0256+  7F01 39                  .db  39h         ;"1"
0257+  7F02 22                  .db  22h         ;"2"
0258+  7F03 2A                  .db  2Ah         ;"3"
0259+  7F04 3E                  .db  3Eh         ;"4"
0260+  7F05 20                  .db  20h         ;"5"
0261+  7F06 24                  .db  24h         ;"6"
0262+  7F07 34                  .db  34h         ;"7"
0263+  7F08 26                  .db  26h         ;"8"
0264+  7F09 28                  .db  28h         ;"9"
0265+  7F0A 2E                  .db  2Eh         ;"A"
0266+  7F0B 18                  .db  18h         ;"B"
0267+  7F0C 14                  .db  14h         ;"C"
0268+  7F0D 1C                  .db  1Ch         ;"D"
0269+  7F0E 10                  .db  10h         ;"E"
0270+  7F0F 12                  .db  12h         ;"F"
0271+  7F10             ;
0272+  7F10             ; bitmap table -- bit patterns to put on the screen to
0273+  7F10             ;       display hex characters 0-F in a 5-high by 8-wide
0274+  7F10             ;       format. Each pattern uses 5 consecutive bytes.
0275+  7F10             ;       1's are bright, 0's are dark pixels. The patterns
0276+  7F10             ;       overlap to save memory.
0277+  7F10             bitmap:
0278+  7F10 F0                  .db  11110000b   ;top of "E"
0279+  7F11 80                  .db  10000000b
0280+  7F12 F0                  .db  11110000b   ;top of "F"
0281+  7F13 80                  .db  10000000b
0282+  7F14 F0                  .db  11110000b   ;top of "C"
0283+  7F15 80                  .db  10000000b
0284+  7F16 80                  .db  10000000b
0285+  7F17 80                  .db  10000000b
0286+  7F18 F0                  .db  11110000b   ;top of "B"
0287+  7F19 50                  .db  01010000b
0288+  7F1A 70                  .db  01110000b
0289+  7F1B 50                  .db  01010000b
0290+  7F1C F0                  .db  11110000b   ;top of "D"
0291+  7F1D 50                  .db  01010000b
0292+  7F1E 50                  .db  01010000b
0293+  7F1F 50                  .db  01010000b
0294+  7F20 F0                  .db  11110000b   ;top of "5"
0295+  7F21 80                  .db  10000000b
0296+  7F22 F0                  .db  11110000b   ;top of "2"
0297+  7F23 10                  .db  00010000b
0298+  7F24 F0                  .db  11110000b   ;top of "6"
0299+  7F25 80                  .db  10000000b
0300+  7F26 F0                  .db  11110000b   ;top of "8"
0301+  7F27 90                  .db  10010000b
0302+  7F28 F0                  .db  11110000b   ;top of "9"
0303+  7F29 90                  .db  10010000b
0304+  7F2A F0                  .db  11110000b   ;top of "3"
0305+  7F2B 10                  .db  00010000b
0306+  7F2C F0                  .db  11110000b
0307+  7F2D 10                  .db  00010000b
0308+  7F2E F0                  .db  11110000b   ;top of "A"
0309+  7F2F 90                  .db  10010000b
0310+  7F30 F0                  .db  11110000b   ;top of "0"
0311+  7F31 90                  .db  10010000b
0312+  7F32 90                  .db  10010000b
0313+  7F33 90                  .db  10010000b
0314+  7F34 F0                  .db  11110000b   ;top of "7"
0315+  7F35 10                  .db  00010000b
0316+  7F36 10                  .db  00010000b
0317+  7F37 10                  .db  00010000b
0318+  7F38 10                  .db  00010000b
0319+  7F39 60                  .db  01100000b   ;top of "1"
0320+  7F3A 20                  .db  00100000b
0321+  7F3B 20                  .db  00100000b
0322+  7F3C 20                  .db  00100000b
0323+  7F3D 70                  .db  01110000b
0324+  7F3E A0                  .db  10100000b   ;top of "4"
0325+  7F3F A0                  .db  10100000b
0326+  7F40 F0                  .db  11110000b
0327+  7F41 20                  .db  00100000b
0328+  7F42 20                  .db  00100000b
0329+  7F43             ;
0330+  7F43             ; interrupt routine for 64x32 format (1 page display memory)
0331+  7F43             ;
0332+  7F43             intret0:
0333+  7F43 7A                  req             ;return with Q off
0334+  7F44             intret1:
0335+  7F44 42                  lda r2
0336+  7F45 70                  ret             ;<-return with interrupts enabled
0337+  7F46             int:                    ;->entry with P=R1
0338+  7F46 22                  dec r2          ;point to free location on stack
0339+  7F47 78                  sav             ;  push T
0340+  7F48 22                  dec r2
0341+  7F49 52                  str r2          ;  save D
0342+  7F4A C4                  nop             ;3 cycles of NOP for sync
0343+  7F4B 19                  inc r9
0344+  7F4C F8 00               ldi 0           ;reset DMA pointer to start of
0345+  7F4E A0                  plo r0          ;  display RAM
0346+  7F4F 9B                  ghi rb
0347+  7F50 B0                  phi r0
0348+  7F51 E2                  sex r2          ;NOPs for timing
0349+  7F52 E2                  sex r2          ;set D=line start address (6 cycles)
0350+  7F53             disp:
0351+  7F53 80                  glo r0
0352+  7F54                                     ;1861 displays a line (8 cycles)
0353+  7F54 E2                  sex r2
0354+  7F55 E2                  sex r2          ;reset line start address (6 cycles)
0355+  7F56 20                  dec r0
0356+  7F57                                     ;1861 displays line a 2nd time (8 cycles)
0357+  7F57 A0                  plo r0
0358+  7F58 E2                  sex r2          ;reset line start address (6 cycles)
0359+  7F59 20                  dec r0
0360+  7F5A                                     ;1861 displays line a 3rd time (8 cycles)
0361+  7F5A A0                  plo r0
0362+  7F5B E2                  sex r2          ;reset line start address (6 cycles)
0363+  7F5C 20                  dec r0
0364+  7F5D                                     ;1861 displays line a 4th time (8 cycles)
0365+  7F5D A0                  plo r0          ;set R0.0=line start address
0366+  7F5E 3C 53               bn1 disp        ;loop 32 times
0367+  7F60             
0368+  7F60 98                  ghi r8		;r8.1 is TIMER,  Counts down when set>0
0369+  7F61 32 67               bz  disp1       ;if Zero, skip decrementing
0370+  7F63 AB                  plo rb		;(Using rb.0, to avoid altering DF)
0371+  7F64 2B                  dec rb          ;  else decrement beeper time remaining
0372+  7F65 8B                  glo rb          ;    ...high byte
0373+  7F66 B8                  phi r8
0374+  7F67             disp1:
0375+  7F67 88                  glo r8          ;    ...low byte
0376+  7F68 32 43               bz  intret0     ;if beep time is zero, then return with Q off
0377+  7F6A 7B                  seq             ;  else return with Q on
0378+  7F6B 28                  dec r8
0379+  7F6C 30 44               br  intret1
0380+  7F6E             
0381+  7F6E             ; beep -- output a 1-cycle square wave on Q
0382+  7F6E             ;       at 2 KHz if DF=0, or 0.8 KHz if DF=1.
0383+  7F6E             ;       Also increments R7.
0384+  7F6E             ;
0385+  7F6E             beepx:
0386+  7F6E D3                  sep r3          ;<-return
0387+  7F6F             beep:
0388+  7F6F F8 0A               ldi 10          ;2 KHz if DF=0
0389+  7F71 3B 76               bnf setq
0390+  7F73 F8 20               ldi 32          ;0.8 KHz if DF=1
0391+  7F75 17                  inc r7		;Parity Bit count the 1's
0392+  7F76             setq:
0393+  7F76 7B                  seq             ;set Q    16 cycles
0394+  7F77 BF                  phi rf          ;save delay length 16 cycles
0395+  7F78             beepl:
0396+  7F78 FF 01               smi 1           ;delay 16 clock cycles  @3.579/2 = 1.79Mhz = 0.558uSec
0397+  7F7A 3A 78               bnz beepl	;      16 clock cycles, =(32*10+48)*0.558uSec=205uSec=(1/2 cycle of 2.44Khz) 
0398+  7F7C                     		;                       =(32*32+48)*0.558uSec=598uSec=(1/2 cycle of 836hz)
0399+  7F7C                     		;			@3.52/2 = 1.76Mhz = 0.568uSec
0400+  7F7C                     		;      16 clock cycles, =(32*10+48)*0.568uSec=209uSec=(1/2 cycle of 2.39Khz) 
0401+  7F7C                     		;                       =(32*32+48)*0.568uSec=609uSec=(1/2 cycle of 821hz)
0402+  7F7C                     		
0403+  7F7C 39 6E               bnq beepx       ;exit after low half cycle 16 cycles
0404+  7F7E 7A                  req             ;reset Q
0405+  7F7F 9F                  ghi rf		;fetch delay length
0406+  7F80 30 78               br  beepl       ;delay again
0407+  7F82             ;
0408+  7F82             ; tapein -- cassette tape audio input; read one cycle.
0409+  7F82             ;       If low frequency, returns DF=1 and increments R7.
0410+  7F82             ;       If high frequency, returns DF=0.
0411+  7F82             
0412+  7F82             tapeinx:
0413+  7F82 D3                  sep r3          ;<-return
0414+  7F83             tapein:
0415+  7F83 F8 10               ldi 16          ;set timer
0416+  7F85 3D 85               bn2 $           ;wait for EF2=1 (EF2 pin low)
0417+  7F87                                     ;  (i.e. wait for rising edge)
0418+  7F87             tapein1:
0419+  7F87 3D 8F               bn2 tapein2     ;wait 4 x 16 cycles and test EF2
0420+  7F89 FF 01               smi 1
0421+  7F8B 3A 87               bnz tapein1     ;if it times out, is low frequency
0422+  7F8D 17                  inc r7          ;  increment R7 Parity Counter
0423+  7F8E 9C                  ghi rc          ;  and set D=81h (to set DF)
0424+  7F8F             tapein2:
0425+  7F8F FE                  shl             ;shift high bit of D into DF
0426+  7F90                                     ;  if DF=1, is low freq
0427+  7F90                                     ;  if DF=0, is high freq
0428+  7F90 35 90               b2  $           ;wait for EF2=0 (EF2 pin high)
0429+  7F92                                     ;  (i.e. low half of this cycle)
0430+  7F92 30 82               br  tapeinx     ;  and exit
0431+  7F94             ;
0432+  7F94             ; get a key -- scans keypad, and returns when a key is found.
0433+  7F94             ;       'Beeps' while key is down. Returns key (0-F) in D and
0434+  7F94             ;       on the stack. Uses RC as its dedicated program counter.
0435+  7F94             key:
0436+  7F94 D3                  sep r3          ;<-return
0437+  7F95             GETKEY:
0438+  7F95 E2                  sex r2          ;->entry: scan keypad, return when found
0439+  7F96 9C                  ghi rc
0440+  7F97 AF                  plo rf          ;for n = 10h to 0:
0441+  7F98             keyn:
0442+  7F98 2F                  dec rf          ;  decrement n
0443+  7F99 22                  dec r2
0444+  7F9A 8F                  glo rf          ;  set keypad latch to n
0445+  7F9B 52                  str r2
0446+  7F9C 62                  out 2           ;  is key = n?
0447+  7F9D E2                  sex r2
0448+  7F9E E2                  sex r2
0449+  7F9F 3E 98               bn3 keyn        ;  until key found
0450+  7FA1             keyfound:
0451+  7FA1 F8 04               ldi 4           ;->enter with P=RC
0452+  7FA3 A8                  plo r8          ;set beep duration to 4/60 sec
0453+  7FA4 88                  glo r8
0454+  7FA5 3A A4               bnz $-1         ;wait for it to end
0455+  7FA7 F8 04               ldi 4
0456+  7FA9 A8                  plo r8          ;keep beeping until key released
0457+  7FAA 36 A7               b3  $-3         ;  (i.e. EF3 pin returns high)
0458+  7FAC 88                  glo r8
0459+  7FAD 31 AA               bq  $-3
0460+  7FAF 8F                  glo rf
0461+  7FB0 FA 0F               ani 0Fh         ;mask key to 0-F
0462+  7FB2 52                  str r2          ;  and return it on the stack
0463+  7FB3 30 94               br  key
0464+  7FB5             
0465+  7FB5 00 00 00 00         .db  0,0,0,0     ;(unused)
0466+  7FB9             
0467+  7FB9             ; getbyte -- get 2 keys from the keypad, and assemble them
0468+  7FB9             ;       into a byte. Return the byte in D. Uses R7 as its
0469+  7FB9             ;       dedicated program counter.
0470+  7FB9             
0471+  7FB9 D3                  sep r3          ;<-return
0472+  7FBA             getbyte:
0473+  7FBA DC                  sep rc          ;->enter; get 1st key
0474+  7FBB FE                  shl
0475+  7FBC FE                  shl             ;shift it into high nibble
0476+  7FBD FE                  shl
0477+  7FBE FE                  shl
0478+  7FBF AE                  plo re          ;save it
0479+  7FC0 DC                  sep rc          ;get 2nd key
0480+  7FC1 8E                  glo re
0481+  7FC2 F1                  or              ;combine them and return in D
0482+  7FC3 30 B9               br  getbyte-1
0483+  7FC5             ;
0484+  7FC5             ; display -- display hex digit & advance pointer. On entry:
0485+  7FC5             ;       D = display table base addr + hex digit.
0486+  7FC5             ;       RD pointer to video RAM addr of top line of char.
0487+  7FC5             ;       Uses R5 as its dedicated program counter.
0488+  7FC5             
0489+  7FC5 D4                  sep r4          ;<-return
0490+  7FC6             display:                ;->entry
0491+  7FC6 AA                  plo ra          ;point RA to display table + digit
0492+  7FC7 0A                  ldn ra          ;get starting addr of char gen.
0493+  7FC8 AA                  plo ra          ;point RA to top line bit pattern
0494+  7FC9 F8 05               ldi 5           ;characters are 5 lines high
0495+  7FCB AF                  plo rf          ;  RF.0=line counter
0496+  7FCC             display1:
0497+  7FCC 4A                  lda ra          ;  get display pattern
0498+  7FCD 5D                  str rd          ;  put in video RAM
0499+  7FCE 8D                  glo rd          ;  add 8 to video RAM address
0500+  7FCF FC 08               adi 8           ;    to point to next line of char
0501+  7FD1 AD                  plo rd
0502+  7FD2 2F                  dec rf          ;  decrement line counter
0503+  7FD3 8F                  glo rf          ;  get line counter
0504+  7FD4 3A CC               bnz display1    ;  loop unti last line done
0505+  7FD6 8D                  glo rd
0506+  7FD7 FC D9               adi 0D9h        ;set RD back to original video RAM
0507+  7FD9 AD                  plo rd          ;  address +1 (points to next char)
0508+  7FDA 30 C5               br  display-1   ;and return
0509+  7FDC             ;
0510+  7FDC             ; dismem -- display memory address and data in hex. On entry,
0511+  7FDC             ;       R2 (stack pointer) points to an occupied byte
0512+  7FDC             ;       R6 = address, and is pointing to data byte to display
0513+  7FDC             ;       Uses R4 as its dedicated program counter.
0514+  7FDC             
0515+  7FDC             dismemx:
0516+  7FDC D3                  sep r3          ;<-return
0517+  7FDD             dismem:
0518+  7FDD 22                  dec r2          ;->entry
0519+  7FDE 06                  ldn r6          ;push data byte to display onto stack
0520+  7FDF 73                  stxd
0521+  7FE0 86                  glo r6          ;push low byte of address onto stack
0522+  7FE1 73                  stxd
0523+  7FE2 96                  ghi r6          ;store high byte of address on stack
0524+  7FE3 52                  str r2
0525+  7FE4 F8 06               ldi 6           ;display 6 hex digits
0526+  7FE6 AE                  plo re
0527+  7FE7 F8 D8               ldi 0D8h        ;RD=position in video RAM
0528+  7FE9 AD                  plo rd
0529+  7FEA             dismem1:
0530+  7FEA 02                  ldn r2          ;get hex byte from stack
0531+  7FEB F6                  shr
0532+  7FEC F6                  shr             ;shift out low nibble
0533+  7FED F6                  shr
0534+  7FEE F6                  shr
0535+  7FEF D5                  sep r5          ;display high nibble
0536+  7FF0 42                  lda r2          ;pop hex byte from stack
0537+  7FF1 FA 0F               ani 0Fh         ;mask out high nibble
0538+  7FF3 D5                  sep r5          ;display low nibble
0539+  7FF4 8E                  glo re
0540+  7FF5 F6                  shr
0541+  7FF6 AE                  plo re
0542+  7FF7 32 DC               bz  dismemx     ;if RE.0=0, exit
0543+  7FF9 3B EA               bnf dismem1     ;if DF=0, repeat for another byte
0544+  7FFB                                     ;(i.e. is address, which takes 2 bytes)
0545+  7FFB 1D                  inc rd          ;else move right 2 positions in video RAM
0546+  7FFC 1D                  inc rd          ;  to put space between address and data
0547+  7FFD 30 EA               br  dismem1     ;  and go display 2 more digits (data byte)
0548+  7FFF 01                  .db  1           ;checksum?
0549+  8000             
2868   8000             	
2869   8000             
2870   8000             
2871   8000             
2872   8000             
2873   8000             
2874   8000             ;00	IDL		IDLE
2875   8000             ;0n	LDN	Rn	LOAD VIA N	D = M(R1)
2876   8000             ;1n	INC	Rn	INCREMENT REG N	Rn = Rn + 1
2877   8000             ;2n	DEC	Rn	DECREMENT REG N	R0 = R0 - 1
2878   8000             ;30	BR	XX	SHORT BRANCH	RP.0 = M(RP)
2879   8000             ;31	BQ	XX	SHORT BRANCH IF Q = 1
2880   8000             ;32	BZ	XX	SHORT BRANCH IF D = 0
2881   8000             ;33	BDF	XX	SHORT BRANCH IF DF = 1
2882   8000             ;	BPZ	XX	SHORT BRANCH IF POSITIVE OR ZERO
2883   8000             ;	BGE	XX	SHORT BRANCH IF EQUAL OR GREATER
2884   8000             ;34	B1	XX	SHORT BRANCH IF EF1 = 1
2885   8000             ;35	B2	XX	SHORT BRANCH IF EF2 = 1
2886   8000             ;36	B3	XX	SHORT BRANCH IF EF3 = 1
2887   8000             ;37	B4	XX	SHORT BRANCH IF EF4 = 1
2888   8000             ;38	NBR		NO SHORT BRANCH RP = RP + 1
2889   8000             ;	SKP		SHORT SKIP
2890   8000             ;39	BNQ	XX	SHORT BRANCH IF Q = 0
2891   8000             ;3A	BNZ	XX	SHORT BRANCH IF D NOT 0
2892   8000             ;3B	BNF	XX	SHORT BRANCH IF DF = 0
2893   8000             ;	BM		SHORT BRANCH IF MINUS
2894   8000             ;	BL		SHORT BRANCH IF LESS
2895   8000             ;3C	BN1	XX	SHORT BRANCH IF EF1 = 0
2896   8000             ;3D	BN2	XX	SHORT BRANCH IF EF2 = 0
2897   8000             ;3E	BN3	XX	SHORT BRANCH IF EF3 = 0
2898   8000             ;3F	BN4	XX	SHORT BRANCH IF EF4 = 0
2899   8000             ;4n	LDA	Rn	LOAD ADVANCE	D = M(Rn); Rn = Rn + 1
2900   8000             ;5n	STR	Rn	STORE VIA N	M(Rn) = D
2901   8000             ;60	IRX		INCREMENT REG X	RX = RX + 1
2902   8000             ;6n	OUT	n	OUTPUT n	BUS = M(RX); RX = RX + 1
2903   8000             ;68
2904   8000             ;69	INP	n	INPUT n		M(RX) = BUS; D = BUS
2905   8000             ;70	RET		RETURN		(X,P) = M(RX); RX = RX + 1; IE = 1
2906   8000             ;71	DIS		DISABLE		(X,P) = M(RX); RX = RX + 1; IE = 0
2907   8000             ;72	LDXA		LOAD VIA X AND ADVANCE		D = M(RX); RX = RX + 1
2908   8000             ;73	STXD		STORE VIA X AND DECREMENT	M(RX) = D; RX = RX - 1
2909   8000             ;74	ADC		ADD WITH CARRY		DF, D = M(RX) + D + DF
2910   8000             ;75	SDB		SUBTRACT D WITH BORROW	DF, D = M(RX) - D - /DF
2911   8000             ;76	SHRC		SHIFT RIGHT WITH CARRY
2912   8000             ;	RSHR		RING SHIFT RIGHT
2913   8000             ;77	SMB		SUBTRACT MEMORY WITH BORROW	DF,D = D - M(RX) - /DF
2914   8000             ;78	SAV		SAVE M(RX) = T
2915   8000             ;79	MARK		PUSH X, P TO STACK	T = X,P; M(R2) = T; X = P; R2 = R2 - 1
2916   8000             ;7A	REQ		RESET Q		Q = 0
2917   8000             ;7B	SEQ		SET Q		Q = 1
2918   8000             ;7C	ADCI	XX	ADD WITH CARRY, IMMEDIATE	DF, D = M(RP) + D + DF; RP = RP + 1
2919   8000             ;7D	SDBI	XX	SUBTRACT D WITH BORROW, IMMEDIATE DF, D = M(RP) - D - /DF; RP = RP + 1
2920   8000             ;7E	SHLC		SHIFT LEFT WITH CARRY
2921   8000             ;	RSHL		RING SHIFT LEFT
2922   8000             ;7F	SMBI	XX	SUBTRACT MEMORY WITH BORROW, IMMEDIATE DF, D = D - M(RP) - /DF; RP = RP + 1
2923   8000             ;8n	GLO	Rn	GET LOW REG N	D = Rn.0
2924   8000             ;9n	GHI	Rn	GET HIGH REG N	D = Rn.1
2925   8000             ;An	PLO	Rn	PUT LOW REG N	Rn.0 = D
2926   8000             ;Bn	PHI	Rn	PUT HIGH REG N	Rn.1 = D
2927   8000             ;C0	LBR	XX XX	LONG BRANCH	RP.1 = M(RP); RP.0 = M(RP + 1)
2928   8000             ;C1	LBQ	XX XX	IF Q = 1 THEN RP.1 = M(RP); RP.0 = M(RP + 1)
2929   8000             ;C2	LBZ	XX XX	IF D = 0 THEN RP.1 = M(RP); RP.0 = M(RP + 1)
2930   8000             ;C3	LDF	XX XX	IF DF = 1 THEN RP.1 = M(RP); RP.0 = M(RP + 1)
2931   8000             ;C4	NOP		No Operation
2932   8000             ;C5	LSNQ		IF Q = 0 THEN RP = RP+2
2933   8000             ;C6	LSNZ		IF D <> 0 THEN RP = RP+2
2934   8000             ;C7	LSNF		IF DF = 0 THEN RP = RP+2
2935   8000             ;C8	NLBR		RP = RP+2
2936   8000             ;C8	LSKP		RP = RP+2
2937   8000             ;C9	LBNQ	XX XX	IF Q = 0 THEN RP.1 = M(RP); RP.0 = M(RP + 1)
2938   8000             ;CA	LBNZ	XX XX	IF D <> 0 THEN RP.1 = M(RP); RP.0 = M(RP + 1)
2939   8000             ;CB	LDNF	XX XX	IF DF = 0 THEN RP.1 = M(RP); RP.0 = M(RP + 1)
2940   8000             ;CC	LSIE		IF IE = 1 THEN RP = RP+2
2941   8000             ;CD	LSQ		IF Q = 1 THEN RP = RP+2
2942   8000             ;CE	LSZ		IF D = 0 THEN RP = RP+2
2943   8000             ;CF	LSDF		IF DF = 1 THEN RP = RP+2
2944   8000             ;Dn	SEP	n	SET P	P=n
2945   8000             ;En	SEX	n	SET X	X=n
2946   8000             ;F0	LDX		LOAD VIA X	D = M(RX)
2947   8000             ;F1	OR		OR		D = M(RX) OR D
2948   8000             ;F2	AND		AND		D = M(RX) AND D
2949   8000             ;F3	XOR		EXCLUSIVE OR	D = M(RX) XOR D
2950   8000             ;F4	ADD		ADD		DF, D = M(RX) + D
2951   8000             ;F5	SD		SUBTRACT D	DF, D = M(RX) - D
2952   8000             ;F6	SHR		SHIFT D RIGHT	DF = LSB(D); MSB(D) = 0
2953   8000             ;F7	SM		SUBTRACT MEMORY	DF,D = D - M(RX)
2954   8000             ;F8	LDI	XX	LOAD IMMEDIATE	D = M(RP); RP = RP + 1
2955   8000             ;F9	ORI	XX	OR IMMEDIATE	D = M(RP) OR D; RP = RP + 1
2956   8000             ;FA	ANI	XX	AND IMMEDIATE	D = M(RP) AND D; RP = RP + 1
2957   8000             ;FB	XRI	XX	EXCLUSIVE OR IMMEDIATE	D = M(RP) XOR D; RP = RP + 1
2958   8000             ;FC	ADI	XX	ADD IMMEDIATE		DF, D = M(RP) + D; RP = RP + 1
2959   8000             ;FD	SDI	XX	SUBTRACT D IMMEDIATE	DF, D = M(RP) - D; RP = RP + 1
2960   8000             ;FE	SHL		SHIFT D LEFT		DF = MSB(D); LSB(D) = 0
2961   8000             ;FF	SMI	XX	SUBTRACT MEMORY IMMEDIATE	DF, D = D - M(RP); RP = RP + 1
2962   8000             ;			DMA IN	M(R0) = BUS; R0 = R0 + 1
2963   8000             ;			DMA OUT BUS = M(R0); R0 = R0 + 1
2964   8000             ;			INTERRUPT T = X,P; IE = 0; P = 1; X = 2
2965   8000             ;
2966   8000             ;
2967   8000             ;'Mnem. 'Op'F'Description                 'Notes                '
2968   8000             ;'------+--+-+----------------------------+---------------------'
2969   8000             ;'ADC   '74'*'Add with Carry              '{DF,D}=mx+D+DF       '
2970   8000             ;'ADCI i'7C'*'Add with Carry Immediate    '{DF,D}=mp+D+DF,p=p+1 '
2971   8000             ;'ADD   'F4'*'Add                         '{DF,D}=mx+D          '
2972   8000             ;'ADI  i'FC'*'Add Immediate               '{DF,D}=mp+D,p=p+1    '
2973   8000             ;'AND   'F2'*'Logical AND                 'D={mx}&D             '
2974   8000             ;'ANI  i'FA'*'Logical AND Immediate       'D={mp}&D,p=p+1       '
2975   8000             ;'B1   a'34'-'Branch if EF1               'If EF1=1 BR else NBR '
2976   8000             ;'B2   a'35'-'Branch if EF2               'If EF2=1 BR else NBR '
2977   8000             ;'B3   a'36'-'Branch if EF3               'If EF3=1 BR else NBR '
2978   8000             ;'B4   a'37'-'Branch if EF4               'If EF4=1 BR else NBR '
2979   8000             ;'BDF  a'33'-'Branch if DF                'If DF=1 BR else NBR  '
2980   8000             ;'BGE  a'33'-'Branch if Greater or Equal  'See BDF              '
2981   8000             ;'BL   a'38'-'Branch if Less              'See BNF BR else NBR  '
2982   8000             ;'BM   a'38'-'Branch if Minus             'See BNF              '
2983   8000             ;'BN1  a'3C'-'Branch if Not EF1           'If EF1=0 BR else NBR '
2984   8000             ;'BN2  a'3D'-'Branch if Not EF2           'If EF2=0 BR else NBR '
2985   8000             ;'BN3  a'3E'-'Branch if Not EF3           'If EF3=0 BR else NBR '
2986   8000             ;'BN4  a'3F'-'Branch if Not EF4           'If EF4=0 BR else NBR '
2987   8000             ;'BNF  a'38'-'Branch if Not DF            'If DF=0 BR else NBR  '
2988   8000             ;'BNQ  a'39'-'Branch if Not Q             'If Q=0 BR else NBR   '
2989   8000             ;'BNZ  a'3A'-'Branch if D Not Zero        'If D=1 BR else NBR   '
2990   8000             ;'BPZ  a'33'-'Branch if Positive or Zero  'See BDF              '
2991   8000             ;'BQ   a'31'-'Branch if Q                 'If Q=1 BR else NBR   '
2992   8000             ;'BR   a'30'-'Branch                      'pl=mp                '
2993   8000             ;'BZ   a'32'-'Branch if D Zero            'If D=0 BR else NBR   '
2994   8000             ;'DEC  r'2N'-'Decrement register N        'n=n-1                '
2995   8000             ;'DIS   '71'-'Disable                     '{X,P}=mx,x=x+1,IE=0  '
2996   8000             ;'GHI  r'9N'-'Get High register N         'D=nh                 '
2997   8000             ;'GLO  r'8N'-'Get Low register N          'D=nl                 '
2998   8000             ;'IDL   '00'-'Idle (wait for DMA or int.) 'Bus=m0               '
2999   8000             ;'INC  r'1N'-'Increment register N        'n=n+1                '
3000   8000             ;'INP  d'6N'-'Input (N=d+8=9-F)           'mx=Bus,D=Bus,Nlines=d'
3001   8000             ;'IRX   '60'-'Increment register X        'x=x+1                '
3002   8000             ;'LBDF a'C3'-'Long Branch if DF           'If DF=1 LBR else LNBR'
3003   8000             ;'LBNF a'C8'-'Long Branch if Not DF       'If DF=0 LBR else LNBR'
3004   8000             ;'LBNQ a'C9'-'Long Branch if Not Q        'If Q=0 LBR else LNBR '
3005   8000             ;'LBNZ a'CA'-'Long Branch if D Not Zero   'If D=1 LBR else LNBR '
3006   8000             ;'LBQ  a'C1'-'Long Branch if Q            'If Q=1 LBR else LNBR '
3007   8000             ;'LBR  a'C0'-'Long Branch                 'p=mp                 '
3008   8000             ;'LBZ  a'C2'-'Long Branch if D Zero       'If D=0 LBR else LNBR '
3009   8000             ;'LDA  r'4N'-'Load advance                'D=mn,n=n+1           '
3010   8000             ;'LDI  i'F8'-'Load Immediate              'D=mp,p=p+1           '
3011   8000             ;'LDN  r'0N'-'Load via N (except N=0)     'D=mn                 '
3012   8000             ;'LDX   'F0'-'Load via X                  'D=mx                 '
3013   8000             ;'LDXA  '72'-'Load via X and Advance      'D=mx,x=x+1           '
3014   8000             ;'LSDF  'CF'-'Long Skip if DF             'If DF=1 LSKP else NOP'
3015   8000             ;'LSIE  'CC'-'Long Skip if IE             'If IE=1 LSKP else NOP'
3016   8000             ;'LSKP  'C8'-'Long Skip                   'See NLBR             '
3017   8000             ;'LSNF  'C7'-'Long Skip if Not DF         'If DF=0 LSKP else NOP'
3018   8000             ;'LSNQ  'C5'-'Long Skip if Not Q          'If Q=0 LSKP else NOP '
3019   8000             ;'LSNZ  'C6'-'Long Skip if D Not Zero     'If D=1 LSKP else NOP '
3020   8000             ;'LSQ   'CD'-'Long Skip if Q              'If Q=1 LSKP else NOP '
3021   8000             ;'LSZ   'CE'-'Long Skip if D Zero         'If D=0 LSKP else NOP '
3022   8000             ;'MARK  '79'-'Push X,P to stack  (T={X,P})'m2={X,P},X=P,r2=r2-1 '
3023   8000             ;'NBR   '38'-'No short Branch (see SKP)   'p=p+1                '
3024   8000             ;'NLBR a'C8'-'No Long Branch (see LSKP)   'p=p+2                '
3025   8000             ;'NOP   'C4'-'No Operation                'Continue             '
3026   8000             ;'OR    'F1'*'Logical OR                  'D={mx}vD             '
3027   8000             ;'ORI  i'F9'*'Logical OR Immediate        'D={mp}vD,p=p+1       '
3028   8000             ;'OUT  d'6N'-'Output (N=d=1-7)            'Bus=mx,x=x+1,Nlines=d'
3029   8000             ;'PLO  r'AN'-'Put Low register N          'nl=D                 '
3030   8000             ;'PHI  r'BN'-'Put High register N         'nh=D                 '
3031   8000             ;'REQ   '7A'-'Reset Q                     'Q=0                  '
3032   8000             ;'RET   '70'-'Return                      '{X,P}=mx,x=x+1,IE=1  '
3033   8000             ;'RSHL  '7E'*'Ring Shift Left             'See SHLC             '
3034   8000             ;'RSHR  '76'*'Ring Shift Right            'See SHRC             '
3035   8000             ;'SAV   '78'-'Save                        'mx=T                 '
3036   8000             ;'SDB   '75'*'Subtract D with Borrow      '{DF,D}=mx-D-DF       '
3037   8000             ;'SDBI i'7D'*'Subtract D with Borrow Imm. '{DF,D}=mp-D-DF,p=p+1 '
3038   8000             ;'SD    'F5'*'Subtract D                  '{DF,D}=mx-D          '
3039   8000             ;'SDI  i'FD'*'Subtract D Immediate        '{DF,D}=mp-D,p=p+1    '
3040   8000             ;'SEP  r'DN'-'Set P                       'P=N                  '
3041   8000             ;'SEQ   '7B'-'Set Q                       'Q=1                  '
3042   8000             ;'SEX  r'EN'-'Set X                       'X=N                  '
3043   8000             ;'SHL   'FE'*'Shift Left                  '{DF,D}={DF,D,0}<-    '
3044   8000             ;'SHLC  '7E'*'Shift Left with Carry       '{DF,D}={DF,D}<-      '
3045   8000             ;----------------------------------------------------------------
3046   8000             ;----------------------------------------------------------------
3047   8000             ;'Mnem. 'Op'F'Description                 'Notes                '
3048   8000             ;'------+--+-+----------------------------+---------------------'
3049   8000             ;'SHR   'F6'*'Shift Right                 '{D,DF}=->{0,D,DF}    '
3050   8000             ;'SHRC  '76'*'Shift Right with Carry      '{D,DF}=->{D,DF}      '
3051   8000             ;'SKP   '38'-'Short Skip                  'See NBR              '
3052   8000             ;'SMB   '77'*'Subtract Memory with Borrow '{DF,D}=D-mx-{~DF}    '
3053   8000             ;'SMBI i'7F'*'Subtract Mem with Borrow Imm'{DF,D}=D-mp-~DF,p=p+1'
3054   8000             ;'SM    'F7'*'Subtract Memory             '{DF,D}=D-mx          '
3055   8000             ;'SMI  i'FF'*'Subtract Memory Immediate   '{DF,D}=D-mp,p=p+1    '
3056   8000             ;'STR  r'5N'-'Store via N                 'mn=D                 '
3057   8000             ;'STXD  '73'-'Store via X and Decrement   'mx=D,x=x-1           '
3058   8000             ;'XOR   'F3'*'Logical Exclusive OR        'D={mx}.D             '
3059   8000             ;'XRI  i'FB'*'Logical Exclusive OR Imm.   'D={mp}.D,p=p+1       '
3060   8000             ;'      '  '-'Interrupt action            'T={X,P},P=1,X=2,IE=0 '
3061   8000             ;'------+--+-+--------------------------------------------------'
3062   8000             ;'      '??' '8-bit hexadecimal opcode                          '
3063   8000             ;'      '?N' 'Opcode with register/device in low 4/3 bits       '
3064   8000             ;'      '  '-'DF flag unaffected                                '
3065   8000             ;'      '  '*'DF flag affected                                  '
3066   8000             ;'-----------+--------------------------------------------------'
3067   8000             ;' mn        'Register addressing                               '
3068   8000             ;' mx        'Register-indirect addressing                      '
3069   8000             ;' mp        'Immediate addressing                              '
3070   8000             ;' R( )      'Stack addressing (implied addressing)             '
3071   8000             ;'-----------+--------------------------------------------------'
3072   8000             ;'DFB n(,n)  'Define Byte                                       '
3073   8000             ;'DFS n      'Define Storage block                              '
3074   8000             ;'DFW n(,n)  'Define Word                                       '
3075   8000             ;'-----------+--------------------------------------------------'
3076   8000             ;' D         'Data register (accumulator, 8-bit)                '
3077   8000             ;' DF        'Data Flag (ALU carry, 1-bit)                      '
3078   8000             ;' I         'High-order instruction digit (4-bit)              '
3079   8000             ;' IE        'Interrupt Enable (1-bit)                          '
3080   8000             ;' N         'Low-order instruction digit (4-bit)               '
3081   8000             ;' P         'Designates Program Counter register (4-bit)       '
3082   8000             ;' Q         'Output flip-flop (1-bit)                          '
3083   8000             ;' R         '1 of 16 scratchpad Registers(16-bit)              '
3084   8000             ;' T         'Holds old {X,P} after interrupt (X high, 8-bit)   '
3085   8000             ;' X         'Designates Data Pointer register (4-bit)          '
3086   8000             ;'-----------+--------------------------------------------------'
3087   8000             ;' mn        'Memory byte addressed by R(N)                     '
3088   8000             ;' mp        'Memory byte addressed by R(P)                     '
3089   8000             ;' mx        'Memory byte addressed by R(X)                     '
3090   8000             ;' m?        'Memory byte addressed by R(?)                     '
3091   8000             ;' n         'Short form for R(N)                               '
3092   8000             ;' nh        'High-order byte of R(N)                           '
3093   8000             ;' nl        'Low-order byte of R(N)                            '
3094   8000             ;' p         'Short form for R(P)                               '
3095   8000             ;' pl        'Low-order byte of R(P)                            '
3096   8000             ;' r?        'Short form for R(?)                               '
3097   8000             ;' x         'Short form for R(X)                               '
3098   8000             ;'-----------+--------------------------------------------------'
3099   8000             ;' R(N)      'Register specified by N                           '
3100   8000             ;' R(P)      'Current program counter                           '
3101   8000             ;' R(X)      'Current data pointer                              '
3102   8000             ;' R(?)      'Specific register                                 '
3103   8000             ;'-----------+--------------------------------------------------'
3104   8000             ;' a         'Address expression                                '
3105   8000             ;' d         'Device number (1-7)                               '
3106   8000             ;' i         'Immediate expression                              '
3107   8000             ;' n         'Expression                                        '
3108   8000             ;' r         'Register (hex digit or an R followed by hex digit)'
3109   8000             ;'-----------+--------------------------------------------------'
3110   8000             ;' +         'Arithmetic addition                               '
3111   8000             ;' -         'Arithmetic subtraction                            '
3112   8000             ;' *         'Arithmetic multiplication                         '
3113   8000             ;' /         'Arithmetic division                               '
3114   8000             ;' &         'Logical AND                                       '
3115   8000             ;' ~         'Logical NOT                                       '
3116   8000             ;' v         'Logical inclusive OR                              '
3117   8000             ;' .         'Logical exclusive OR                              '
3118   8000             ;' <-        'Rotate left                                       '
3119   8000             ;' ->        'Rotate right                                      '
3120   8000             ;' { }       'Combination of operands                           '
3121   8000             ;' ?         'Hexadecimal digit (0-F)                           '
3122   8000             ;' -->       'Input pin                                         '
3123   8000             ;' <--       'Output pin                                        '
3124   8000             ;' <-->      'Input/output pin                                  '
3125   8000             ;----------------------------------------------------------------
3126   8000             
3127   8000             
3128   8000             ;RAM ALLOCATION
3129   FFFF             	.ORG 0FFFFh
3130   FFFF             SD_CARD_REG
3131   FFFF             
3132   C000             	.ORG 0C000h
3133   C000             
3134   C000             SD_RAM_BUFFER	.DS	512	;SECTOR BUFFER  ;MUST start at xx00
3135   C200             SD_DIR_LIST	.DS	12*256	;Directory Listing for sorting
3136   CE00             
3137   CE00             	
3138   FA00             	.ORG 0FA00h
3139   FA00             VIDEO_PAGE1	.DS	256
3140   FB00             VIDEO_PAGE2	.DS	256
3141   FC00             VIDEO_PAGE3	.DS	256
3142   FD00             
3143   FD00             	.ORG 0FD00h
3144   FD00             FULLPATH	.DS	256	;DIRECTORY NAME (GROWS WITH SUBDIRECTORIES)
3145   FE00             ;SPARE		.DS	128	;
3146   FE00             ;STACK		.DS	128
3147   FE00             
3148   FF00             	.ORG 0FF00h
3149   FF00             VIDEO_PAGE	.DS	1	;7F00 MUST bet at xx00h, low byte is used to clear R0
3150   FF01             PRINT_PAGE	.DS	1
3151   FF02             GH_ADDR		.DS	2	;HEX File, address of record
3152   FF04             GH_ERR_CNT	.DS	1	;HEX File, Count of ERRORS
3153   FF05             GH_FLAGS	.DS	1	;HEX File, Flag for EOF encountered (MUST FOLLOW GH_ERR_CNT)
3154   FF06             GH_START_ADDR	.DS	2	;HEX File, Start address given in 05 record type
3155   FF08             
3156   FF08             
3157   FF08             SD_PARAM_CMD	.DS	1	;Must be location before SD_PARAM
3158   FF09             SD_PARAM	.DS	4	;This 32 bit value is in BIG Endian for Sending to SD Card
3159   FF0D             SDC_STATUS	.DS	1	;Must be location after SD_PARAM
3160   FF0E             
3161   FF0E             SD_CARD_TYPE	.DS	1	;7F10
3162   FF0F             
3163   FF0F             SD_PART_TYPE	.DS	1	;Partition type
3164   FF10             
3165   FF10             				;8 BYTES FROM MBR
3166   FF10             SD_PART_BASE	.DS	4	;SD PARTITION STARTING RECORD
3167   FF14             SD_PART_SIZE	.DS	4	;SD PARTITION SIZE (Must follow SD_PART_BASE)
3168   FF18             
3169   FF18             				;10 BYTES FROM PARTION RECORD
3170   FF18             BYTE_P_SEC	.DS	2	;Bytes per Sector (Almost always 512)
3171   FF1A             SEC_PER_CLUS	.DS	1	;
3172   FF1B             RESERVED_SEC	.DS	2	;
3173   FF1D             FAT_COPIES	.DS	1	;
3174   FF1E             ROOTDIR_SIZE	.DS	2	;7F20
3175   FF20             FILESYS_SEC	.DS	4	;2 BYTES CHECKED FOR 0, OR 4 BYTES FROM SEC+20
3176   FF24             
3177   FF24             HIDDEN_SEC	.DS	4	;
3178   FF28             SEC_PER_FAT	.DS	2	;7F2A
3179   FF2A             FAT1START	.DS	4	;7F2C Calculated Sector to FAT1
3180   FF2E             DIR_SECTOR	.DS	4	;7F30 Calculated Sector to Root Directory
3181   FF32             DATASTART	.DS	4	;Calculated Sector to Data Area
3182   FF36             SEC_PTR		.DS	4	;7F38 Sector Pointer, general use variable that holds the last sector read
3183   FF3A             SEC_IDX		.DS	4	;Incrementing Index for Sectors (DIR or FILES)
3184   FF3E             FILENAME	.DS	8	;7F40 File Name
3185   FF46             FILEEXT		.DS	3	;File Extension
3186   FF49             DIR_SECTORS	.DS	1	;Directory Entry Size (pre loads SECTORS_REMAIN)
3187   FF4A             TEMP32		.DS	4	;7F4C
3188   FF4E             
3189   FF4E             
3190   FF4E             ;SDFCB:
3191   FF4E             FNAME		.DS	11	;7F50 File name 12 CHARS for multi use
3192   FF59             FATTRIB		.DS	1	;File Attribute
3193   FF5A             FCLUS0		.DS	2	;7F5C First Cluster of File as given by the Directory Entry.
3194   FF5C             FSIZE		.DS	4	;7F62 File Size
3195   FF60             CCLUS		.DS	2	;Current Cluster, set to FClus0, then updated with FAT
3196   FF62             DCLUS		.DS	2	;Directory Cluster
3197   FF64             FILE_COUNT	.DS	1	;
3198   FF65             
3199   FF65             SECTORS_REMAIN	.DS	1	;7F72 Count down sectors read in each cluster
3200   FF66             
3201   FF66             READ_RAM_SUB	.DS	4	;Subroutines in RAM for modification
3202   FF6A             WRITE_RAM_SUB	.DS	4	;MUST FOLLOW READ_RAM
3203   FF6E             PRINT_RAM_SUB	.DS	4	;MUST FOLLOW WRITE_RAM
3204   FF72             DIVIDE_SUB	.DS	4
3205   FF76             MOD_SUB		.DS	4	;
3206   FF7A             PUT_CHAR_SUB	.DS	4   	;
3207   FF7E             SELECT_DEFAULT	.DS	4
3208   FF82             READ_SHADOW_RAM	.DS	8	;
3209   FF8A             FILE_OUTPUT_SUB	.DS	4
3210   FF8E             FILE_EOF_SUB	.DS	4	;
3211   FF92             FILE_POS	.DS	4	;Count of location through the file
3212   FF96             PB1LEN		.DS	1	;Length of first line (May be less than 10h)
3213   FF97             FILE_TYPE	.DS	1	;ASC, HEX OR BINARY (1, 2, OR 3)
3214   FF98             LINE_SWITCHES	.DS	1	;R=BOOT RAM (80)
3215   FF99             COMMAND		.DS	1	;First letter of command
3216   FF9A             
3217   FF9A             SPARE		.DS	1
3218   FF9B             
3219   FF9B             VOLUME_NAME	.DS	11
3220   FFA6             
3221   FFA6             CONTINOUS	.DS	1	;Flag to indicate continous display of file/memory
3222   FFA7             	
3223   FFA7             				;Cursor position (Line/Pixel Position)
3224   FFA7             PIXIE_ROW	.DS	1	;ROW = 0, 1, 2, 3, 4.  
3225   FFA8             PIXIE_COL	.DS	1	;POS = 0 to 63 (PIXEL POSITION)
3226   FFA9             
3227   FFA9             MODMASK		.DS	1	;Mask for getting remainder when using Shift Divide.
3228   FFAA             DF_SHIFTCNT	.DS	1	;Count of shifts needed for divide
3229   FFAB             
3230   FFAB             CMD_PARAM	.DS	4	;Parameter entered in Command Line
3231   FFAF             SEC_READ_PTR	.DS	4	;7FA3 Parameter entered in Command Line
3232   FFB3             DEC_STR		.DS	10
3233   FFBD             DIR_BUFF_PTR	.DS	2
3234   FFBF             DISPLAY_FORMAT	.DS	1	;
3235   FFC0             CURSOR		.DS	1
3236   FFC1             
3237   FFC1             COMMAND_LINE	.DS	1	;Must be at end, code checks roll-over to xx00 for EOL
3238   FFC2~            		.IF (0FFFFh-$) < 20h  
3239   FFC2~            		!!!COMMAND-LINE-BUFFER-TOO-SMALL
3240   FFC2             		.ENDIF	  		  
3241   FFC2             
3242   FFC2                     .END



Label        Value      Label        Value      Label        Value
------------------      ------------------      ------------------
ADD_RA_RB_SUB 23E4      ADD32RB       247F      ADD32RE       2482      
ADD32RX       2483      BLANK         1E52      BLANK_LP      1E53      
BADHEX        1FB6      BITMAP        7F10      BEEPX         7F6E      
BEEP          7F6F      BEEPL         7F78      BYTE_P_SEC    FF18      
CALLR         0039      CHDIR         0327      CD_REMOVEPATH 036E      
CD_98         0380      CD_GG         0382      CD_GG2        0387      
CFTC_B        074F      CFTC_C        0752      CFTC_A        0755      
CFT_EN        0755      CFT_RET       075F      CLS_PRINT_PAGE 15B9      
CLS           15CA      CLS_LOOP      15CE      CHECK_PART_TYPE 1A43      
CPT_RET       1A69      CALC_SEC_IDX  1CC6      COMPARE_FNAME 1D99      
CF_LOOP       1D9F      CF_RET        1DA8      CMP_SWAP      1DFF      
CMPS_LP       1E0D      CMPS_1        1E18      CMPS_DOSWAP   1E1E      
CMPS_LP2      1E1F      COPYFN        1E2C      COPYFN_LP     1E2D      
COPYFN_RET    1E3F      CMPSTR        2267      CMPSTR_LP     226B      
CMPSTR_LP2    2273      CMPSTR_RET    2278      COPY_RAM_RA2RB 2338      
COPY_RAM_A2B_LP 2339      COPY_RAM_RB2RA 2341      COPY_RAM_B2A_LP 2342      
COPY_RAM_RE2RA 234A      COPY_RAM_E2A_LP 234B      COPY_RAM_RE2RB 2353      
COPY_RAM_E2B_LP 2354      CLR32_RA_SUB  241F      CLR32_RB_SUB  2422      
CLR32_RE_SUB  2425      CLR32_RX_SUB  2426      CMP_PTRA_PTRB 24A0      
CPAPB_1       24BC      CPAPB_2       24BE      CPAPB_3       24C0      
CPY32_RA2RB   24EC      CPY32_RB2RA   2500      CPY32_RE2RA   2503      
CPY32_RX2RA   2504      COPYPAGECOL_LR 2831      CPC_LR_LP     2837      
CPC_LR_0      2840      CPC_LR_RET    284D      COPYPAGECOL_LL 284E      
CPC_LL_LP     2852      CPC_LL_0      285B      CLEAR10       7E29      
CCLUS         FF60      COMMAND       FF99      CONTINOUS     FFA6      
CMD_PARAM     FFAB      CURSOR        FFC0      COMMAND_LINE  FFC1      
DIRFLAG       0028      DC_SEEK_SLASH 0377      DUMP_ASC_LINE 0949      
DAL_LP1       0966      DAL_1         096F      DAL_LP2       0975      
DAL_NP        0984      DAL_PC        0986      DD_NEXT       0E73      
DD_SAMELINE   0E82      DD_RET        0E8E      DUMP_LP       1127      
DUMP_RET      112D      DIVBYSHIFT    1ACE      DBS_LP        1AD3      
DBS_RET       1AE1      DIV16BY8SPC   1B86      DIR_INIT      1BFA      
DIR_NOVOLUME  1C45      DEC_CLEAR     1C4C      DI_SUB_FAT_HOP 1C54      
DI_SUB        1C5A      DI_SUB1       1C5F      DIR_FETCH     1C9A      
DEFAULT_SERIAL 200E      DEFAULT_PIXIE 201A      DELAY         222D      
DELAY_D       222F      DEC32_RC      2519      DEC32_RB      251C      
DEC32_RX      251D      DEC32RX_EX2   253B      DEC32RX_EX3   253D      
DUMP_RA       255E      DUMP_RB       2571      DUMP_RC       2584      
DUMP_REG      2596      DUMP_RD       25A2      DEC_WEIGHTS   2675      
DOPAGELEFT    2865      DPL_LP        2868      DISP          7F53      
DISP1         7F67      DISPLAY       7FC6      DISPLAY1      7FCC      
DISMEMX       7FDC      DISMEM        7FDD      DISMEM1       7FEA      
DIR_SECTOR    FF2E      DATASTART     FF32      DIR_SECTORS   FF49      
DCLUS         FF62      DIVIDE_SUB    FF72      DF_SHIFTCNT   FFAA      
DEC_STR       FFB3      DIR_BUFF_PTR  FFBD      DISPLAY_FORMAT FFBF      
ENTERCOMMAND  01EE      ENTER_OR_ESC  0900      EOE_LP        0926      
EOE_0         0938      EOE_RET       093B      EOE_C         093C      
EOE_T         0943      EOE_1         0945      ENTERLOOP1    119A      
E_CTRL        11DA      ENTER_EXIT    11E4      EOF_SUB       1251      
EF_DUMP       275A      FULLPATH_EOS  03C4      FP_LP         03C9      
FP_EOS        03D0      FCL_ADDRESS   0999      FCLA_FEXT     09BE      
FCL_FILETYPE  0A06      FCLF_NOTTXT   0A18      FCLF_NOTHEX   0A25      
FCLR_EX       0A30      FCLF_RET      0A35      FCL_SWITCHES  0A3D      
FCLS_LP       0A42      FCLS_0        0A5E      FETCHADDR     11E5      
FAT_SUB1      1A6A      FAT_SUB2      1A8F      FAT_HOP       1B87      
FH_OK         1BBC      FAT_HOP_RET   1BF1      FNDNEXT_LP    1F00      
FINDNEXT      1F01      FNDNEXT_END   1F09      FNDSPACE_LP   1F0A      
FINDSPACE     1F0B      FNDSPACE_END  1F13      FONT          2A0D      
FSPACE        2A0D      FEND          2A0F      FEXCL         2A10      
FDQUO         2A11      FHASH         2A13      FDOL          2A18      
FPER          2A1B      FAMP          2A20      FSQUO         2A24      
FOPAR         2A25      FCPAR         2A27      FAST          2A29      
FPLUS         2A2E      FCOMA         2A31      FMINUS        2A33      
FPERIOD       2A36      FFSLASH       2A37      F0            2A3C      
F1            2A3F      F2            2A42      F3            2A45      
F4            2A48      F5            2A4B      F6            2A4E      
F7            2A51      F8            2A54      F9            2A57      
FCOL          2A5A      FSCOL         2A5B      FLESST        2A5D      
FEQU          2A60      FGREATT       2A63      FQUES         2A66      
FATT          2A69      FA            2A6E      FB            2A71      
FC            2A74      FD            2A77      FE            2A7A      
FF            2A7D      FG            2A80      FH            2A84      
FI            2A87      FJ            2A8A      FK            2A8D      
FL            2A90      FM            2A93      FN            2A98      
FO            2A9D      FP            2AA0      FQ            2AA3      
FR            2AA7      FS            2AAA      FT            2AAD      
FU            2AB0      FV            2AB3      FW            2AB6      
FX            2ABB      FY            2AC0      FZ            2AC3      
FOBRACK       2AC6      FBSLASH       2AC8      FCBRACK       2ACD      
FCARROT       2ACF      FUSCORE       2AD2      FRQUOTE       2AD5      
FOBRACE       2AD7      FBAR          2ADA      FCBRACE       2ADB      
FTILD         2ADE      FTRUCKN       2AE2      FONTIDX       2B00      
FULLPATH      FD00      FAT_COPIES    FF1D      FILESYS_SEC   FF20      
FAT1START     FF2A      FILENAME      FF3E      FILEEXT       FF46      
FNAME         FF4E      FATTRIB       FF59      FCLUS0        FF5A      
FSIZE         FF5C      FILE_COUNT    FF64      FILE_OUTPUT_SUB FF8A      
FILE_EOF_SUB  FF8E      FILE_POS      FF92      FILE_TYPE     FF97      
GUESS_FILE_TYPE 0700      GFT_BIN       0729      GFT_EX        072B      
GFT_COUNT_0   0731      GFT_COUNT     0732      GET32_CMDLINE 1200      
GET32CL_LP    1215      GET32CL_EXIT  1232      GET32CL_END   1235      
GOVIP         13FD      GO_BIGRAM     1415      GB_0800       141A      
GOODALPHA     1FBA      GOODNUMB      1FBE      GOOD          1FC0      
GO_BIG_LP     2226      GO3           2769      GOE3          2773      
GO4           2783      GOE4          278E      GETADDR       7E6F      
GETKEY        7F95      GETBYTE       7FBA      GH_ADDR       FF02      
GH_ERR_CNT    FF04      GH_FLAGS      FF05      GH_START_ADDR FF06      
HEX_INIT      0CCF      HEX_EOF_SUB   0D00      HES_ERRS      0D1B      
HES_NERRS     0D2B      HES_NOEOF     0D4A      HES_NO_SAR    0D66      
HES_RET       0D81      HEXOUT        1F78      HEXINP        1F7C      
HERE1         7E08      HERE2         7E51      HIDDEN_SEC    FF24      
INTRET        0019      ISR           001B      ISRDISP       0029      
INIT_SDCARD   1700      ISD_0         1710      ISD_LP1       1732      
INIT_FAIL1    173F      INIT_FAIL2    1746      INIT_FAIL     174D      
ISD_1         175E      ISD_2         1782      ISD_3         179A      
ISD_LP2       17AE      ISD_4         17C5      ISD_5         17F5      
ISD_6         17FE      INIT_FAT      1874      INITFAT_FAIL  1884      
IFIS_GOOD     1899      INITFAT_C1_DONE 18D7      INITFAT_C2_LP 18EB      
INITFAT_C2_DONE 1907      INITFAT_C3_LP 1919      INITFAT_C3_ERR 1931      
INITFAT_C3_0  194A      INITFAT_C3_LP2 194D      INITFAT_C3_LP3 1966      
INITFAT_C3_1  1985      INITFAT_C4_LP 19B6      INITFAT_C4_1  19BC      
INITFAT_C4_2  19D4      INITFAT_C4_3  19E2      INITFAT_TFS_OK 1AB2      
INITFAT_TFS_DONE 1AB9      ISDOT         1E40      ISDOT_RET     1E4F      
ISDOT_RET_DF  1E51      INPUTBYTE     1F30      INPUTBRET     1F40      
INPUTHEX      1F41      INPUTHEX_CTRL 1F50      ISHEX         1FA2      
INIT_PTRA     232E      INC32_RA      24C3      INC32_RB      24C6      
INC32_RD      24C9      INC32_RX      24CA      INC32RB_EX2   24E8      
INC32RX_EX3   24EA      INSTR         25C0      INSTR_LP      25C3      
INSTR_FOUND   25CF      INSTR_RET     25D3      ISRAM         7E22      
INDEX         7F00      INTRET0       7F43      INTRET1       7F44      
INT           7F46      KP_END        0168      KEY           7F94      
KEYN          7F98      KEYFOUND      7FA1      LOAD_PARAM    1B5C      
LOAD_DIR      1D2E      LRD_NEXT      1D46      LRD_PROC      1D4B      
LRD_FILE      1D68      LRD_COUNT     1D73      LRD_RET       1D85      
LDR_FAT_ERROR 1D89      LONG_DELAY    2225      LDI_RA_SUB    22F4      
LDI_RB_SUB    22FA      LDI_RC_SUB    2300      LDI_RD_SUB    2306      
LDI_RE_SUB    230C      LDD_SUB       2328      LD_RA_SUB     235C      
LD_RB_SUB     2368      LD_RC_SUB     2374      LD_RD_SUB     2380      
LDI32_RA_SUB  246D      LDI32_RB_SUB  2470      LDI32_RX_SUB  2471      
LINE_SWITCHES FF98      MAINRUN       005A      MNOKEY        0192      
MNOPIXIE      01A5      MNO_NOCARD    01B0      MNO_CARD_EX   01BD      
MSEL_LP       01C0      MSEL_1        01CC      MSERIAL       01D0      
MAIN_MENU     0201      MENU_LOOP     0201      MENU          0206      
MENU_DISPATCH 0233      MSG_WELCOME   03D2      MSG_SERIAL    03EC      
MSG_PIXIE     07F7      MSG_PRESENT2RAM 09F0      MENU_HELP     0EB1      
MSGET_COMMAND 1000      MSGC_LP       100C      MSGC_LPIN     100F      
MSGC_PRINTABLE 1017      MSGC_CTRL     1027      MSGC_ESC      103B      
MSGC_ESC_SEQ  1046      MSGC_RET      104F      MSGC_BS       1056      
MSGC_CARDIN   1063      MSGC_CARDOUT  1065      MSG_IN        113D      
MSG_FILENOTFOUND 1146      MSG_EXECUTE   1236      MSG_RUN       1246      
MK_EXECUTE    1274      MKEY          1300      MK_MENU       1312      
MKEY_LP       135B      MKEY_DISPATCH 1369      MKD_DIR       1371      
MKD_EXE       1391      MK_GETBYTE    13D4      MK_PRINT_YES_NO 13EB      
MK_DIR        141E      MK_DIR_1      1426      MKD_TOP       142C      
MKD_DOPAGE    143A      MKD_LP        1440      MKD_NUL       1455      
MKD_NEWLINE   145E      MKD_GETKEY    1467      MKD_RET       147A      
MKD_DOWN      147B      MKD_UP        1488      MKD_PICKOF5   149F      
MKDPICK_LP1   14A4      MKD_LOADFAIL  14C6      MKD_DIRNAME   14CA      
MK_DIR_INIT   1500      MKDI_SHOW     1524      MKDI_FAIL     15AC      
MKDI_FAIL1    15B2      MKDI_EXIT     15B5      MK_CURSOR     15B8      
MODBYMASK     1AE2      MM_LP1        1CEB      MM_NOADD      1CF3      
MM_DONE       1CF8      MONITOR       7E28      MREAD         7EEF      
MWRITE        7EF4      MOD_SUB       FF76      MODMASK       FFA9      
NOPIXIE       011C      NO_VIPKP      0156      NO_ELFKP      0162      
NEWLINE       2260      NOTRAM        7E12      PNOTSKIP      012C      
PRINT_MAIN_RAM 027F      PRINT_FULLPATH 0397      PUT_BINARY1_SUB 0760      
PB1_LP        078F      PUT_BINARY_SUB 0798      PB_1          07B7      
PB_2          07BD      PB_NOLABEL    07C5      PB_3          07E4      
PB_RET        07F6      PUT_CHAR_RNZ  0D82      PCR_TST_ESC   0D85      
PCR_0         0D8A      PARSE_FILENAME 0D8D      PF_NAME       0DAA      
PF_HELP       0DC1      PF_EX         0DD8      PRINT_FILE_TYPE 0E15      
PFT_UNK       0E26      PFT_BIN       0E32      PFT_ASC       0E3D      
PFT_HEX       0E47      PRINT_BOOT_RAM 125B      PRINT_PAGE_GET 15D6      
PPG_LOOP      15DC      PUT_SPACE_BYTE 2235      PUT_BYTE_SUB  223B      
PUT_HEX       224E      PHNUMB        2258      PRINT_SUB     2280      
PRINT_SUB_LP  2281      PRINT_SUB_RET 2289      PRINTZ_SUB    228B      
PRINTZ_SUB_LP 228C      PRINTZ_SUB_RET 2294      PRINTB_SUB    2296      
PRINT_FILENAME 229F      PF_FILENAME   22A4      PF_EXT        22A9      
PF_NOEXT      22BA      PF_PART       22BF      PF_LP1        22C0      
PF_END        22D1      PF_LP2        22D3      PF_DIR        22D9      
PRINTF_SUB    22E9      PRINTF_SUB_LP 22EA      PUT32_RA_MSG  2432      
PUT32_RA_SUB  243A      PUT32_RB_MSG  243D      PUT32_RB_SUB  2445      
PUT32_RX_SUB  2446      PUT_RA        2566      PUT_RB        2579      
PUT_RC        258C      PUT_RD        25AA      PUT_RE        25B5      
PRINT_DEC     2600      PD_CLP1       260B      PD_NEXTBIT    261A      
PD_BURNLP     2620      PD_ADD        2627      PD_ADDLP      262A      
PD_CARRY      2637      PD_NEXT_DIG   2638      PD_SHIFT      2641      
PD_PRINT      2659      PD_LZLP       2661      PD_GOPRINT    2669      
PD_PRINT_LP   266A      PRINTC        2901      PRINTC_LF     2911      
PRINTC_RET    2926      PRINTC_1      2931      PRINTC_2      293E      
PRINTC_VALID  2958      PPRINT        2960      PPRINT_LOOP1  2989      
PPRINT_LOOP2  298F      PPRINT_1      2997      PPRINT_CONT   29B0      
PPRINT_END    29BC      PPRINT_RET    29C2      PRINT_PAGE    FF01      
PRINT_RAM_SUB FF6E      PUT_CHAR_SUB  FF7A      PB1LEN        FF96      
PIXIE_ROW     FFA7      PIXIE_COL     FFA8      RETNR         004C      
RT_TT_LOOP    0095      RT_SV_LOOP    009D      RT_SV_DO      00A4      
RT_CH_LOOP    00B7      RT_CH_DO      00C1      RT_CLR_LOOP   00D7      
RT_BAD        00F2      RT_END        00F2      RTR_GOOD      013F      
RTR_END       0149      READ_SWITCHES 0A36      RUNRAM        1070      
READ_BOOT_RAM 112E      RBR_1         113B      RX_ANYKEY     14DA      
READ_MAIN_RAM 1626      RMB01         163D      RMB1X         164C      
RMB11         1656      READ_AND_TEST 1A2A      RXCHAR_SUB    2100      
RXELF         210E      RXELFGET      2118      RXVIP         2125      
RXVIPSCAN     212C      RXC_SERIAL    213E      RXVS_NOCURSOR 214B      
RXCN_NOCD     215E      RXGO          2166      RXCLOOP       216E      
RXCRET        2180      RXCEXIT       2187      RXELFKEY      2189      
RXVIPVKEY     218D      RXCCARDOUT    2191      RXCCARDIN     2198      
RXVS_RET      219E      RXVS_CURSOR   219F      RXVS_LP       21B0      
RXVS_NS       21BE      ROWTABLE      2A00      RESERVED_SEC  FF1B      
ROOTDIR_SIZE  FF1E      READ_RAM_SUB  FF66      READ_SHADOW_RAM FF82      
SS_DCMD       025D      SS_INIT_FAT   026A      SELECT_MAIN_RAM 0271      
SELECT_BOOT_RAM 0278      SM_SEC_READ   028C      SSR_0         029B      
SSR_1         02BC      SSR_2         02C9      SSR_3         02D6      
SM_CD         0300      SM_PRINT_FULL 0317      SM_ROOT       0390      
SMCD_FULL     03A0      SMCD_INVALID  03AA      SMCD_INVALID1 03B5      
SM_LOAD       0500      SML_1         050D      SML_GO        0545      
SML_CLUSTER_LP 0577      SML_LP1       057A      SML_SEND512   058E      
SML_SEND512_1 0594      SML_CHK_NEXT  05A1      SML_NEXT_SLICE 05A7      
SML_NEXT_SEC  05AC      SML_EXIT      05C3      SML_RET       05C8      
SML_USE       05C9      SLICE32K      05FA      SLICE32K_1    062A      
SLICE32K_2    063A      SLICE32K_3    063B      SLICE32K_4    0646      
SLICE32K_RET  0648      SB_EX         09EF      SET_OUTPUT    0B00      
SOL_BIN       0B20      SOL_HEX       0B54      SOL_SWITCHES  0B7B      
SOL_MAIN      0B88      SO_VIEW       0B8C      SOV_ASC       0B99      
SOV_BIN       0BA4      SM_HEX        0BC7      SMH_LP        0BE2      
SMH_RET       0BF5      SHDS_1        0CA6      SHDS_EX       0CB0      
SF_NOT_FOUND  0DDB      SEARCH_FILENAME 0DDF      SML_NEXT      0DE4      
SM_DIR        0E4F      SM_DUMP       1100      SM_DUMP_RD    1109      
SM_ENTER      1197      SS_EXECUTE    1268      SSE_SERIAL    12A1      
SSE_GO        12A7      SSE_BOOTRAM   12D6      SSE_SHADOW_RAM 12E6      
SELECT_MAINRAM 1600      SELECT_BOOTRAM 1613      SD_CMD        1805      
SDC_CMD8      181F      SDC_CMD0      1823      SDC_GOS       1825      
SDC_GO1       1826      SDC_LP        1835      SDC_RET       183F      
SPI_RX        1841      SHRRA_LP      1A0D      SS_CARD_OUT   1AEA      
SD_READ_SEC   1B01      SD_RS_LP0     1B0F      SD_RS_0       1B1E      
SD_RS_LP1     1B21      SD_RFAIL      1B2D      SD_RS_1       1B31      
SD_EXIT       1B47      SD_RS_READ256 1B52      SP_SHIFT      1B76      
SD_FETCH      1C6C      SD_FETCH1     1C6F      SD_TEST       1C74      
SD_TESTG      1C93      SD_LDIRNEXT   1C9F      SD_LN_0       1CBC      
SS_CARD_IN    1D10      SORT_DIR      1DAD      SD_GO         1DC3      
SD_LP         1DCC      SD_GD         1DD4      SD_LP2        1DE0      
SD_GD2        1DF0      SD_RET        1DFE      SD_CLEAR_ARG  1E5C      
SPACES        1F6E      SELECT_SERIAL 1FD3      SELECT_BOTH   1FEF      
SELECT_PIXIE  2002      SELECT_RD     2026      SELECT_NONE   2031      
STORE_STRING  2312      SS_LOOP       2318      SS_EXIT       231F      
STD_SUB       2321      ST_RA_SUB     238C      ST_RB_SUB     23A2      
ST_RC_SUB     23B8      ST_RD_SUB     23CE      SHL32_RA      2400      
SHL32_RB      2403      SHL32_RE      2406      SHL32_RX      2407      
SHIFTPAGE_LEFT 2800      SPL_LP        2804      SPL_EX        282C      
STARSHIP      2C00      SAVEREG       7E3E      SETQ          7F76      
SD_CARD_REG   FFFF      SD_RAM_BUFFER C000      SD_DIR_LIST   C200      
SD_PARAM_CMD  FF08      SD_PARAM      FF09      SDC_STATUS    FF0D      
SD_CARD_TYPE  FF0E      SD_PART_TYPE  FF0F      SD_PART_BASE  FF10      
SD_PART_SIZE  FF14      SEC_PER_CLUS  FF1A      SEC_PER_FAT   FF28      
SEC_PTR       FF36      SEC_IDX       FF3A      SECTORS_REMAIN FF65      
SELECT_DEFAULT FF7E      SPARE         FF9A      SEC_READ_PTR  FFAF      
TVK_END       007A      TEK_OK        0082      TK_END        0085      
TEST_SIGNATURE 1A2D      TS_END        1A42      TOHEX         1F81      
THBAD         1F9B      THNUMB        1F9C      THALFA        1F9F      
TOUPPER       1FC3      TUOK          1FCD      TUCHANGE      1FD0      
TXCHARIDL     2200      TXCHAR        2201      TXCLOOP       2207      
TXCRET        2219      TXCNOTCR      2222      TSTZ32_RB     253F      
TSTZ32_RC     2542      TSTZ32_RX     2543      TSTZ32RX_EX3  2556      
TSTZ32RX_EX2  2558      TSTZ32RX_EX1  255A      TSTZ32RX_EX0  255D      
TWRITE        7E97      TWRITE1       7E9E      TWRITE2       7EAD      
TREAD6        7EBD      TREAD         7EC2      TREAD1        7EC5      
TREAD2        7EC8      TREAD5        7ECF      TREAD3        7ED6      
TREAD4        7EE3      TAPEINX       7F82      TAPEIN        7F83      
TAPEIN1       7F87      TAPEIN2       7F8F      TEMP32        FF4A      
USCORE        1F56      USLOOP1       1F58      USLOOP2       1F62      
USE_TXCHARIDL 1FE3      VIPROM        7E00      VIDEO_PAGE1   FA00      
VIDEO_PAGE2   FB00      VIDEO_PAGE3   FC00      VIDEO_PAGE    FF00      
VOLUME_NAME   FF9B      WRITE_BINARY  0BB2      WB_LP         0BB2      
WB_1          0BB8      WB_EX         0BC4      WRITE_HEX     0C00      
WH_SEND512    0C00      WH_1          0C06      WH_NEXT       0C09      
WH_EX         0C0F      WH_WAIT       0C12      WH_INIT       0C17      
WH_FETCH_HIGH 0C22      WHHA          0C2B      WH_FETCH_LOW  0C35      
WHLA          0C3E      WH_DO_COUNT   0C4B      WH_DO_ADDR_HIGH 0C52      
WH_DO_ADDR_LOW 0C59      WHDAL_EX      0C6D      WH_DO_TYPE    0C72      
WHDT_1        0C83      WHDT_EX       0C93      WH_DO_START   0C98      
WH_DO_DATA    0CB2      WH_DO_CHECKSUM 0CBD      WH_NO_ERROR   0CCA      
WRITE_RAM_BLOCK 115D      WRB01         116F      WRB1X         1179      
WRB_LOOP      1180      WRB_DO        1187      WRB11         118D      
WRITE_MAIN_RAM 1665      WMB01         167B      WMB1X         1689      
WMB11         1694      WAIT_NOT_BUSY 184C      WNB_LP        184F      
WNB_LP2       1858      WNB_0         1865      WNB_DELAY_LP  1867      
WORDEND       1F14      WRDEND_LP     1F1C      WRDENDZ       1F24      
WRDEND_END    1F25      WORDBEGIN     1F25      WRDBEGIN_END  1F2F      
WRITE_RAM_SUB FF6A      


ADDR  00 01 02 03 04 05 06 07 08 09 0A 0B 0C 0D 0E 0F
-----------------------------------------------------
0000  90 B1 B4 B5 B9 F8 1B A1 F8 FE B2 A2 F8 39 A4 F8
0010  4C A5 F8 00 B3 F8 5A A3 D3 42 70 22 78 22 52 C4
0020  F8 00 A0 F8 FF B0 40 B0 20 80 E2 E2 20 A0 E2 20
0030  A0 E2 20 A0 3C 29 30 19 D3 BF E2 22 86 73 96 73
0040  83 A6 93 B6 46 B3 46 A3 9F 30 38 D3 BF 96 B3 86
0050  A3 12 42 B6 E2 42 A6 9F 30 4B E3 65 70 65 31 E3
0060  E3 E3 62 07 65 20 65 10 65 01 3F 7A 65 00 36 7A
0070  62 0C F8 80 B9 3E 85 C0 13 FD 65 11 7A 37 82 7B
0080  37 85 F8 40 B9 7A 65 21 65 11 65 01 D4 1F D3 D4
0090  03 D2 EA F8 FB AC AB F8 C0 BA F8 00 AA 2B 8B 5A
00A0  3A A4 8C AB 1A 9A FC 01 3A 9D 8A FC 01 3A 9D F8
00B0  C0 BA F8 00 AA 8C AB 2B 8B F3 3A F2 F3 3A C1 8C
00C0  AB 1A 9A FC 01 3A B7 8A FC 01 3A B7 8C FC 18 3B
00D0  95 F8 C0 BA F8 00 AA F8 FF 5A F3 3A F2 F8 00 5A
00E0  F3 3A F2 1A 9A FC 01 3A D7 8A FC 01 3A D7 99 F9
00F0  04 B9 D4 1F D3 D4 23 12 FF 82 07 E3 65 61 0D 65
0100  60 D5 F8 FA D4 23 21 FF 00 1E 5E F8 00 B0 69 D4
0110  15 B9 90 32 1C 99 F9 01 B9 D4 1F EF D4 07 F7 99
0120  FA 01 3A 2C D4 22 80 4E 4F 54 20 00 D4 09 F0 99
0130  FA 04 3A 3F D4 22 80 42 41 44 0D 0A 00 30 49 D4
0140  22 80 47 4F 4F 44 0D 0A 00 99 FE 3B 56 D4 22 80
0150  56 49 50 00 30 68 FE 3B 62 D4 22 80 45 4C 46 00
0160  30 68 D4 22 80 4E 4F 00 D4 22 80 20 4B 45 59 50
0170  41 44 0D 0A 00 D4 20 02 99 F6 3B A5 FA 60 32 92
0180  D4 22 80 43 4F 4E 54 49 4E 55 45 3F 00 D4 13 EB
0190  30 A5 D4 22 80 55 53 45 20 53 45 52 49 41 4C 20
01A0  4F 4E 4C 59 00 D4 1F D3 3F B0 99 F9 10 B9 30 BD
01B0  D4 22 80 4E 6F 20 43 61 72 64 0D 0A 00 D4 03 EC
01C0  D4 21 00 32 D0 FF 01 3A CC D4 13 00 FF 19 3B C0
01D0  61 99 FA FE B9 D4 1F D3 D4 20 0E F8 20 D4 23 21
01E0  FF BF D4 18 74 D4 1D 2E D4 22 60 D4 02 71 D4 22
01F0  80 0D 0A 45 6E 74 65 72 20 43 6F 6D 6D 61 6E 64
0200  00 D4 02 06 30 01 D4 10 00 D4 22 60 D4 23 2E FF
0210  C1 D4 1F 01 D4 1F C3 D4 23 21 FF 99 D4 25 C0 45
0220  58 4D 42 49 53 44 4C 56 43 48 19 15 00 52 FE F4
0230  FC 33 A3 C0 0E B1 C0 11 97 C0 12 68 C0 02 71 C0
0240  02 78 C0 02 6A C0 02 8C C0 02 5D C0 05 00 C0 05
0250  00 C0 03 00 C0 0B C7 C0 1D 10 C0 1A EA 1A 0A D4
0260  1F C3 FB 49 C2 0E 4F C0 11 00 D4 18 74 D4 1D 2E
0270  D5 D4 16 00 D4 02 7F D5 D4 16 13 D4 12 5B D5 D4
0280  22 80 4D 41 49 4E 2D 52 41 4D 00 D5 D4 12 00 3A
0290  9B D4 22 F4 FF AF D4 24 C3 30 C9 D4 0A 36 D4 23
02A0  28 FF 98 FA 10 32 BC D4 23 5C FF AB D4 23 8C FF
02B0  60 D4 1C C6 D4 22 F4 FF 3A C0 02 D6 D4 22 FA FF
02C0  AB D4 22 F4 FF AF D4 25 00 D4 22 FA FF AF D4 22
02D0  F4 FF 3A D4 25 00 D4 22 80 0D 0A 53 45 43 3A 00
02E0  D4 24 3A D4 1B 01 D4 23 06 C0 00 D4 16 13 C0 11
02F0  09 65 73 73 61 67 65 41 00 00 A2 00 44 69 73 70
0300  D4 22 F4 FF C2 D4 1F 01 1A 1A D4 1F 01 32 17 D4
0310  0D 8D 32 AA D4 03 27 F8 0D D4 FF 7A D4 03 97 D4
0320  22 80 1B 5B 4B 00 D5 D4 22 F4 FF 4E D4 22 67 5C
0330  00 32 90 D4 0D DF 32 AA D4 23 28 FF 59 FA 10 32
0340  AA D4 22 F4 FF 4E D4 22 67 2E 2E 00 32 6E D4 03
0350  C4 32 A0 FC 0C 33 A0 D4 20 26 D4 22 F4 FF 4E D4
0360  22 9F D4 FF 7E F8 5C 5D 1D F8 00 5D 30 82 D4 03
0370  C4 FF 01 32 82 2D 2D 0D FF 5C 32 80 2D 8D 3A 77
0380  1D 5D D4 23 68 FF 5A D4 23 A2 FF 62 D4 1D 2E D5
0390  D4 22 FA 00 00 30 87 D4 22 F4 FD 00 D4 22 8B D5
03A0  D4 22 80 46 55 4C 4C 00 30 B5 D4 22 80 49 6E 76
03B0  61 6C 69 64 00 D4 22 80 20 44 69 72 65 63 74 6F
03C0  72 79 00 D5 D4 23 06 FD 00 0D 32 D0 1D 8D 3A C9
03D0  8D D5 D4 22 80 45 4C 46 20 49 49 20 53 44 20 43
03E0  41 52 44 20 76 30 2E 32 0D 0A 00 D5 D4 22 80 3C
03F0  41 6E 79 3E 20 74 6F 20 63 61 6E 63 65 6C 20 50
0400  49 58 49 45 20 61 6E 64 20 72 75 6E 20 53 65 72
0410  69 61 6C 20 49 6E 74 65 72 66 61 63 65 20 6F 6E
0420  6C 79 0D 0A 00 D5 61 64 49 63 6F 6E 57 00 58 00
0430  43 72 65 61 74 65 49 63 6F 6E 46 72 6F 6D 52 65
0440  73 6F 75 72 63 65 00 00 59 00 43 72 65 61 74 65
0450  49 63 6F 6E 46 72 6F 6D 52 65 73 6F 75 72 63 65
0460  45 78 00 00 CF 01 4C 6F 6F 6B 75 70 49 63 6F 6E
0470  49 64 46 72 6F 6D 44 69 72 65 63 74 6F 72 79 45
0480  78 00 BD 01 4C 6F 61 64 49 6D 61 67 65 41 00 00
0490  91 00 44 65 6C 65 74 65 4D 65 6E 75 00 00 97 00
04A0  44 65 73 74 72 6F 79 4D 65 6E 75 00 99 02 53 79
04B0  73 74 65 6D 50 61 72 61 6D 65 74 65 72 73 49 6E
04C0  66 6F 41 00 BC 00 44 72 61 77 54 65 78 74 41 00
04D0  4A 00 43 6F 70 79 52 65 63 74 00 00 F2 01 4F 66
04E0  66 73 65 74 52 65 63 74 00 00 5A 01 47 65 74 53
04F0  79 73 43 6F 6C 6F 72 00 7B 01 47 65 74 57 69 6E
0500  D4 1F 0B D4 1F 01 32 C9 D4 0D 8D 32 C8 D4 0D DF
0510  32 C8 F8 00 D4 23 21 FF A6 D4 23 21 FF 97 D4 0A
0520  06 D4 09 99 D4 0A 3D D4 23 28 FF 97 3A 45 D4 22
0530  80 47 55 45 53 53 49 4E 47 00 D4 23 28 FF BF D4
0540  FF 7A D4 07 00 D4 0E 15 D4 22 80 2C 20 00 D4 23
0550  28 FF BF D4 FF 7A D4 22 80 46 49 4C 45 20 53 49
0560  5A 45 3D 00 D4 22 F4 FF 5C D4 26 00 D4 22 60 D4
0570  0B 00 D4 05 FA 32 C3 D4 1C C6 D4 1B 01 D4 23 06
0580  C0 00 99 FA 20 32 8E D4 FF 8A 32 C3 30 A1 8C 3A
0590  94 9C 32 A7 2C 0D D4 FF 8A 32 C3 1D 9D FB C2 3A
05A0  8E 8C 3A AC 9C 3A AC D4 05 FA 32 C3 D4 23 06 FF
05B0  3A D4 24 C9 D4 23 28 FF 65 FF 01 5E 3A 7A D4 1B
05C0  87 3A 77 D4 FF 8E F8 01 D5 D4 22 80 0D 0A 55 53
05D0  45 3A 20 43 4D 44 20 3C 46 49 4C 45 4E 41 4D 45
05E0  3E 20 5B 61 64 64 72 5D 20 5B 2F 61 7C 2F 62 7C
05F0  2F 68 20 2F 52 5D 0D 0A 00 D5 D4 23 00 FF 5C D4
0600  25 42 32 48 D4 23 74 FF 5C 9C FE 33 3A D4 23 74
0610  FF 5E 9C 3A 2A 8C 3A 2A D4 23 74 FF 5C F8 FF BF
0620  F8 5C AF F8 00 5F 1F 5F 30 46 2C D4 23 B8 FF 5E
0630  D4 23 74 FF 5C 9C F9 80 30 3B F6 BC D4 23 B8 FF
0640  5C D4 23 00 80 00 F8 01 D5 00 35 01 47 65 74 4D
0650  65 6E 75 49 74 65 6D 49 6E 66 6F 57 00 00 8E 01
0660  49 6E 73 65 72 74 4D 65 6E 75 49 74 65 6D 41 00
0670  8F 01 49 6E 73 65 72 74 4D 65 6E 75 49 74 65 6D
0680  57 00 79 00 44 64 65 49 6E 69 74 69 61 6C 69 7A
0690  65 41 00 00 7A 00 44 64 65 49 6E 69 74 69 61 6C
06A0  69 7A 65 57 00 00 29 00 43 68 61 72 4C 6F 77 65
06B0  72 57 00 00 30 00 43 68 61 72 54 6F 4F 65 6D 41
06C0  00 00 33 00 43 68 61 72 54 6F 4F 65 6D 57 00 00
06D0  37 00 43 68 61 72 55 70 70 65 72 57 00 00 60 00
06E0  43 72 65 61 74 65 57 69 6E 64 6F 77 45 78 41 00
06F0  61 00 43 72 65 61 74 65 57 69 6E 64 6F 77 45 78
0700  D4 1C C6 D4 1B 01 D4 23 06 C0 00 D4 22 FA 00 00
0710  D4 23 00 00 00 D4 07 32 D4 07 31 8B 3A 29 8C FF
0720  07 F8 01 3B 2B F8 02 30 2B F8 03 D4 23 21 FF 97
0730  D5 1D 4D FF 09 3B 4F FF 02 3B 55 FF 02 3B 4F 32
0740  55 FF 13 3B 4F FF 1A 3B 55 32 52 FF 45 3B 55 1B
0750  30 55 1C 30 55 8D 3A 32 8B 32 5F 2B 8B F6 AB D5
0760  F8 10 D4 23 21 FF 96 D4 23 12 FF 8A 04 D4 07 98
0770  D5 D4 23 5C FF 92 8A FA 0F 32 98 FD 10 D4 23 21
0780  FF 96 FD 10 D4 22 60 D4 25 66 52 FE F4 AA 1A F8
0790  20 D4 FF 7A 2A 8A 3A 8F D4 23 5C FF 92 8A 52 FA
07A0  0F 3A C5 D4 22 60 D4 23 68 FF 94 9B 32 B7 D4 22
07B0  3B 8B D4 22 3B 30 BD 8B 32 BD D4 22 3B D4 25 66
07C0  F8 20 D4 FF 7A D4 22 F4 FF 92 D4 24 C3 F8 20 D4
07D0  FF 7A D4 FF 66 D4 22 3B 3D E4 D4 23 28 FF A6 32
07E0  E4 F8 00 D5 02 FA 0F FB 0F 3A F6 D4 09 49 02 FC
07F0  01 3A F6 D4 09 00 D5 D4 22 80 50 49 58 49 45 2D
0800  00 D5 00 00 00 00 00 00 00 00 00 00 00 00 00 00
0810  00 00 00 00 00 00 00 00 00 00 00 00 00 00 00 00
0820  00 00 00 00 00 00 00 00 00 00 00 00 00 00 00 00
0830  00 00 00 00 00 00 00 00 00 00 00 00 00 00 00 00
0840  00 00 00 00 00 00 00 00 00 00 00 00 00 00 00 00
0850  00 00 00 00 00 00 00 00 00 00 00 00 00 00 00 00
0860  00 00 00 00 00 00 00 00 00 00 00 00 00 00 00 00
0870  00 00 00 00 00 00 00 00 00 00 00 00 00 00 00 00
0880  00 00 00 00 00 00 00 00 00 00 00 00 00 00 00 00
0890  00 00 00 00 00 00 00 00 00 00 00 00 00 00 00 00
08A0  00 00 00 00 00 00 00 00 00 00 00 00 00 00 00 00
08B0  00 00 00 00 00 00 00 00 00 00 00 00 00 00 00 00
08C0  00 00 00 00 00 00 00 00 00 00 00 00 00 00 00 00
08D0  00 00 00 00 00 00 00 00 00 00 00 00 00 00 00 00
08E0  00 00 00 00 00 00 00 00 00 00 00 00 00 00 00 00
08F0  00 00 00 00 00 00 00 00 00 00 00 00 00 00 00 00
0900  D4 23 28 FF A6 3A 43 D4 22 80 0D 0A 45 4E 54 45
0910  52 2C 20 45 53 43 2C 20 4F 52 20 43 4F 4E 54 49
0920  4E 55 4F 55 53 00 D4 21 00 D4 1F C3 FB 0D 32 45
0930  FB 4E 32 3C FB 58 3A 26 F8 00 F6 D5 F8 01 D4 23
0940  21 FF A6 35 38 F8 03 F6 D5 D4 22 80 20 7C 20 00
0950  D4 23 28 FF 96 AA 52 8D F7 AD 9D BA 7F 00 BD 1D
0960  8A FD 10 32 6F AA F8 20 D4 FF 7A 2A 8A 3A 66 D4
0970  23 28 FF 96 AA D4 FF 66 FF 20 3B 84 FF 60 33 84
0980  FC 80 30 86 F8 20 D4 FF 7A 1D 2A 8A 3A 75 2D 9A
0990  BD F8 10 D4 23 21 FF 96 D5 D4 22 F4 FF 92 D4 24
09A0  1F D4 23 2E FF C1 D4 1F 01 D4 1F 0B D4 1F 01 D4
09B0  11 E5 32 BE 9D BA 8D AA D4 23 8C FF 92 D5 D4 22
09C0  F4 FF 56 4A FF 42 3A EF 4A D4 1F 81 3B EF FE FE
09D0  FE FE 52 0A D4 1F 81 3B EF F1 BA F8 00 AA D4 23
09E0  8C FF 92 D4 23 8C FF 06 F8 03 D4 23 21 FF 97 D5
09F0  D4 22 80 50 52 45 53 45 4E 54 0D 0A 53 59 53 20
0A00  52 41 4D 2D 00 D5 D4 22 F4 FF 56 D4 22 67 54 58
0A10  54 00 3A 18 F8 01 30 30 D4 22 67 48 45 58 00 3A
0A20  25 F8 02 30 30 D4 22 67 42 49 4E 00 3A 35 F8 03
0A30  D4 23 21 FF 97 D5 F8 00 D4 23 21 FF 98 D4 23 2E
0A40  FF C1 4A 32 35 FF 2F 3A 42 0A D4 1F C3 52 D4 25
0A50  C0 41 48 42 00 32 5E D4 23 21 FF 97 30 42 02 D4
0A60  25 C0 52 58 53 43 20 20 20 3F 00 32 42 AF 2F F8
0A70  2A BF 0F 52 D4 23 28 FF 98 F1 5E 30 42 00 00 00
0A80  00 00 00 00 00 00 00 00 00 00 00 00 00 00 00 00
0A90  00 00 00 00 00 00 00 00 00 00 00 00 00 00 00 00
0AA0  00 00 00 00 00 00 00 00 00 00 00 00 00 00 00 00
0AB0  00 00 00 00 00 00 00 00 00 00 00 00 00 00 00 00
0AC0  00 00 00 00 00 00 00 00 00 00 00 00 00 00 00 00
0AD0  00 00 00 00 00 00 00 00 00 00 00 00 00 00 00 00
0AE0  00 00 00 00 00 00 00 00 00 00 00 00 00 00 00 00
0AF0  00 00 00 00 00 00 00 00 00 00 00 00 00 00 00 00
0B00  D4 23 12 FF 8E 04 D4 12 51 D5 D4 23 28 FF 99 FF
0B10  56 32 8C 99 F9 20 B9 D4 23 28 FF 97 FF 02 32 54
0B20  D4 23 12 FF 8A 04 D4 0B B2 D5 D4 22 80 57 52 49
0B30  54 45 20 40 00 D4 23 5C FF 92 D4 23 8C FF 02 D4
0B40  25 66 D4 11 3D D4 23 28 FF BF D4 FF 7A D4 23 5C
0B50  FF 02 30 7B D4 23 12 FF 8A 08 D4 0C 00 D5 D4 0D
0B60  00 D5 D4 0C CF D4 22 80 48 45 58 2D 57 52 49 54
0B70  45 20 00 D4 23 28 FF BF D4 FF 7A D4 23 28 FF 98
0B80  FA 80 32 88 D4 02 78 D5 D4 02 71 D5 99 FA DF B9
0B90  D4 23 28 FF 97 FF 03 32 A4 D4 23 12 FF 8A 04 D4
0BA0  0D 82 D5 D5 D4 23 12 FF 8A 04 D4 07 60 D5 D4 16
0BB0  13 D5 8C 3A B8 9C 32 C4 2C 0D D4 FF 6A 1A 1D 9D
0BC0  FB C2 3A B2 F8 01 D5 D4 22 80 53 45 4E 44 20 48
0BD0  45 58 2C 20 3C 45 53 43 3E 2D 44 4F 4E 45 00 D4
0BE0  0C CF D4 23 06 C1 FF D4 21 00 5D FB 1B 32 F5 AC
0BF0  D4 0C 00 30 E2 D4 0D 00 D5 00 00 00 00 00 00 00
0C00  8C 3A 06 9C 32 0F 2C 88 A3 1D 9D FB C2 3A 00 F8
0C10  01 D5 0D FB 3A 3A 09 F8 22 A8 F8 00 A7 F8 4B B8
0C20  30 09 0D FA 4F FC C9 33 2B FC 37 FE FE FE FE BB
0C30  F8 35 A8 30 09 0D FA 4F FC C9 33 3E FC 37 52 9B
0C40  F1 52 BB 87 F4 A7 F8 22 A8 98 A3 9B AB F8 52 B8
0C50  30 09 9B BA F8 59 B8 30 09 9B AA D4 23 28 FF 05
0C60  FA 04 3A 6D 0E F9 04 5E D4 23 8C FF 06 F8 72 B8
0C70  30 09 9B 32 93 FF 01 3A 83 D4 23 28 FF 05 F9 01
0C80  5E 30 93 FF 04 3A 93 D4 23 28 FF 05 F9 02 5E F8
0C90  98 B8 D5 F8 B2 B8 30 09 8B 32 BD 2B FF 01 3A A6
0CA0  9B D4 23 21 FF 06 FF 01 3A B0 9B D4 23 21 FF 07
0CB0  30 09 8B 32 BD 2B 9B D4 FF 6A 1A 30 09 87 32 CA
0CC0  D4 23 28 FF 04 FC 01 32 CA 5E F8 12 A8 30 09 F8
0CD0  12 A8 F8 00 D4 23 21 FF 04 1E 5E D5 00 00 00 00
0CE0  00 00 00 00 00 00 00 00 00 00 00 00 00 00 00 00
0CF0  00 00 00 00 00 00 00 00 00 00 00 00 00 00 00 00
0D00  D4 22 80 0D 0A 45 4F 46 20 2D 20 00 D4 23 28 FF
0D10  04 3A 1B D4 22 80 4E 4F 00 30 2B D4 22 F4 FF 4A
0D20  D4 24 1F D4 23 21 FF 4A D4 26 00 D4 22 80 20 45
0D30  52 52 4F 52 53 20 00 D4 23 28 FF 05 F6 3B 4A D4
0D40  22 80 20 2A 45 4F 46 2A 20 00 F6 3B 66 D4 22 80
0D50  20 53 54 41 52 54 20 41 44 44 52 3D 00 D4 23 5C
0D60  FF 06 D4 25 66 D5 F6 3B 81 D4 22 80 20 46 49 52
0D70  53 54 20 41 44 44 52 3D 00 D4 23 5C FF 06 D4 25
0D80  66 D5 D4 FF 7A 35 8A F8 01 D5 F8 00 D5 D4 22 FA
0D90  FF 4E F8 0B D4 1E 52 D4 22 FA FF 4E D4 22 67 2E
0DA0  2E 00 3A AA 0A 5B 1B 5B 30 D8 F8 08 D4 1E 2C 3A
0DB0  C1 3B D8 D4 22 FA FF 56 F8 03 D4 1E 2C 33 C1 32
0DC0  D8 D4 22 80 0D 0A 42 61 64 20 66 69 6C 65 6E 61
0DD0  6D 65 0D 0A 00 F8 00 D5 F8 01 D5 D4 11 46 D5 D4
0DE0  1B FA 32 DB D4 1C 9A 32 DB D4 22 FA FF 4E D4 1D
0DF0  99 33 E4 D4 22 FA FF 59 8A FC 0B AA 0A 5B 1B 8A
0E00  FC 0F AA F8 06 D4 23 38 D4 23 68 FF 5A D4 23 A2
0E10  FF 60 F8 01 D5 D4 23 28 FF 97 FF 01 32 3D FF 01
0E20  32 47 FF 01 32 32 D4 22 80 55 4E 4B 4E 4F 57 4E
0E30  00 D5 D4 22 80 42 49 4E 41 52 59 00 D5 D4 22 80
0E40  41 53 43 49 49 00 D5 D4 22 80 48 45 58 00 D5 D4
0E50  22 80 56 6F 6C 75 6D 65 3A 20 00 D4 22 F4 FF 9B
0E60  D4 22 9F D4 22 60 D4 22 F4 C2 00 D4 23 28 FF 64
0E70  AC 32 8E D4 22 9F 2C 8C 32 8E 89 FF 40 3B 82 D4
0E80  22 60 89 FA 0F 32 73 F8 20 D4 FF 7A 30 82 D4 22
0E90  60 D4 22 F4 FF 4A D4 24 6D 00 00 00 00 D4 23 28
0EA0  FF 64 5A D4 26 00 D4 22 80 20 46 49 4C 45 53 00
0EB0  D5 D4 22 80 3F 3F 3F 0D 0A 44 49 52 2D 44 49 52
0EC0  45 43 54 4F 52 59 0D 0A 43 44 2D 43 48 41 4E 47
0ED0  45 20 44 49 52 45 43 54 4F 52 59 20 5B 7C 2E 2E
0EE0  5D 0D 0A 58 2D 45 58 45 43 55 54 45 20 4D 41 49
0EF0  4E 20 52 41 4D 20 5B 2F 52 5D 20 28 42 6F 6F 74
0F00  52 41 4D 29 0D 0A 53 2D 53 45 43 54 4F 52 20 52
0F10  45 41 44 20 5B 2F 43 5D 20 28 43 6C 75 73 74 65
0F20  72 29 0D 0A 4C 2D 4C 4F 41 44 20 46 49 4C 45 20
0F30  5B 41 7C 42 7C 48 5D 20 28 41 73 63 69 69 7C 42
0F40  69 6E 61 72 79 7C 48 65 78 29 20 2F 52 20 28 42
0F50  6F 6F 74 52 41 4D 29 0D 0A 56 2D 56 49 45 57 20
0F60  46 49 4C 45 20 5B 41 7C 42 7C 48 5D 0D 0A 45 2D
0F70  45 44 49 54 20 52 41 4D 0D 0A 44 2D 44 55 4D 50
0F80  20 52 41 4D 20 5B 2F 53 5D 20 28 53 68 61 64 6F
0F90  77 20 52 41 4D 29 0D 0A 42 2D 42 4F 4F 54 20 52
0FA0  41 4D 0D 0A 4D 2D 4D 41 49 4E 20 52 41 4D 0D 0A
0FB0  48 2D 48 45 58 20 55 50 4C 4F 41 44 0D 0A 00 D5
0FC0  00 00 00 00 00 00 00 00 00 00 00 00 00 00 00 00
0FD0  00 00 00 00 00 00 00 00 00 00 00 00 00 00 00 00
0FE0  00 00 00 00 00 00 00 00 00 00 00 00 00 00 00 00
0FF0  00 00 00 00 00 00 00 00 00 00 00 00 00 00 00 00
1000  D4 22 80 0D 0A 3E 00 D4 23 2E FF C1 D4 21 00 FF
1010  20 3B 27 FF 60 33 0C FC 80 D4 1F C3 D4 FF 7A 5A
1020  1A 8A 3A 0C 2A 30 0C FB ED 32 4F FB 05 32 56 FB
1030  1D 32 65 FB 0C 32 63 FB 11 3A 0C D4 21 00 FF 5B
1040  32 46 FC 5B 30 0F D4 21 00 FF 41 3B 46 30 0C 5A
1050  8A FF 80 32 0C D5 2A 0A 1A 32 0C 2A F8 08 D4 FF
1060  7A 30 0C F8 04 FC 15 52 D4 23 2E FF C1 02 5A D5
1070  61 F8 00 B0 A0 6D D0 00 00 00 00 00 00 00 00 00
1080  00 00 00 00 00 00 00 00 00 00 00 00 00 00 00 00
1090  00 00 00 00 00 00 00 00 00 00 00 00 00 00 00 00
10A0  00 00 00 00 00 00 00 00 00 00 00 00 00 00 00 00
10B0  00 00 00 00 00 00 00 00 00 00 00 00 00 00 00 00
10C0  00 00 00 00 00 00 00 00 00 00 00 00 00 00 00 00
10D0  00 00 00 00 00 00 00 00 00 00 00 00 00 00 00 00
10E0  00 00 00 00 00 00 00 00 00 00 00 00 00 00 00 00
10F0  00 00 00 00 00 00 00 00 00 00 00 00 00 00 00 00
1100  D4 11 E5 D4 FF 6E D4 0A 36 D4 22 F4 FF 92 D4 24
1110  1F F8 00 D4 23 21 FF A6 8D AA 9D BA D4 23 8C FF
1120  92 D4 07 60 1D 32 2D D4 07 98 1D 3A 27 D5 D4 23
1130  28 FF 98 FA 20 32 3B D4 FF 82 D5 0D D5 D4 22 80
1140  20 49 4E 20 00 D5 D4 22 80 0D 0A 46 69 6C 65 20
1150  6E 6F 74 20 66 6F 75 6E 64 0D 0A 00 D5 9D E3 FE
1160  33 79 FE 33 6F 65 40 65 50 9D F9 80 BD 30 80 65
1170  41 65 50 9D FB C0 BD 30 80 FE 33 8D 65 40 65 51
1180  9C 3A 87 8C 3A 87 D5 4B 5D 1D 2C 30 80 65 41 65
1190  51 9D FA B0 BD 30 80 D4 11 E5 9D D4 22 3B 8D D4
11A0  22 3B F8 03 D4 1F 6E D4 FF 66 D4 22 3B F8 3A D4
11B0  FF 7A F8 02 D4 1F 56 D4 1F 30 3B DA D4 23 CE FF
11C0  4A D4 23 5C FF 4A D4 FF 6A F8 3A D4 FF 7A D4 FF
11D0  66 D4 22 3B 1D D4 22 60 30 9A 9E FB 1B 32 E4 D4
11E0  22 60 30 9A D5 D4 12 00 D4 23 80 FF AB D5 00 00
11F0  00 00 00 00 00 00 00 00 00 00 00 00 00 00 00 00
1200  D4 1F 14 D4 22 FA FF AB D4 24 22 0A D4 1F 81 F8
1210  00 3B 35 F8 04 52 0A D4 1F 81 3B 32 5B 2A 0A D4
1220  1F 81 3B 32 FE FE FE FE EB F1 5B 1B 2A 02 FF 01
1230  3A 15 0A FF 2F D5 D4 22 80 45 58 45 43 55 54 45
1240  20 41 54 3A 00 D5 D4 22 80 0D 0A 52 75 6E 3A 00
1250  D5 D4 22 80 0D 0A 45 4F 46 00 D5 D4 22 80 42 4F
1260  4F 54 2D 52 41 4D 00 D5 F8 00 D4 23 21 FF A6 D4
1270  11 E5 3A A7 D4 12 36 D4 23 28 FF BF D4 FF 7A D4
1280  23 80 FF 06 D4 25 AA D4 22 80 20 3F 00 D4 23 28
1290  FF BF FF 20 32 A1 D4 13 EB D4 21 00 FF 01 32 A7
12A0  D5 D4 09 00 33 A7 D5 D4 12 46 D4 25 AA D4 22 35
12B0  9D B0 8D A0 D4 0A 36 D4 23 28 FF 98 FE 33 D6 D4
12C0  02 7F F8 64 D4 22 25 61 D4 22 2D 9D B0 8D A0 F8
12D0  0F B1 E3 6D E0 D0 D4 12 5B E3 65 20 65 10 65 00
12E0  FA 40 3A E6 E0 D0 D4 23 12 FF 82 05 E3 65 61 E0
12F0  D0 D4 FF 82 00 00 00 00 00 00 00 00 00 00 00 00
1300  D4 20 02 D4 20 1A F8 0A D4 23 21 FF BF D4 13 12
1310  30 00 D4 15 B9 D4 22 80 43 20 2D 20 52 55 4E 20
1320  56 49 50 0D 0A 44 20 2D 20 44 49 52 45 43 54 4F
1330  52 59 0D 0A 45 2F 46 20 2D 20 55 50 2F 44 4F 57
1340  4E 0D 0A 31 2D 35 20 2D 20 4C 4F 41 44 0D 0A 41
1350  20 2D 20 45 58 45 43 55 54 45 00 D4 21 00 D4 25
1360  C0 0C 0D 0A 00 FE FC 69 A3 30 5B 30 FD 30 71 30
1370  91 D4 14 1E 32 12 FF 0A 32 91 FF 0B 3A 12 D4 15
1380  B9 D4 22 80 4E 4F 20 43 41 52 44 00 D4 21 00 30
1390  12 D4 15 B9 D4 12 74 D4 15 B9 D4 22 80 45 4E 54
13A0  45 52 20 41 44 44 52 45 53 53 3F 00 D4 13 EB D4
13B0  21 00 FF 01 3A 12 99 F9 02 B9 D4 22 80 0D 0A 3E
13C0  00 D4 13 D4 BD D4 13 D4 AD D4 23 CE FF 06 99 FA
13D0  FD B9 30 91 D4 21 00 BA D4 22 4E D4 21 00 AA D4
13E0  22 4E 9A FE FE FE FE 52 8A F1 D5 D4 22 80 0D 0A
13F0  31 2D 59 45 53 2C 20 30 2D 4E 4F 00 D5 E2 61 F8
1400  7E BB F8 00 AB D4 23 00 02 00 AD A0 B0 A1 F8 80
1410  BD B1 D4 11 5D F8 64 D4 22 25 E3 6D E0 D1 99 FA
1420  10 3A 26 F8 FF D5 D4 15 00 32 2C D5 D4 22 F4 C2
1430  00 D4 23 28 FF 64 BC F8 00 AC D4 15 B9 F8 01 AB
1440  9C 52 8C F7 33 55 1C 8B D4 22 4E F8 2D D4 FF 7A
1450  D4 22 9F 30 5E 1C 8A FC 0C AA 9A 7C 00 BA D4 22
1460  60 1B 8B FF 06 3B 40 D4 21 00 32 7A FF 06 3B 9F
1470  FF 08 32 88 FF 01 32 7B FC 0F D5 F8 00 52 62 22
1480  9C 52 8C F7 33 67 30 3A F8 00 52 62 22 8C FF 05
1490  32 67 FF 05 AC 8A FF 78 AA 9A 7F 00 BA 30 3A AB
14A0  D4 15 B9 8B 8A FF 0C AA 9A 7F 00 BA 1B 8B 3A A4
14B0  0A FF 28 32 CA D4 22 FA FF 4E F8 0B D4 23 38 D4
14C0  05 0D 32 C6 F8 0A D4 14 DA D5 1A D4 22 FA FF 4E
14D0  F8 0B D4 23 38 D4 03 27 30 2C 52 D4 21 00 02 D5
14E0  00 00 00 00 00 00 00 00 00 00 00 00 00 00 00 00
14F0  00 00 00 00 00 00 00 00 00 00 00 00 00 00 00 00
1500  F8 FB D4 23 21 FF 01 D4 15 B9 D4 22 80 49 4E 49
1510  54 20 53 44 20 43 41 52 44 0D 0A 00 D4 20 31 D4
1520  18 74 3A AC D4 20 02 D4 22 80 53 44 20 54 59 50
1530  45 3A 20 00 D4 23 28 FF 0E D4 22 3B D4 22 80 0D
1540  0A 50 41 52 20 54 59 50 45 3A 20 00 D4 23 28 FF
1550  0F D4 22 3B D4 22 80 0D 0A 4C 4F 41 44 49 4E 47
1560  0D 0A 00 D4 1D 2E D4 22 80 0D 0A 56 6F 6C 3A 00
1570  D4 22 F4 FF 9B D4 22 9F F8 FC D4 23 21 FF 01 F8
1580  2C AE F8 FC BE D4 15 D6 F8 FC D4 23 21 FF 01 D4
1590  28 65 F8 FB D4 23 21 FF 01 D4 28 65 F8 FA D4 23
15A0  21 FF 01 D4 21 00 FF 15 3A B5 30 B2 D4 20 02 D4
15B0  21 00 F8 15 D5 F8 00 D5 D5 F8 00 D4 23 21 FF A7
15C0  D4 23 21 FF A8 D4 23 28 FF 01 BE F8 00 AE F8 00
15D0  5E 1E 8E 3A CE D5 8E BF F8 00 AF AE 4F 5E 1E 8E
15E0  3A DC D5 00 00 00 00 00 00 00 00 00 00 00 00 00
15F0  00 00 00 00 00 00 00 00 00 00 00 00 00 00 00 00
1600  D4 23 12 FF 66 0C D4 16 26 D5 D4 16 65 D5 D4 02
1610  7F D5 D5 D4 23 12 FF 66 0C D4 11 2E D5 5A D5 E2
1620  E2 D4 12 5B D5 D5 9D AF FE 33 4C FE 33 3D E3 65
1630  40 65 50 9D F9 80 BD 0D BF 8F BD 9F D5 E3 65 41
1640  65 50 9D FB C0 BD 0D BF 8F BD 9F D5 FE 33 56 E3
1650  65 40 65 51 0D D5 E3 65 41 65 51 9D FA BF BD 0D
1660  BF 8F BD 9F D5 9A AF FE 33 89 FE 33 7B E3 65 40
1670  65 50 9A F9 80 BA 9F 5A 8F BA D5 E3 65 41 65 50
1680  9A FB C0 BA 9F 5A 8F BA D5 FE 33 94 E3 65 40 65
1690  51 9F 5A D5 E3 65 41 65 51 9A FA BF BA 9F 5A 8F
16A0  BA D5 00 00 00 00 00 00 00 00 00 00 00 00 00 00
16B0  00 00 00 00 00 00 00 00 00 00 00 00 00 00 00 00
16C0  00 00 00 00 00 00 00 00 00 00 00 00 00 00 00 00
16D0  00 00 00 00 00 00 00 00 00 00 00 00 00 00 00 00
16E0  00 00 00 00 00 00 00 00 00 00 00 00 00 00 00 00
16F0  00 00 00 00 00 00 00 00 00 00 00 00 00 00 00 00
1700  E3 65 70 F8 FF AC D4 23 21 FF 0E D4 23 21 FF FF
1710  F8 FF 5E 2C 8C 3A 10 D4 23 21 FF 0F E3 65 71 D4
1720  22 80 0D 0A 49 6E 69 74 20 53 44 00 D4 1E 5C F8
1730  FF AB F8 00 D4 18 05 FF 01 32 5E 2B 8B 3A 32 D4
1740  22 80 31 00 30 4D D4 22 80 32 00 30 4D D4 22 80
1750  2D 46 41 49 4C 45 44 00 E3 65 70 F8 FF D5 D4 22
1760  80 20 54 79 70 65 23 00 2A F8 AA 5A 2A F8 01 5A
1770  F8 08 D4 18 05 FA 04 32 82 F8 01 D4 23 21 FF 0E
1780  30 9A D4 18 41 D4 18 41 D4 18 41 D4 18 41 5A FF
1790  AA 3A 46 F8 02 D4 23 21 FF 0E D4 22 4E D4 22 80
17A0  20 41 43 4D 44 34 31 00 D4 1E 5C F8 FF AB F8 37
17B0  D4 18 05 F8 29 D4 18 05 32 C5 F8 C8 D4 22 2F 2B
17C0  8B 3A AE 30 4D D4 22 80 2B 00 D4 23 28 FF 0E FF
17D0  02 3A FE F8 3A D4 18 05 3A 4D D4 18 41 FA C0 FF
17E0  C0 3A F5 F8 03 D4 23 21 FF 0E D4 22 80 20 54 79
17F0  70 65 23 33 00 D4 18 41 D4 18 41 D4 18 41 E3 65
1800  70 F8 00 D5 D5 D4 22 F4 FF 08 F9 40 5A E3 65 71
1810  D4 18 4C F8 FF AF 0A FF 40 32 23 FF 08 3A 26 F8
1820  87 30 25 F8 95 AF 4A 5E 4A 5E 4A 5E 4A 5E 4A 5E
1830  8F 5E F8 FF AF 5E 0E 5A FE 3B 3F 2F 8F 3A 35 0A
1840  D5 F8 FF BE F8 FF AE F8 FF 5E 0E D5 F8 A5 BF F8
1850  01 AF F8 FF BE F8 FF AE F8 FF 5E 0E FF FF 3A 65
1860  2F 8F 3A 58 D5 F8 05 FF 01 3A 67 9F FF 01 BF 3A
1870  4F F8 FF D5 99 FA 10 32 84 D4 17 00 3A 84 D4 18
1880  99 3A 84 D5 D4 FF 7E D4 22 80 0D 0A 49 4E 49 54
1890  20 46 41 49 4C 0D 0A 00 D5 D4 22 80 4D 42 52 00
18A0  D4 22 F4 FF 3A D4 24 1F D4 1A 2A 3A 84 D4 1A 43
18B0  3A 84 D4 1A 6A D4 1A 2A 3A 84 D4 1A 8F D4 23 5C
18C0  FF 10 D4 23 68 FF 1B D4 23 E4 D4 23 8C FF 2A D4
18D0  23 5C FF 12 3B D7 1A D4 23 8C FF 2C D4 23 28 FF
18E0  1D AC D4 23 68 FF 28 F8 00 BA AA D4 23 E4 2C 8C
18F0  3A EB D4 23 68 FF 2A D4 23 E4 D4 23 8C FF 2E D4
1900  23 5C FF 2C 3B 07 1A D4 23 8C FF 30 D4 23 68 FF
1910  18 D4 23 5C FF 1E F8 10 AC 8A F6 33 4A 8B F6 33
1920  4A 9A F6 BA 8A 76 AA 9B F6 BB 8B 76 AB 2C 8C 3A
1930  19 D4 22 80 20 45 72 72 6F 72 20 44 41 54 41 53
1940  54 41 52 54 20 20 00 F8 FF D5 F8 05 AC 8A FE AA
1950  9A 7E BA 33 31 2C 8C 3A 4D 8B FB FF AB 9B FB FF
1960  BB 1B F8 FF AC BC D4 23 E4 1C 33 66 8C AB 9C BB
1970  D4 23 5C FF 2E D4 23 E4 D4 23 8C FF 32 D4 23 5C
1980  FF 30 3B 85 1A D4 23 8C FF 34 F8 01 AC D4 23 28
1990  FF 1A FF 01 D4 23 21 FF A9 FC 01 3A B6 D4 22 80
19A0  0D 0A 45 72 72 6F 72 3D 30 20 53 65 63 2F 43 6C
19B0  75 73 00 F8 FF D5 F6 33 BC 1C 30 B6 3A D4 8C D4
19C0  23 21 FF AA D4 23 12 FF 72 08 D4 1A CE D5 D4 1A
19D0  E2 D5 30 E2 D4 23 12 FF 72 08 D4 1B 86 D5 D4 1B
19E0  86 D5 D4 22 80 20 56 4F 4C 3D 00 D4 22 F4 C0 2B
19F0  F8 0B AB D4 22 96 D4 22 80 20 53 59 53 3D 00 F8
1A00  08 AB D4 22 96 D4 23 5C FF 1E F8 04 AC 9A F6 BA
1A10  8A 76 AA 2C 8C 3A 0D 8A D4 23 21 FF 49 D4 22 F4
1A20  00 01 D4 23 8C FF 62 F8 00 D5 D4 1B 01 D4 22 80
1A30  20 53 00 D4 22 F4 C1 FF EA F8 AA F3 3A 42 2A F8
1A40  55 F3 D5 D4 22 80 20 54 79 70 65 3A 00 D4 22 FA
1A50  C1 C2 0B D4 22 3B D4 23 21 FF 0F FF 04 32 69 FF
1A60  02 32 69 FF 08 32 69 FF 78 D5 D4 22 F4 C1 C6 D4
1A70  22 FA FF 10 F8 08 D4 23 38 D4 22 80 20 50 42 52
1A80  00 D4 22 FA FF 10 D4 22 F4 FF 3A D4 25 00 D5 D4
1A90  22 F4 C0 0B D4 22 FA FF 18 F8 0A D4 23 38 2B 2B
1AA0  4B EB F1 3A B2 2B D4 22 F4 C0 20 F8 04 D4 23 38
1AB0  30 B9 F8 00 1B 5B 1B 5B 1B D4 22 F4 C0 1C F8 04
1AC0  D4 23 38 D4 22 F4 C0 16 F8 02 D4 23 38 D5 D4 23
1AD0  28 FF AA FF 01 52 32 E1 9D F6 BD 8D 76 AD 02 30
1AE0  D3 D5 52 D4 23 28 FF A9 F2 D5 99 FA EF B9 D4 22
1AF0  80 43 61 72 64 20 52 65 6D 6F 76 65 64 0D 0A 00
1B00  D5 8A 73 9A 73 D4 22 F4 FF 3A D4 1B 5C F8 05 52
1B10  F8 11 D4 18 05 32 1E 02 FF 01 3A 0F 30 2D F8 FF
1B20  AA F8 FF 5E 0E FF FE 32 31 2A 8A 3A 21 F8 FF 30
1B30  47 D4 22 F4 C0 00 D4 1B 52 D4 1B 52 D4 18 41 D4
1B40  18 41 E3 65 70 F8 00 BF E3 65 70 12 42 BA 02 AA
1B50  9F D5 F8 FF 5E 0E 5A 1A 8A 3A 52 D5 D4 23 28 FF
1B60  0E D4 23 0C FF 0C FF 03 3A 76 4A 5E 2E 4A 5E 2E
1B70  4A 5E 2E 0A 5E D5 F8 00 5E 2E 4A FE 5E 2E 4A 7E
1B80  5E 2E 0A 7E 5E D5 D5 8A 73 9A 73 D4 23 5C FF 60
1B90  9A 52 1A 9A 3A BC 8A 3A BC D4 22 80 0D 0A 45 52
1BA0  52 4F 52 2C 20 45 4E 44 20 4F 46 20 43 4C 55 53
1BB0  54 45 52 20 43 48 41 49 4E 00 30 F1 D4 22 F4 FF
1BC0  3A D4 23 0C FF 2A D4 25 03 D4 23 0C FF 4A D4 24
1BD0  25 02 5E D4 24 82 D4 1B 01 D4 23 5C FF 60 8A FE
1BE0  AE F8 C0 7C 00 BE 4E AA 0E BA D4 23 8C FF 60 F8
1BF0  01 BF 12 42 BA 02 AA 9F D5 E2 D4 23 5C FF 62 9A
1C00  3A 5A 8A FA FE 3A 5A D4 22 F4 FE 00 D4 1C 4C F8
1C10  5C 5A D4 23 28 FF 49 D4 23 21 FF 65 D4 22 FA FF
1C20  2E D4 22 F4 FF 3A D4 25 00 D4 1B 01 D4 22 F4 C0
1C30  0B 0A FA 08 32 45 D4 22 F4 C0 00 D4 22 FA FF 9B
1C40  F8 0B D4 23 38 D4 22 F4 C0 00 30 6F 2A F8 00 5A
1C50  8A 3A 4C D5 D4 1B 87 3A 5F D5 D4 23 8C FF 60 D4
1C60  23 28 FF 1A D4 23 21 FF 65 D4 1C C6 D4 1B 01 D4
1C70  22 F4 C0 00 0A FF 21 3B 9F FF 5E 33 9F D4 22 67
1C80  2E 2E 00 32 93 8A BF FC 1A AA 4A EA F1 FC FF 9F
1C90  AA 3B 9F D4 23 8C FF BD 0A D5 D4 23 5C FF BD 8A
1CA0  FC 20 AA 3B 74 9A 7C 00 BA FF C2 3A 74 D4 23 28
1CB0  FF 65 FF 01 D4 23 21 FF 65 3A BC D5 D4 22 F4 FF
1CC0  3A D4 24 C3 30 6C 8A 73 9A 73 D4 23 28 FF 1A D4
1CD0  23 0C FF 4A D4 24 25 D4 23 5C FF 60 2A 2A D4 23
1CE0  8C FF 4A D4 22 F4 FF 3A D4 24 1F 32 F8 F6 3B F3
1CF0  D4 24 82 D4 24 06 30 EB D4 23 0C FF 32 D4 24 82
1D00  D4 23 28 FF 1A D4 23 21 FF 65 12 42 BA 02 AA D5
1D10  99 F9 10 B9 D4 22 80 43 61 72 64 20 49 6E 73 65
1D20  72 74 65 64 0D 0A 00 D4 18 74 D4 1D 2E D5 D4 23
1D30  28 FF 0F 32 89 F8 00 D4 23 21 FF 64 D4 1B FA 32
1D40  85 D4 22 FA C2 00 D4 1C 9A 32 85 9A BE 8A FC 0B
1D50  AE 0E FA 02 3A 46 0E FA 10 32 68 F8 28 5B 1B 8A
1D60  AE F8 0B D4 23 53 30 73 8A AE F8 0B D4 23 53 F8
1D70  20 5B 1B D4 23 28 FF 64 FC 06 32 85 FF 05 D4 23
1D80  21 FF 64 30 46 D4 1D AD D5 D4 22 80 0D 0A 46 41
1D90  54 20 45 52 52 4F 52 00 D5 F8 0B AF 8A BF EB 4A
1DA0  F3 3A A8 1B 2F 8F 3A 9F FC FF 9F AA D5 D4 23 28
1DB0  FF 64 AC FF 02 3B FE 3A C3 D4 22 F4 C2 00 D4 1D
1DC0  FF 30 FE F8 00 AD D4 22 F4 C2 00 2C D4 1D FF 3B
1DD0  D4 F8 01 AD 2C 8C 3A CC D4 23 28 FF 64 AC 2C 2C
1DE0  8A FF 18 AA 9A 7F 00 BA D4 1D FF 3B F0 F8 01 AD
1DF0  2C 8C 3A E0 F8 2E D4 FF 7A 3F FE 8D 3A AD D5 F8
1E00  0C AF 8A FC 0C AE AB 9A 7C 00 BE BB EE 4A F7 32
1E10  18 33 1E 8B AA 9B BA D5 1E 2F 8F 3A 0D D5 2A 0A
1E20  52 0E 5A 02 5E 1A 1E 2F 8F 3A 1F D5 AF 4A D4 1E
1E30  40 33 3F 32 3F 5B 1B 2F 8F 3A 2D 4A D4 1E 40 D5
1E40  D4 1F C3 32 4F FF 20 32 4F FF 0E 32 51 FC 2E FC
1E50  00 D5 AF F8 20 5B 1B 2F 8F 3A 53 D5 D4 22 F4 FF
1E60  09 D4 24 1F D5 00 00 00 00 00 00 00 00 00 00 00
1E70  00 00 00 00 00 00 00 00 00 00 00 00 00 00 00 00
1E80  00 00 00 00 00 00 00 00 00 00 00 00 00 00 00 00
1E90  00 00 00 00 00 00 00 00 10 00 00 00 00 00 00 00
1EA0  0C 00 88 00 00 00 00 00 01 00 00 00 0C 00 88 00
1EB0  F8 03 00 00 00 00 00 00 00 00 00 00 00 00 00 00
1EC0  00 00 00 00 00 00 00 00 00 00 00 00 00 00 00 00
1ED0  00 00 00 00 00 00 00 00 00 00 00 00 00 00 00 00
1EE0  00 00 00 00 00 00 00 00 00 00 00 00 00 00 00 00
1EF0  00 00 00 00 00 00 00 00 00 00 00 00 00 00 00 00
1F00  1A 0A 32 09 FB 20 32 00 0A D5 1A 0A 32 13 FB 20
1F10  3A 0A 0A D5 D4 1F 0B D4 1F 01 32 25 1A 0A 32 24
1F20  FB 20 3A 1C 2A 0A 32 2F FB 20 3A 2F 2A 30 25 D5
1F30  D4 1F 41 3B 40 FE FE FE FE 52 D4 1F 41 3B 40 F1
1F40  D5 D4 21 00 D4 1F A2 3B 50 D4 FF 7A 8E FF 00 D5
1F50  D4 FF 7A FC 00 D5 22 52 D4 22 80 5F 00 FF 01 3A
1F60  58 42 D4 22 80 1B 5B 44 00 FF 01 3A 62 D5 D4 22
1F70  80 20 00 FF 01 3A 6E D5 52 64 22 D5 6C D4 1F 78
1F80  D5 FF 30 3B 9B FF 0A 3B 9C FF 07 3B 9B FF 06 3B
1F90  9F FF 1A 3B 9B FF 06 3B 9F FC 00 D5 FC 0A D5 FC
1FA0  10 D5 D4 1F C3 BF FF 30 3B B6 FF 0A 3B BE FF 07
1FB0  3B B6 FF 06 3B BA F8 0E F6 D5 FC 10 30 C0 FC 0A
1FC0  AE 9F D5 FF 61 3B CD FF 1A 3B D0 FC 1A FC 61 D5
1FD0  FC 5B D5 99 F6 33 E3 D4 23 12 FF 7A 04 D4 22 01
1FE0  D5 9F D5 D4 23 12 FF 7A 04 D4 22 00 D5 9F D5 99
1FF0  F6 3B D3 D4 23 12 FF 7A 07 D4 22 00 D4 29 01 D5
2000  9F D5 D4 23 12 FF 7A 04 D4 29 01 D5 9F D5 D4 23
2010  12 FF 7E 04 D4 1F D3 D5 9F D5 D4 23 12 FF 7E 04
2020  D4 20 02 D5 9F D5 D4 23 12 FF 7A 03 5D 1D D5 9F
2030  D5 D4 23 12 FF 7A 01 D5 9F D5 00 00 00 00 00 00
2040  00 00 00 00 00 00 00 00 00 00 00 00 00 00 00 00
2050  00 00 00 00 00 00 00 00 00 00 00 00 00 00 00 00
2060  00 00 00 00 00 00 00 00 00 00 00 00 00 00 00 00
2070  00 00 00 00 00 00 00 00 00 00 00 00 00 00 00 00
2080  00 00 00 00 00 00 00 00 00 00 00 00 00 00 00 00
2090  00 00 00 00 00 00 00 00 00 00 00 00 00 00 00 00
20A0  00 00 00 00 00 00 00 00 00 00 00 00 00 00 00 00
20B0  00 00 00 00 00 00 00 00 00 00 00 00 00 00 00 00
20C0  00 00 00 00 00 00 00 00 00 00 00 00 00 00 00 00
20D0  00 00 00 00 00 00 00 00 00 00 00 00 00 00 00 00
20E0  00 00 00 00 00 00 00 00 00 00 00 00 00 00 00 00
20F0  00 00 00 00 00 00 00 00 00 00 00 00 00 00 00 00
2100  F8 FF AE F8 3E AF 99 F6 3B 3E FA 20 32 25 E3 65
2110  20 35 66 3F 0E F8 18 AF E3 65 20 35 66 3F 89 35
2120  66 65 21 30 3E 35 66 36 25 F8 2C AF 35 66 02 FC
2130  01 35 66 52 35 66 62 22 35 66 36 8D 35 66 99 FA
2140  02 35 66 32 4B 2E 35 66 8E 32 9F 99 35 66 FA 10
2150  35 66 32 5E 35 66 3F 91 35 66 8F 35 66 A3 37 98
2160  35 66 8F 35 66 A3 F8 08 AE F8 01 BE F8 00 C4 35
2170  75 F9 80 30 77 BE BE F6 BE 2E 8E 32 80 9E 30 6E
2180  9E 9E C4 35 87 F9 80 BE D5 6C FA 0F D5 02 FA 0F
2190  D5 99 FA EF B9 F8 15 D5 99 F9 10 B9 F8 19 D5 E2
21A0  F8 E0 BF F8 00 AF F8 FF BE F8 A8 AE 0E 22 FA 07
21B0  52 32 BE 9F F6 BF 8F 76 AF 02 FF 01 30 B0 0E F6
21C0  F6 F6 52 2E 0E F9 08 AE F8 2A BE 0E FC 20 F4 52
21D0  F8 FF BE F8 00 AE 0E BE 72 AE 9F EE F3 5E 8F 1E
21E0  F3 5E E2 F8 00 AE 30 00 00 00 00 00 00 00 00 00
21F0  00 00 00 00 00 00 00 00 00 00 00 00 00 00 00 00
2200  00 F8 09 AF 9F FE 76 33 0C 7B 30 0F 7A 30 0F 76
2210  BF 2F 8F 32 19 9F 9F 30 07 9F 19 FF 10 33 22 F8
2220  00 A9 9F 7A D5 AE D4 22 2D 2E 8E 3A 26 F8 FF FF
2230  01 E2 3A 2F D5 D4 22 80 20 00 D5 73 73 F6 F6 F6
2240  F6 D4 22 4E 60 02 FA 0F D4 22 4E 60 02 D5 FF 0A
2250  3B 58 FC 41 D4 FF 7A D5 FC 0A F9 30 D4 FF 7A D5
2260  D4 22 80 0D 0A 00 D5 9A 73 8A 73 46 32 78 52 4A
2270  F7 32 6B 46 3A 73 F8 01 BF 60 72 AA F0 BA 9F D5
2280  52 46 32 89 D4 FF 7A 30 81 02 D5 52 4A 32 94 D4
2290  FF 7A 30 8C 02 D5 4A D4 FF 7A 2B 8B 3A 96 D5 0A
22A0  FF 28 32 D9 F8 08 D4 22 BF 0A FF 20 32 BA F8 2E
22B0  D4 FF 7A F8 03 D4 22 BF 1A D5 1A 1A 1A 1A D5 52
22C0  4A FF 20 32 D1 FC 20 D4 FF 7A 02 FF 01 52 3A C0
22D0  D5 02 2A 1A FF 01 3A D3 D5 1A F8 5B D4 FF 7A D4
22E0  22 A4 F8 5D D4 FF 7A 2A D5 52 4A D4 FF 7A 02 FF
22F0  01 3A E9 D5 46 BA 46 AA 9F D5 46 BB 46 AB 9F D5
2300  46 BC 46 AC 9F D5 46 BD 46 AD 9F D5 46 BE 46 AE
2310  9F D5 46 BE 46 AE 46 AF 46 5E 1E 2F 8F 3A 18 9F
2320  D5 46 BE 46 AE 9F 5E D5 46 BE 46 AE 0E D5 46 BA
2330  46 AA F8 00 5A 1A 9F D5 AF 4A 5B 1B 2F 8F 3A 39
2340  D5 AF 4B 5A 1A 2F 8F 3A 42 D5 AF 4E 5A 1A 2F 8F
2350  3A 4B D5 AF 4E 5B 1B 2F 8F 3A 54 D5 46 BA 46 AA
2360  4A 52 0A BA 02 AA 9F D5 46 BB 46 AB 4B 52 0B BB
2370  02 AB 9F D5 46 BC 46 AC 4C 52 0C BC 02 AC 9F D5
2380  46 BD 46 AD 4D 52 0D BD 02 AD 9F D5 8A 73 9A 73
2390  8A 52 46 BA 46 AA F0 5A 1A 60 F0 5A BA 60 F0 AA
23A0  9F D5 8B 73 9B 73 8B 52 46 BB 46 AB F0 5B 1B 60
23B0  F0 5B BB 60 F0 AB 9F D5 8C 73 9C 73 8C 52 46 BC
23C0  46 AC F0 5C 1C 60 F0 5C BC 60 F0 AC 9F D5 8D 73
23D0  9D 73 8D 52 46 BD 46 AD F0 5D 1D 60 F0 5D BD 60
23E0  F0 AD 9F D5 8B 52 8A F4 AA 9B 52 9A 74 BA 9F D5
23F0  00 00 00 00 00 00 00 00 00 00 00 00 00 00 00 00
2400  EA 30 07 EB 30 07 EE F0 FE 73 60 60 F0 7E 73 60
2410  60 F0 7E 73 60 60 F0 7E 73 F0 73 F0 73 9F D5 EA
2420  30 26 EB 30 26 EE 60 60 60 F8 00 73 73 73 73 60
2430  9F D5 D4 22 80 0D 0A 41 3A 00 EA 30 46 D4 22 80
2440  0D 0A 42 3A 00 EB 52 22 F0 52 22 60 F0 52 22 60
2450  F0 52 22 60 F0 52 73 F0 73 F0 73 42 D4 22 3B 42
2460  D4 22 3B 42 D4 22 3B 42 D4 22 3B 02 D5 EA 30 71
2470  EB 60 60 60 46 73 46 73 46 73 46 73 60 9F D5 EB
2480  30 83 EE 0A F4 5A 1A 60 0A 74 5A 1A 60 0A 74 5A
2490  1A 60 0A 74 5A 2A 2A 2A F0 73 F0 73 F0 73 9F D5
24A0  EB 1B 1B 1B 1A 1A 1A 0A F7 3A BC 2B 2A 0A F7 3A
24B0  BE 2B 2A 0A F7 3A C0 2B 2A 0A F7 D5 2B 2A 2B 2A
24C0  2B 2A D5 EA 30 CA EB 30 CA ED F0 FC 01 73 60 3B
24D0  EA 60 F0 FC 01 73 3B EA 60 60 F0 FC 01 73 3B E8
24E0  60 60 F0 FC 01 73 F0 73 F0 73 9F D5 4A 5B 1B 4A
24F0  5B 1B 4A 5B 1B 0A 5B 2A 2A 2A 2B 2B 2B 9F D5 00
2500  EB 30 04 EE 72 5A 1A 72 5A 1A 72 5A 1A F0 5A 73
2510  F0 73 F0 73 2A 2A 2A 9F D5 EC 30 1D EB F0 FF 01
2520  73 60 33 3D 60 F0 FF 01 73 33 3D 60 60 F0 FF 01
2530  73 33 3B 60 60 F0 FF 01 73 F0 73 F0 73 9F D5 EB
2540  30 43 EC F0 3A 5D 60 F0 3A 5A 60 F0 3A 58 60 F0
2550  3A 56 73 73 73 D5 73 F0 73 F0 73 F8 01 D5 D4 22
2560  80 20 52 41 3A 00 52 9A D4 22 3B 8A D4 22 3B 02
2570  D5 D4 22 80 20 52 42 3A 00 52 9B D4 22 3B 8B D4
2580  22 3B 02 D5 D4 22 80 20 52 43 3A 00 9C D4 22 3B
2590  8C D4 22 3B 02 D5 D4 22 60 D4 25 5E D4 25 71 D4
25A0  25 84 D4 22 80 20 52 44 3A 00 52 9D D4 22 3B 8D
25B0  D4 22 3B 02 D5 52 9E D4 22 3B 8E D4 22 3B 02 D5
25C0  52 F8 01 BF 46 32 D3 F3 32 CF 9F FC 01 30 C3 46
25D0  3A CF 9F D5 00 00 00 00 00 00 00 00 00 00 00 00
25E0  00 00 00 00 00 00 00 00 00 00 00 00 00 00 00 00
25F0  00 00 00 00 00 00 00 00 00 00 00 00 00 00 00 00
2600  D4 23 06 FF B3 F8 20 BC F8 0A AC F8 00 5D 1D 2C
2610  8C 3A 0B AF D4 22 FA 26 75 EB 0A F6 4B AC 33 27
2620  1B 2C 8C 3A 20 30 41 F8 BC AD 8F F6 AF 0D 74 FF
2630  0A 33 37 FC 0A 30 38 1F 5D 2D 1B 2C 8C 3A 2A FF
2640  00 1A 1A 1A 0A 76 5A 2A 0A 76 5A 2A 0A 76 5A 2A
2650  0A 76 5A 9C FF 01 BC 3A 1A D4 23 06 FF B3 F8 09
2660  AC 0D 3A 69 1D 2C 8C 3A 61 1C 4D F9 30 D4 FF 7A
2670  2C 8C 3A 6A D5 02 01 00 02 02 00 02 04 00 02 08
2680  00 03 06 01 00 03 02 03 00 03 04 06 00 04 08 02
2690  01 00 04 06 05 02 00 04 02 01 05 00 05 04 02 00
26A0  01 00 05 08 04 00 02 00 05 06 09 00 04 00 05 02
26B0  09 01 08 00 06 04 08 03 06 01 00 06 08 06 07 02
26C0  03 00 06 06 03 05 05 06 00 07 02 07 00 01 03 01
26D0  00 07 04 04 01 02 06 02 00 07 08 08 02 04 02 05
26E0  00 08 06 07 05 08 04 00 01 00 08 02 05 01 07 09
26F0  00 02 00 08 04 00 03 04 09 01 04 00 08 08 00 06
2700  08 08 03 08 00 09 06 01 02 07 07 07 06 01 00 09
2710  02 03 04 04 05 05 03 03 00 09 04 06 08 08 00 01
2720  07 06 00 0A 08 02 07 07 01 02 04 03 01 00 0A 06
2730  05 04 05 03 04 08 06 02 00 0A 02 01 09 00 07 08
2740  06 03 05 00 0A 04 02 08 01 04 07 03 07 00 01 0A
2750  08 04 06 03 08 04 07 04 01 02 36 69 D4 22 80 45
2760  46 33 2D 4F 46 46 00 30 73 D4 22 80 45 46 33 2D
2770  4F 4E 00 37 83 D4 22 80 20 45 46 34 2D 4F 46 46
2780  00 30 8E D4 22 80 20 45 46 34 2D 4F 4E 00 D4 22
2790  60 30 5A 00 00 00 00 00 00 00 00 00 00 00 00 00
27A0  00 00 00 00 00 00 00 00 00 00 00 00 00 00 00 00
27B0  00 00 00 00 00 00 00 00 00 00 00 00 00 00 00 00
27C0  00 00 00 00 00 00 00 00 00 00 00 00 00 00 00 00
27D0  00 00 00 00 00 00 00 00 00 00 00 00 00 00 00 00
27E0  00 00 00 00 00 00 00 00 00 00 00 00 00 00 00 00
27F0  00 00 00 00 00 00 00 00 00 00 00 00 00 00 00 00
2800  EA F8 FF AA 8A AF FF 07 AA 0A 52 8F AA 02 7E F0
2810  7E 73 F0 7E 73 F0 7E 73 F0 7E 73 F0 7E 73 F0 7E
2820  73 F0 7E 73 8A 32 2C F0 7E 73 30 04 F0 7E 73 60
2830  D5 F8 F8 AB F8 FF AA 0B FE 0A F9 01 33 40 FB 01
2840  5A 8B 32 4D FF 08 AB 8A FF 08 AA 30 37 D5 F8 F8
2850  AB AA 0B FE 0A F9 80 33 5B FB 80 5A 8B 32 4D FF
2860  08 AB AA 30 52 F8 40 AC D4 23 28 FF 00 BA D4 23
2870  28 FF 01 BB D4 28 00 D4 28 31 D4 23 28 FF 01 BA
2880  D4 28 00 2C 8C 3A 68 D5 00 00 00 00 00 00 00 00
2890  00 00 00 00 00 00 00 00 00 00 00 00 00 00 00 00
28A0  00 00 00 00 00 00 00 00 00 00 00 00 00 00 00 00
28B0  00 00 00 00 00 00 00 00 00 00 00 00 00 00 00 00
28C0  00 00 00 00 00 00 00 00 00 00 00 00 00 00 00 00
28D0  00 00 00 00 00 00 00 00 00 00 00 00 00 00 00 00
28E0  00 00 00 00 00 00 00 00 00 00 00 00 00 00 00 00
28F0  00 00 00 00 00 00 00 00 00 00 00 00 00 00 00 00
2900  E2 73 9A 73 8A 73 9D 73 8D 73 9F FF 0A 3B 26 3A
2910  31 D4 23 21 FF A8 D4 23 28 FF A7 FF 04 33 26 FC
2920  05 D4 23 21 FF A7 60 72 AD 72 BD 72 AA 72 BA F0
2930  D5 FF 03 3B 26 3A 3E D4 23 21 FF A8 30 26 FF 13
2940  3B 26 AE FF 41 3B 58 FC 21 AE FF 3B 3B 58 FC 41
2950  AE FF 45 3B 58 F8 45 AE F8 2B BE 0E AA F8 2A BA
2960  D4 23 28 FF A8 AD FA 40 3A C2 D4 23 28 FF 01 BD
2970  D4 23 28 FF A7 F9 08 AE F8 2A BE 0E 52 8D FA 07
2980  AE 8D AF F6 F6 F6 F4 AD 0E 52 4A BE F8 05 AE 9E
2990  F6 BE 0D F1 33 97 F3 5D 8D FC 08 AD 2E 8E 3A 8F
29A0  1F 8F FA 40 3A BC 9E 32 B0 FF 01 3A BC F8 0F AA
29B0  8D FF 28 AD 02 F6 3B 89 1D 76 30 89 8F D4 23 21
29C0  FF A8 30 26 00 00 00 00 00 00 00 00 00 00 00 00
29D0  00 00 00 00 00 00 00 00 00 00 00 00 00 00 00 00
29E0  00 00 00 00 00 00 00 00 00 00 00 00 00 00 00 00
29F0  00 00 00 00 00 00 00 00 00 00 00 00 00 00 00 00
2A00  80 40 20 10 08 04 02 01 00 30 60 90 C0 00 00 E0
2A10  37 03 23 0A 1F 0A 1F 2A 14 1F 2A 13 0B 04 1A 39
2A20  0A 15 0A 30 23 0E 31 11 2E 15 0E 1F 0E 35 04 0E
2A30  24 10 28 04 04 24 30 10 08 04 02 21 1F 11 3F 02
2A40  1F 20 1D 15 37 15 15 3F 07 04 3F 17 15 3D 1F 14
2A50  3C 01 01 3F 1F 15 3F 07 05 3F 2A 10 2A 04 0A 31
2A60  0A 0A 2A 11 0A 24 02 19 26 0E 01 1D 15 3E 1E 05
2A70  3E 1F 15 2A 0E 11 2A 1F 11 2E 1F 15 31 1F 05 21
2A80  0E 11 15 2D 1F 04 3F 11 1F 31 08 10 2F 1F 0A 31
2A90  1F 10 30 1F 02 04 02 3F 1F 02 04 08 3F 0E 11 2E
2AA0  1F 05 22 0E 11 19 3E 1F 05 3A 12 15 29 01 1F 21
2AB0  1F 10 3F 0F 10 2F 1F 08 04 08 3F 11 0A 04 0A 31
2AC0  03 1C 23 19 15 33 1F 31 01 02 04 08 30 11 3F 02
2AD0  01 22 10 10 30 01 22 04 1B 31 3B 11 1B 24 02 01
2AE0  02 21 02 0B 05 1A 30 00 00 00 00 00 00 00 00 00
2AF0  00 00 00 00 00 00 00 00 00 00 00 00 00 00 00 00
2B00  0D 10 11 13 18 1B 20 24 25 27 29 2E 31 33 36 37
2B10  3C 3F 42 45 48 4B 4E 51 54 57 5A 5B 5D 60 63 66
2B20  69 6E 71 74 77 7A 7D 80 84 87 8A 8D 90 93 98 9D
2B30  A0 A3 A7 AA AD B0 B3 B6 BB C0 C3 C6 C8 CD CF D2
2B40  D5 D7 DA DB DE E2 00 00 00 00 00 00 00 00 00 00
2B50  00 00 00 00 00 00 00 00 00 00 00 00 00 00 00 00
2B60  00 00 00 00 00 00 00 00 00 00 00 00 00 00 00 00
2B70  00 00 00 00 00 00 00 00 00 00 00 00 00 00 00 00
2B80  00 00 00 00 00 00 00 00 00 00 00 00 00 00 00 00
2B90  00 00 00 00 00 00 00 00 00 00 00 00 00 00 00 00
2BA0  00 00 00 00 00 00 00 00 00 00 00 00 00 00 00 00
2BB0  00 00 00 00 00 00 00 00 00 00 00 00 00 00 00 00
2BC0  00 00 00 00 00 00 00 00 00 00 00 00 00 00 00 00
2BD0  00 00 00 00 00 00 00 00 00 00 00 00 00 00 00 00
2BE0  00 00 00 00 00 00 00 00 00 00 00 00 00 00 00 00
2BF0  00 00 00 00 00 00 00 00 00 00 00 00 00 00 00 00
2C00  90 B1 B2 B3 B4 F8 2D A3 F8 3F A2 F8 11 A1 D3 72
2C10  70 22 78 22 52 C4 C4 C4 F8 00 B0 F8 00 A0 80 E2
2C20  E2 20 A0 E2 20 A0 E2 20 A0 3C 1E 30 0F E2 69 3F
2C30  2F 6C A4 37 33 3F 35 6C 54 14 30 33 00 00 00 00
2C40  00 00 00 00 00 00 00 00 00 00 00 00 00 00 00 00
2C50  7B DE DB DE 00 00 00 00 4A 50 DA 52 00 00 00 00
2C60  42 5E AB D0 00 00 00 00 4A 42 8A 52 00 00 00 00
2C70  7B DE 8A 5E 00 00 00 00 00 00 00 00 00 00 00 00
2C80  00 00 00 00 00 00 07 E0 00 00 00 00 FF FF FF FF
2C90  00 06 00 01 00 00 00 01 00 7F E0 01 00 00 00 02
2CA0  7F C0 3F E0 FC FF FF FE 40 0F 00 10 04 80 00 00
2CB0  7F C0 3F E0 04 80 00 00 00 3F D0 40 04 80 00 00
2CC0  00 0F 08 20 04 80 7A 1E 00 00 07 90 04 80 42 10
2CD0  00 00 18 7F FC F0 72 1C 00 00 30 00 00 10 42 10
2CE0  00 00 73 FC 00 10 7B D0 00 00 30 00 3F F0 00 00
2CF0  00 00 18 0F C0 00 00 00 00 00 07 F0 00 00 00 00
2D00  00 00 00 00 00 00 00 00 00 00 00 00 00 00 00 00
2D10  00 00 00 00 00 00 00 00 00 00 00 00 00 00 00 00
2D20  00 00 00 00 00 00 00 00 00 00 00 00 00 00 00 00
2D30  00 00 00 00 00 00 00 00 00 00 00 00 00 00 00 00
2D40  00 00 00 00 00 00 00 00 00 00 00 00 00 00 00 00
2D50  00 00 00 00 00 00 00 00 00 00 00 00 00 00 00 00
2D60  00 00 00 00 00 00 00 00 00 00 00 00 00 00 00 00
2D70  00 00 00 00 00 00 00 00 00 00 00 00 00 00 00 00
2D80  00 00 00 00 00 00 00 00 00 00 00 00 00 00 00 00
2D90  00 00 00 00 00 00 00 00 00 00 00 00 00 00 00 00
2DA0  00 00 00 00 00 00 00 00 00 00 00 00 00 00 00 00
2DB0  00 00 00 00 00 00 00 00 00 00 00 00 00 00 00 00
2DC0  00 00 00 00 00 00 00 00 00 00 00 00 00 00 00 00
2DD0  00 00 00 00 00 00 00 00 00 00 00 00 00 00 00 00
2DE0  00 00 00 00 00 00 00 00 00 00 00 00 00 00 00 00
2DF0  00 00 00 00 00 00 00 00 00 00 00 00 00 00 00 00
2E00  00 00 00 00 00 00 00 00 00 00 00 00 00 00 00 00
2E10  00 00 00 00 00 00 00 00 00 00 00 00 00 00 00 00
2E20  00 00 00 00 00 00 00 00 00 00 00 00 00 00 00 00
2E30  00 00 00 00 00 00 00 00 00 00 00 00 00 00 00 00
2E40  00 00 00 00 00 00 00 00 00 00 00 00 00 00 00 00
2E50  00 00 00 00 00 00 00 00 00 00 00 00 00 00 00 00
2E60  00 00 00 00 00 00 00 00 00 00 00 00 00 00 00 00
2E70  00 00 00 00 00 00 00 00 00 00 00 00 00 00 00 00
2E80  00 00 00 00 00 00 00 00 00 00 00 00 00 00 00 00
2E90  00 00 00 00 00 00 00 00 00 00 00 00 00 00 00 00
2EA0  00 00 00 00 00 00 00 00 00 00 00 00 00 00 00 00
2EB0  00 00 00 00 00 00 00 00 00 00 00 00 00 00 00 00
2EC0  00 00 00 00 00 00 00 00 00 00 00 00 00 00 00 00
2ED0  00 00 00 00 00 00 00 00 00 00 00 00 00 00 00 00
2EE0  00 00 00 00 00 00 00 00 00 00 00 00 00 00 00 00
2EF0  00 00 00 00 00 00 00 00 00 00 00 00 00 00 00 00
2F00  00 00 00 00 00 00 00 00 00 00 00 00 00 00 00 00
2F10  00 00 00 00 00 00 00 00 00 00 00 00 00 00 00 00
2F20  00 00 00 00 00 00 00 00 00 00 00 00 00 00 00 00
2F30  00 00 00 00 00 00 00 00 00 00 00 00 00 00 00 00
2F40  00 00 00 00 00 00 00 00 00 00 00 00 00 00 00 00
2F50  00 00 00 00 00 00 00 00 00 00 00 00 00 00 00 00
2F60  00 00 00 00 00 00 00 00 00 00 00 00 00 00 00 00
2F70  00 00 00 00 00 00 00 00 00 00 00 00 00 00 00 00
2F80  00 00 00 00 00 00 00 00 00 00 00 00 00 00 00 00
2F90  00 00 00 00 00 00 00 00 00 00 00 00 00 00 00 00
2FA0  00 00 00 00 00 00 00 00 00 00 00 00 00 00 00 00
2FB0  00 00 00 00 00 00 00 00 00 00 00 00 00 00 00 00
2FC0  00 00 00 00 00 00 00 00 00 00 00 00 00 00 00 00
2FD0  00 00 00 00 00 00 00 00 00 00 00 00 00 00 00 00
2FE0  00 00 00 00 00 00 00 00 00 00 00 00 00 00 00 00
2FF0  00 00 00 00 00 00 00 00 00 00 00 00 00 00 00 00
3000  00 00 00 00 00 00 00 00 00 00 00 00 00 00 00 00
3010  00 00 00 00 00 00 00 00 00 00 00 00 00 00 00 00
3020  00 00 00 00 00 00 00 00 00 00 00 00 00 00 00 00
3030  00 00 00 00 00 00 00 00 00 00 00 00 00 00 00 00
3040  00 00 00 00 00 00 00 00 00 00 00 00 00 00 00 00
3050  00 00 00 00 00 00 00 00 00 00 00 00 00 00 00 00
3060  00 00 00 00 00 00 00 00 00 00 00 00 00 00 00 00
3070  00 00 00 00 00 00 00 00 00 00 00 00 00 00 00 00
3080  00 00 00 00 00 00 00 00 00 00 00 00 00 00 00 00
3090  00 00 00 00 00 00 00 00 00 00 00 00 00 00 00 00
30A0  00 00 00 00 00 00 00 00 00 00 00 00 00 00 00 00
30B0  00 00 00 00 00 00 00 00 00 00 00 00 00 00 00 00
30C0  00 00 00 00 00 00 00 00 00 00 00 00 00 00 00 00
30D0  00 00 00 00 00 00 00 00 00 00 00 00 00 00 00 00
30E0  00 00 00 00 00 00 00 00 00 00 00 00 00 00 00 00
30F0  00 00 00 00 00 00 00 00 00 00 00 00 00 00 00 00
3100  00 00 00 00 00 00 00 00 00 00 00 00 00 00 00 00
3110  00 00 00 00 00 00 00 00 00 00 00 00 00 00 00 00
3120  00 00 00 00 00 00 00 00 00 00 00 00 00 00 00 00
3130  00 00 00 00 00 00 00 00 00 00 00 00 00 00 00 00
3140  00 00 00 00 00 00 00 00 00 00 00 00 00 00 00 00
3150  00 00 00 00 00 00 00 00 00 00 00 00 00 00 00 00
3160  00 00 00 00 00 00 00 00 00 00 00 00 00 00 00 00
3170  00 00 00 00 00 00 00 00 00 00 00 00 00 00 00 00
3180  00 00 00 00 00 00 00 00 00 00 00 00 00 00 00 00
3190  00 00 00 00 00 00 00 00 00 00 00 00 00 00 00 00
31A0  00 00 00 00 00 00 00 00 00 00 00 00 00 00 00 00
31B0  00 00 00 00 00 00 00 00 00 00 00 00 00 00 00 00
31C0  00 00 00 00 00 00 00 00 00 00 00 00 00 00 00 00
31D0  00 00 00 00 00 00 00 00 00 00 00 00 00 00 00 00
31E0  00 00 00 00 00 00 00 00 00 00 00 00 00 00 00 00
31F0  00 00 00 00 00 00 00 00 00 00 00 00 00 00 00 00
3200  00 00 00 00 00 00 00 00 00 00 00 00 00 00 00 00
3210  00 00 00 00 00 00 00 00 00 00 00 00 00 00 00 00
3220  00 00 00 00 00 00 00 00 00 00 00 00 00 00 00 00
3230  00 00 00 00 00 00 00 00 00 00 00 00 00 00 00 00
3240  00 00 00 00 00 00 00 00 00 00 00 00 00 00 00 00
3250  00 00 00 00 00 00 00 00 00 00 00 00 00 00 00 00
3260  00 00 00 00 00 00 00 00 00 00 00 00 00 00 00 00
3270  00 00 00 00 00 00 00 00 00 00 00 00 00 00 00 00
3280  00 00 00 00 00 00 00 00 00 00 00 00 00 00 00 00
3290  00 00 00 00 00 00 00 00 00 00 00 00 00 00 00 00
32A0  00 00 00 00 00 00 00 00 00 00 00 00 00 00 00 00
32B0  00 00 00 00 00 00 00 00 00 00 00 00 00 00 00 00
32C0  00 00 00 00 00 00 00 00 00 00 00 00 00 00 00 00
32D0  00 00 00 00 00 00 00 00 00 00 00 00 00 00 00 00
32E0  00 00 00 00 00 00 00 00 00 00 00 00 00 00 00 00
32F0  00 00 00 00 00 00 00 00 00 00 00 00 00 00 00 00
3300  00 00 00 00 00 00 00 00 00 00 00 00 00 00 00 00
3310  00 00 00 00 00 00 00 00 00 00 00 00 00 00 00 00
3320  00 00 00 00 00 00 00 00 00 00 00 00 00 00 00 00
3330  00 00 00 00 00 00 00 00 00 00 00 00 00 00 00 00
3340  00 00 00 00 00 00 00 00 00 00 00 00 00 00 00 00
3350  00 00 00 00 00 00 00 00 00 00 00 00 00 00 00 00
3360  00 00 00 00 00 00 00 00 00 00 00 00 00 00 00 00
3370  00 00 00 00 00 00 00 00 00 00 00 00 00 00 00 00
3380  00 00 00 00 00 00 00 00 00 00 00 00 00 00 00 00
3390  00 00 00 00 00 00 00 00 00 00 00 00 00 00 00 00
33A0  00 00 00 00 00 00 00 00 00 00 00 00 00 00 00 00
33B0  00 00 00 00 00 00 00 00 00 00 00 00 00 00 00 00
33C0  00 00 00 00 00 00 00 00 00 00 00 00 00 00 00 00
33D0  00 00 00 00 00 00 00 00 00 00 00 00 00 00 00 00
33E0  00 00 00 00 00 00 00 00 00 00 00 00 00 00 00 00
33F0  00 00 00 00 00 00 00 00 00 00 00 00 00 00 00 00
3400  00 00 00 00 00 00 00 00 00 00 00 00 00 00 00 00
3410  00 00 00 00 00 00 00 00 00 00 00 00 00 00 00 00
3420  00 00 00 00 00 00 00 00 00 00 00 00 00 00 00 00
3430  00 00 00 00 00 00 00 00 00 00 00 00 00 00 00 00
3440  00 00 00 00 00 00 00 00 00 00 00 00 00 00 00 00
3450  00 00 00 00 00 00 00 00 00 00 00 00 00 00 00 00
3460  00 00 00 00 00 00 00 00 00 00 00 00 00 00 00 00
3470  00 00 00 00 00 00 00 00 00 00 00 00 00 00 00 00
3480  00 00 00 00 00 00 00 00 00 00 00 00 00 00 00 00
3490  00 00 00 00 00 00 00 00 00 00 00 00 00 00 00 00
34A0  00 00 00 00 00 00 00 00 00 00 00 00 00 00 00 00
34B0  00 00 00 00 00 00 00 00 00 00 00 00 00 00 00 00
34C0  00 00 00 00 00 00 00 00 00 00 00 00 00 00 00 00
34D0  00 00 00 00 00 00 00 00 00 00 00 00 00 00 00 00
34E0  00 00 00 00 00 00 00 00 00 00 00 00 00 00 00 00
34F0  00 00 00 00 00 00 00 00 00 00 00 00 00 00 00 00
3500  00 00 00 00 00 00 00 00 00 00 00 00 00 00 00 00
3510  00 00 00 00 00 00 00 00 00 00 00 00 00 00 00 00
3520  00 00 00 00 00 00 00 00 00 00 00 00 00 00 00 00
3530  00 00 00 00 00 00 00 00 00 00 00 00 00 00 00 00
3540  00 00 00 00 00 00 00 00 00 00 00 00 00 00 00 00
3550  00 00 00 00 00 00 00 00 00 00 00 00 00 00 00 00
3560  00 00 00 00 00 00 00 00 00 00 00 00 00 00 00 00
3570  00 00 00 00 00 00 00 00 00 00 00 00 00 00 00 00
3580  00 00 00 00 00 00 00 00 00 00 00 00 00 00 00 00
3590  00 00 00 00 00 00 00 00 00 00 00 00 00 00 00 00
35A0  00 00 00 00 00 00 00 00 00 00 00 00 00 00 00 00
35B0  00 00 00 00 00 00 00 00 00 00 00 00 00 00 00 00
35C0  00 00 00 00 00 00 00 00 00 00 00 00 00 00 00 00
35D0  00 00 00 00 00 00 00 00 00 00 00 00 00 00 00 00
35E0  00 00 00 00 00 00 00 00 00 00 00 00 00 00 00 00
35F0  00 00 00 00 00 00 00 00 00 00 00 00 00 00 00 00
3600  00 00 00 00 00 00 00 00 00 00 00 00 00 00 00 00
3610  00 00 00 00 00 00 00 00 00 00 00 00 00 00 00 00
3620  00 00 00 00 00 00 00 00 00 00 00 00 C0 56 7C 1C
3630  1B EE DB 01 00 00 00 00 00 00 00 00 00 00 00 00
3640  00 00 00 00 00 00 00 00 00 00 00 00 00 00 00 00
3650  00 00 00 00 00 00 00 00 00 00 00 00 00 00 00 00
3660  00 00 00 00 00 00 00 00 00 00 00 00 00 00 00 00
3670  00 00 00 00 00 00 00 00 00 00 00 00 00 00 00 00
3680  00 00 00 00 00 00 00 00 00 00 00 00 00 00 00 00
3690  00 00 00 00 00 00 00 00 00 00 00 00 00 00 00 00
36A0  00 00 00 00 00 00 00 00 00 00 00 00 00 00 00 00
36B0  00 00 00 00 00 00 00 00 00 00 00 00 00 00 00 00
36C0  00 00 00 00 00 00 00 00 00 00 00 00 00 00 00 00
36D0  00 00 00 00 00 00 00 00 00 00 00 00 00 00 00 00
36E0  00 00 00 00 00 00 00 00 00 00 00 00 00 00 00 00
36F0  00 00 00 00 00 00 00 00 00 00 00 00 00 00 00 00
3700  00 00 00 00 00 00 00 00 00 00 00 00 00 00 00 00
3710  00 00 00 00 00 00 00 00 00 00 00 00 00 00 00 00
3720  00 00 00 00 00 00 00 00 00 00 00 00 00 00 00 00
3730  00 00 00 00 00 00 00 00 00 00 00 00 00 00 00 00
3740  00 00 00 00 00 00 00 00 00 00 00 00 00 00 78 00
3750  03 00 00 00 08 50 03 78 08 50 03 78 20 50 03 78
3760  20 50 03 78 FF FF FF FF FF FF FF FF F0 00 00 00
3770  F1 00 00 00 00 00 00 00 00 00 00 00 00 00 00 00
3780  00 00 00 00 00 00 00 00 00 00 00 00 00 00 00 00
3790  00 00 00 00 00 00 00 00 00 00 00 00 00 00 00 00
37A0  00 00 00 00 00 00 00 00 00 00 00 00 00 00 00 00
37B0  00 00 00 00 00 00 00 00 00 00 00 00 00 00 00 00
37C0  00 00 00 00 00 00 00 00 00 00 00 00 00 00 00 00
37D0  00 00 00 00 00 00 00 00 00 00 00 00 00 00 00 00
37E0  00 00 00 00 00 00 00 00 00 00 00 00 00 00 00 00
37F0  00 00 00 00 00 00 00 00 00 00 00 00 00 00 00 00
3800  00 00 00 00 00 00 00 00 00 00 00 00 00 00 00 00
3810  00 00 00 00 00 00 00 00 00 00 00 00 00 00 00 00
3820  00 00 00 00 00 00 00 00 00 00 00 00 00 00 00 00
3830  00 00 00 00 00 00 00 00 00 00 00 00 00 00 00 00
3840  00 00 00 00 00 00 00 00 00 00 00 00 00 00 00 00
3850  00 00 00 00 00 00 00 00 00 00 00 00 00 00 00 00
3860  00 00 00 00 00 00 00 00 00 00 00 00 00 00 00 00
3870  00 00 00 00 00 00 00 00 00 00 00 00 00 00 00 00
3880  00 00 00 00 00 00 00 00 00 00 00 00 00 00 00 00
3890  00 00 00 00 00 00 00 00 00 00 00 00 00 00 00 00
38A0  00 00 00 00 00 00 00 00 00 00 00 00 00 00 00 00
38B0  00 00 00 00 00 00 00 00 00 00 00 00 00 00 00 00
38C0  00 00 00 00 00 00 00 00 00 00 00 00 00 00 00 00
38D0  00 00 00 00 00 00 00 00 00 00 00 00 00 00 00 00
38E0  00 00 00 00 00 00 00 00 00 00 00 00 00 00 00 00
38F0  00 00 00 00 00 00 00 00 00 00 00 00 00 00 00 00
3900  00 00 00 00 00 00 00 00 00 00 00 00 00 00 00 00
3910  00 00 00 00 00 00 00 00 00 00 00 00 00 00 00 00
3920  00 00 00 00 00 00 00 00 00 00 00 00 00 00 00 00
3930  00 00 00 00 00 00 00 00 00 00 00 00 00 00 00 00
3940  00 00 00 00 00 00 00 00 00 00 00 00 00 00 00 00
3950  00 00 00 00 00 00 00 00 00 00 00 00 00 00 00 00
3960  00 00 00 00 00 00 00 00 00 00 00 00 00 00 00 00
3970  00 00 00 00 00 00 00 00 00 00 00 00 00 00 00 00
3980  00 00 00 00 00 00 00 00 00 00 00 00 00 00 00 00
3990  00 00 00 00 00 00 00 00 00 00 00 00 00 00 00 00
39A0  00 00 00 00 00 00 00 00 00 00 00 00 00 00 00 00
39B0  00 00 00 00 00 00 00 00 00 00 00 00 00 00 00 00
39C0  00 00 00 00 00 00 00 00 00 00 00 00 00 00 00 00
39D0  00 00 00 00 00 00 00 00 00 00 00 00 00 00 00 00
39E0  00 00 00 00 00 00 00 00 00 00 00 00 00 00 00 00
39F0  00 00 00 00 00 00 00 00 00 00 00 00 00 00 00 00
3A00  00 00 00 00 00 00 00 00 00 00 00 00 00 00 00 00
3A10  00 00 00 00 00 00 00 00 00 00 00 00 00 00 00 00
3A20  00 00 00 00 00 00 00 00 00 00 00 00 00 00 00 00
3A30  00 00 00 00 00 00 00 00 00 00 00 00 00 00 00 00
3A40  00 00 00 00 00 00 00 00 00 00 00 00 00 00 00 00
3A50  00 00 00 00 00 00 00 00 00 00 00 00 00 00 00 00
3A60  00 00 00 00 00 00 00 00 00 00 00 00 00 00 00 00
3A70  00 00 00 00 00 00 00 00 00 00 00 00 00 00 00 00
3A80  00 00 00 00 00 00 00 00 00 00 00 00 00 00 00 00
3A90  00 00 00 00 00 00 00 00 00 00 00 00 00 00 00 00
3AA0  00 00 00 00 00 00 00 00 00 00 00 00 00 00 00 00
3AB0  00 00 00 00 00 00 00 00 00 00 00 00 00 00 00 00
3AC0  00 00 00 00 00 00 00 00 00 00 00 00 00 00 00 00
3AD0  00 00 00 00 00 00 00 00 00 00 00 00 00 00 00 00
3AE0  00 00 00 00 00 00 00 00 00 00 00 00 00 00 00 00
3AF0  00 00 00 00 00 00 00 00 00 00 00 00 00 00 00 00
3B00  00 00 00 00 00 00 00 00 00 00 00 00 00 00 00 00
3B10  00 00 00 00 00 00 00 00 00 00 00 00 00 00 00 00
3B20  00 00 00 00 00 00 00 00 00 00 00 00 00 00 00 00
3B30  00 00 00 00 00 00 00 00 00 00 00 00 00 00 00 00
3B40  00 00 00 00 00 00 00 00 00 00 00 00 00 00 00 00
3B50  00 00 00 00 00 00 00 00 00 00 00 00 00 00 00 00
3B60  00 00 00 00 00 00 00 00 00 00 00 00 00 00 00 00
3B70  00 00 00 00 00 00 00 00 00 00 00 00 00 00 00 00
3B80  00 00 00 00 00 00 00 00 00 00 00 00 00 00 00 00
3B90  00 00 00 00 00 00 00 00 00 00 00 00 00 00 00 00
3BA0  00 00 00 00 00 00 00 00 00 00 00 00 00 00 00 00
3BB0  00 00 00 00 00 00 00 00 00 00 00 00 00 00 00 00
3BC0  00 00 00 00 00 00 00 00 00 00 00 00 00 00 00 00
3BD0  00 00 00 00 00 00 00 00 00 00 00 00 00 00 00 00
3BE0  00 00 00 00 00 00 00 00 00 00 00 00 00 00 00 00
3BF0  00 00 00 00 00 00 00 00 00 00 00 00 00 00 00 00
3C00  00 00 00 00 00 00 00 00 00 00 00 00 00 00 00 00
3C10  00 00 00 00 00 00 00 00 00 00 00 00 00 00 00 00
3C20  00 00 00 00 00 00 00 00 00 00 00 00 00 00 00 00
3C30  00 00 00 00 00 00 00 00 00 00 00 00 00 00 00 00
3C40  00 00 00 00 00 00 00 00 00 00 00 00 00 00 00 00
3C50  00 00 00 00 00 00 00 00 00 00 00 00 00 00 00 00
3C60  00 00 00 00 00 00 00 00 00 00 00 00 00 00 00 00
3C70  00 00 00 00 00 00 00 00 00 00 00 00 00 00 00 00
3C80  00 00 00 00 00 00 00 00 00 00 00 00 00 00 00 00
3C90  00 00 00 00 00 00 00 00 00 00 00 00 00 00 00 00
3CA0  00 00 00 00 00 00 00 00 00 00 00 00 00 00 00 00
3CB0  00 00 00 00 00 00 00 00 00 00 00 00 00 00 00 00
3CC0  00 00 00 00 00 00 00 00 00 00 00 00 00 00 00 00
3CD0  00 00 00 00 00 00 00 00 00 00 00 00 00 00 00 00
3CE0  00 00 00 00 00 00 00 00 00 00 00 00 00 00 00 00
3CF0  00 00 00 00 00 00 00 00 00 00 00 00 00 00 00 00
3D00  00 00 00 00 00 00 00 00 00 00 00 00 00 00 00 00
3D10  00 00 00 00 00 00 00 00 00 00 00 00 00 00 00 00
3D20  00 00 00 00 00 00 00 00 00 00 00 00 00 00 00 00
3D30  00 00 00 00 00 00 00 00 00 00 00 00 00 00 00 00
3D40  00 00 00 00 00 00 00 00 00 00 00 00 00 00 00 00
3D50  00 00 00 00 00 00 00 00 00 00 00 00 00 00 00 00
3D60  00 00 00 00 00 00 00 00 00 00 00 00 00 00 00 00
3D70  00 00 00 00 00 00 00 00 00 00 00 00 00 00 00 00
3D80  00 00 00 00 00 00 00 00 00 00 00 00 00 00 00 00
3D90  00 00 00 00 00 00 00 00 00 00 00 00 00 00 00 00
3DA0  00 00 00 00 00 00 00 00 00 00 00 00 00 00 00 00
3DB0  00 00 00 00 00 00 00 00 00 00 00 00 00 00 00 00
3DC0  00 00 00 00 00 00 00 00 00 00 00 00 00 00 00 00
3DD0  00 00 00 00 00 00 00 00 00 00 00 00 00 00 00 00
3DE0  00 00 00 00 00 00 00 00 00 00 00 00 00 00 00 00
3DF0  00 00 00 00 00 00 00 00 00 00 00 00 00 00 00 00
3E00  00 00 00 00 00 00 00 00 00 00 00 00 00 00 00 00
3E10  00 00 00 00 00 00 00 00 00 00 00 00 00 00 00 00
3E20  00 00 00 00 00 00 00 00 00 00 00 00 00 00 00 00
3E30  00 00 00 00 00 00 00 00 00 00 00 00 00 00 00 00
3E40  00 00 00 00 00 00 00 00 00 00 00 00 00 00 00 00
3E50  00 00 00 00 00 00 00 00 00 00 00 00 00 00 00 00
3E60  00 00 00 00 00 00 00 00 00 00 00 00 00 00 00 00
3E70  00 00 00 00 00 00 00 00 00 00 00 00 00 00 00 00
3E80  00 00 00 00 00 00 00 00 00 00 00 00 00 00 00 00
3E90  00 00 00 00 00 00 00 00 00 00 00 00 00 00 00 00
3EA0  00 00 00 00 00 00 00 00 00 00 00 00 00 00 00 00
3EB0  00 00 00 00 00 00 00 00 00 00 00 00 00 00 00 00
3EC0  00 00 00 00 00 00 00 00 00 00 00 00 00 00 00 00
3ED0  00 00 00 00 00 00 00 00 00 00 00 00 00 00 00 00
3EE0  00 00 00 00 00 00 00 00 00 00 00 00 00 00 00 00
3EF0  00 00 00 00 00 00 00 00 00 00 00 00 00 00 00 00
3F00  00 00 00 00 00 00 00 00 00 00 00 00 00 00 00 00
3F10  00 00 00 00 00 00 00 00 00 00 00 00 00 00 00 00
3F20  00 00 00 00 00 00 00 00 00 00 00 00 00 00 00 00
3F30  00 00 00 00 00 00 00 00 00 00 00 00 00 00 00 00
3F40  00 00 00 00 00 00 00 00 00 00 00 00 00 00 00 00
3F50  00 00 00 00 00 00 00 00 00 00 00 00 00 00 00 00
3F60  00 00 00 00 00 00 00 00 00 00 00 00 00 00 00 00
3F70  00 00 00 00 00 00 00 00 00 00 00 00 00 00 00 00
3F80  00 00 00 00 00 00 00 00 00 00 00 00 00 00 00 00
3F90  00 00 00 00 00 00 00 00 00 00 00 00 00 00 00 00
3FA0  00 00 00 00 00 00 00 00 00 00 00 00 00 00 00 00
3FB0  00 00 00 00 00 00 00 00 00 00 00 00 00 00 00 00
3FC0  00 00 00 00 00 00 00 00 00 00 00 00 00 00 00 00
3FD0  00 00 00 00 00 00 00 00 00 00 00 00 00 00 00 00
3FE0  00 00 00 00 00 00 00 00 00 00 00 00 00 00 00 00
3FF0  00 00 00 00 00 00 00 00 00 00 00 00 00 00 00 00
4000  00 00 00 00 00 00 00 00 00 00 00 00 00 00 00 00
4010  00 00 00 00 00 00 00 00 00 00 00 00 00 00 00 00
4020  00 00 00 00 00 00 00 00 00 00 00 00 00 00 00 00
4030  00 00 00 00 00 00 00 00 00 00 00 00 00 00 00 00
4040  00 00 00 00 00 00 00 00 00 00 00 00 00 00 00 00
4050  00 00 00 00 00 00 00 00 00 00 00 00 00 00 00 00
4060  00 00 00 00 00 00 00 00 00 00 00 00 00 00 00 00
4070  00 00 00 00 00 00 00 00 00 00 00 00 00 00 00 00
4080  00 00 00 00 00 00 00 00 00 00 00 00 00 00 00 00
4090  00 00 00 00 00 00 00 00 00 00 00 00 00 00 00 00
40A0  00 00 00 00 00 00 00 00 00 00 00 00 00 00 00 00
40B0  00 00 00 00 00 00 00 00 00 00 00 00 00 00 00 00
40C0  00 00 00 00 00 00 00 00 00 00 00 00 00 00 00 00
40D0  00 00 00 00 00 00 00 00 00 00 00 00 00 00 00 00
40E0  00 00 00 00 00 00 00 00 00 00 00 00 00 00 00 00
40F0  00 00 00 00 00 00 00 00 00 00 00 00 00 00 00 00
4100  00 00 00 00 00 00 00 00 00 00 00 00 00 00 00 00
4110  00 00 00 00 00 00 00 00 00 00 00 00 00 00 00 00
4120  00 00 00 00 00 00 00 00 00 00 00 00 00 00 00 00
4130  00 00 00 00 00 00 00 00 00 00 00 00 00 00 00 00
4140  00 00 00 00 00 00 00 00 00 00 00 00 00 00 00 00
4150  00 00 00 00 00 00 00 00 00 00 00 00 00 00 00 00
4160  00 00 00 00 00 00 00 00 00 00 00 00 00 00 00 00
4170  00 00 00 00 00 00 00 00 00 00 00 00 00 00 00 00
4180  00 00 00 00 00 00 00 00 00 00 00 00 00 00 00 00
4190  00 00 00 00 00 00 00 00 00 00 00 00 00 00 00 00
41A0  00 00 00 00 00 00 00 00 00 00 00 00 00 00 00 00
41B0  00 00 00 00 00 00 00 00 00 00 00 00 00 00 00 00
41C0  00 00 00 00 00 00 00 00 00 00 00 00 00 00 00 00
41D0  00 00 00 00 00 00 00 00 00 00 00 00 00 00 00 00
41E0  00 00 00 00 00 00 00 00 00 00 00 00 00 00 00 00
41F0  00 00 00 00 00 00 00 00 00 00 00 00 00 00 00 00
4200  00 00 00 00 00 00 00 00 00 00 00 00 00 00 00 00
4210  00 00 00 00 00 00 00 00 00 00 00 00 00 00 00 00
4220  00 00 00 00 00 00 00 00 00 00 00 00 00 00 00 00
4230  00 00 00 00 00 00 00 00 00 00 00 00 00 00 00 00
4240  00 00 00 00 00 00 00 00 00 00 00 00 00 00 00 00
4250  00 00 00 00 00 00 00 00 00 00 00 00 00 00 00 00
4260  00 00 00 00 00 00 00 00 00 00 00 00 00 00 00 00
4270  00 00 00 00 00 00 00 00 00 00 00 00 00 00 00 00
4280  00 00 00 00 00 00 00 00 00 00 00 00 00 00 00 00
4290  00 00 00 00 00 00 00 00 00 00 00 00 00 00 00 00
42A0  00 00 00 00 00 00 00 00 00 00 00 00 00 00 00 00
42B0  00 00 00 00 00 00 00 00 00 00 00 00 00 00 00 00
42C0  00 00 00 00 00 00 00 00 00 00 00 00 00 00 00 00
42D0  00 00 00 00 00 00 00 00 00 00 00 00 00 00 00 00
42E0  00 00 00 00 00 00 00 00 00 00 00 00 00 00 00 00
42F0  00 00 00 00 00 00 00 00 00 00 00 00 00 00 00 00
4300  00 00 00 00 00 00 00 00 00 00 00 00 00 00 00 00
4310  00 00 00 00 00 00 00 00 00 00 00 00 00 00 00 00
4320  00 00 00 00 00 00 00 00 00 00 00 00 00 00 00 00
4330  00 00 00 00 00 00 00 00 00 00 00 00 00 00 00 00
4340  00 00 00 00 00 00 00 00 00 00 00 00 00 00 00 00
4350  00 00 00 00 00 00 00 00 00 00 00 00 00 00 00 00
4360  00 00 00 00 00 00 00 00 00 00 00 00 00 00 00 00
4370  00 00 00 00 00 00 00 00 00 00 00 00 00 00 00 00
4380  00 00 00 00 00 00 00 00 00 00 00 00 00 00 00 00
4390  00 00 00 00 00 00 00 00 00 00 00 00 00 00 00 00
43A0  00 00 00 00 00 00 00 00 00 00 00 00 00 00 00 00
43B0  00 00 00 00 00 00 00 00 00 00 00 00 00 00 00 00
43C0  00 00 00 00 00 00 00 00 00 00 00 00 00 00 00 00
43D0  00 00 00 00 00 00 00 00 00 00 00 00 00 00 00 00
43E0  00 00 00 00 00 00 00 00 00 00 00 00 00 00 00 00
43F0  00 00 00 00 00 00 00 00 00 00 00 00 00 00 00 00
4400  00 00 00 00 00 00 00 00 00 00 00 00 00 00 00 00
4410  00 00 00 00 00 00 00 00 00 00 00 00 00 00 00 00
4420  00 00 00 00 00 00 00 00 00 00 00 00 00 00 00 00
4430  00 00 00 00 00 00 00 00 00 00 00 00 00 00 00 00
4440  00 00 00 00 00 00 00 00 00 00 00 00 00 00 00 00
4450  00 00 00 00 00 00 00 00 00 00 00 00 00 00 00 00
4460  00 00 00 00 00 00 00 00 00 00 00 00 00 00 00 00
4470  00 00 00 00 00 00 00 00 00 00 00 00 00 00 00 00
4480  00 00 00 00 00 00 00 00 00 00 00 00 00 00 00 00
4490  00 00 00 00 00 00 00 00 00 00 00 00 00 00 00 00
44A0  00 00 00 00 00 00 00 00 00 00 00 00 00 00 00 00
44B0  00 00 00 00 00 00 00 00 00 00 00 00 00 00 00 00
44C0  00 00 00 00 00 00 00 00 00 00 00 00 00 00 00 00
44D0  00 00 00 00 00 00 00 00 00 00 00 00 00 00 00 00
44E0  00 00 00 00 00 00 00 00 00 00 00 00 00 00 00 00
44F0  00 00 00 00 00 00 00 00 00 00 00 00 00 00 00 00
4500  00 00 00 00 00 00 00 00 00 00 00 00 00 00 00 00
4510  00 00 00 00 00 00 00 00 00 00 00 00 00 00 00 00
4520  00 00 00 00 00 00 00 00 00 00 00 00 00 00 00 00
4530  00 00 00 00 00 00 00 00 00 00 00 00 00 00 00 00
4540  00 00 00 00 00 00 00 00 00 00 00 00 00 00 00 00
4550  00 00 00 00 00 00 00 00 00 00 00 00 00 00 00 00
4560  00 00 00 00 00 00 00 00 00 00 00 00 00 00 00 00
4570  00 00 00 00 00 00 00 00 00 00 00 00 00 00 00 00
4580  00 00 00 00 00 00 00 00 00 00 00 00 00 00 00 00
4590  00 00 00 00 00 00 00 00 00 00 00 00 00 00 00 00
45A0  00 00 00 00 00 00 00 00 00 00 00 00 00 00 00 00
45B0  00 00 00 00 00 00 00 00 00 00 00 00 00 00 00 00
45C0  00 00 00 00 00 00 00 00 00 00 00 00 00 00 00 00
45D0  00 00 00 00 00 00 00 00 00 00 00 00 00 00 00 00
45E0  00 00 00 00 00 00 00 00 00 00 00 00 00 00 00 00
45F0  00 00 00 00 00 00 00 00 00 00 00 00 00 00 00 00
4600  00 00 00 00 00 00 00 00 00 00 00 00 00 00 00 00
4610  00 00 00 00 00 00 00 00 00 00 00 00 00 00 00 00
4620  00 00 00 00 00 00 00 00 00 00 00 00 00 00 00 00
4630  00 00 00 00 00 00 00 00 00 00 00 00 00 00 00 00
4640  00 00 00 00 00 00 00 00 00 00 00 00 00 00 00 00
4650  00 00 00 00 00 00 00 00 00 00 00 00 00 00 00 00
4660  00 00 00 00 00 00 00 00 00 00 00 00 00 00 00 00
4670  00 00 00 00 00 00 00 00 00 00 00 00 00 00 00 00
4680  00 00 00 00 00 00 00 00 00 00 00 00 00 00 00 00
4690  00 00 00 00 00 00 00 00 00 00 00 00 00 00 00 00
46A0  00 00 00 00 00 00 00 00 00 00 00 00 00 00 00 00
46B0  00 00 00 00 00 00 00 00 00 00 00 00 00 00 00 00
46C0  00 00 00 00 00 00 00 00 00 00 00 00 00 00 00 00
46D0  00 00 00 00 00 00 00 00 00 00 00 00 00 00 00 00
46E0  00 00 00 00 00 00 00 00 00 00 00 00 00 00 00 00
46F0  00 00 00 00 00 00 00 00 00 00 00 00 00 00 00 00
4700  00 00 00 00 00 00 00 00 00 00 00 00 00 00 00 00
4710  00 00 00 00 00 00 00 00 00 00 00 00 00 00 00 00
4720  00 00 00 00 00 00 00 00 00 00 00 00 00 00 00 00
4730  00 00 00 00 00 00 00 00 00 00 00 00 00 00 00 00
4740  00 00 00 00 00 00 00 00 00 00 00 00 00 77 70 72
4750  69 6E 74 66 00 77 73 63 61 6E 66 00 00 00 00 00
4760  00 00 00 00 00 00 00 00 00 00 00 00 00 00 00 00
4770  00 00 00 00 00 00 00 00 00 00 00 00 00 00 00 00
4780  00 00 00 00 00 00 00 00 00 00 00 00 00 00 00 00
4790  03 83 B6 36 00 00 00 00 02 00 00 00 35 00 00 00
47A0  00 00 00 00 00 10 04 00 00 00 00 00 00 00 00 00
47B0  00 00 00 00 0A 00 00 00 00 00 00 00 00 00 00 00
47C0  00 00 00 00 00 00 00 00 00 00 00 00 00 00 00 00
47D0  00 00 00 00 00 00 00 00 00 00 00 00 00 00 00 FF
47E0  00 00 00 00 00 00 00 00 00 00 00 00 00 41 03 00
47F0  B3 C2 1F 37 00 00 F7 BF C8 40 03 00 00 E0 02 00
4800  00 00 00 00 00 00 00 00 00 00 00 00 00 00 00 00
4810  00 00 00 00 4B 45 52 4E 45 4C 33 32 2E 64 6C 6C
4820  00 00 00 00 00 00 00 00 00 00 00 00 00 00 00 00
4830  00 00 00 00 00 00 00 00 00 00 00 00 00 00 00 00
4840  00 00 00 00 00 00 00 00 00 00 00 00 48 48 03 00
4850  56 43 03 00 62 43 03 00 72 43 03 00 82 43 03 00
4860  92 43 03 00 B0 43 03 00 C6 43 03 00 DC 43 03 00
4870  EA 43 03 00 FE 43 03 00 12 44 03 00 1E 44 03 00
4880  2E 44 03 00 40 44 03 00 4E 44 03 00 6A 44 03 00
4890  82 44 03 00 9A 44 03 00 B2 44 03 00 C2 44 03 00
48A0  D2 44 03 00 E2 44 03 00 F0 44 03 00 FE 44 03 00
48B0  0C 45 03 00 22 45 03 00 2E 45 03 00 38 45 03 00
48C0  48 45 03 00 56 45 03 00 6A 45 03 00 7A 45 03 00
48D0  8C 45 03 00 98 45 03 00 A8 45 03 00 BA 45 03 00
48E0  C6 45 03 00 D2 45 03 00 E6 45 03 00 00 46 03 00
48F0  10 46 03 00 1E 46 03 00 2C 46 03 00 3A 46 03 00
4900  4A 46 03 00 58 46 03 00 6A 46 03 00 78 46 03 00
4910  8A 46 03 00 96 46 03 00 A0 46 03 00 AC 46 03 00
4920  BE 46 03 00 CE 46 03 00 E4 46 03 00 F6 46 03 00
4930  10 47 03 00 2A 47 03 00 40 47 03 00 58 47 03 00
4940  72 47 03 00 8E 47 03 00 A0 47 03 00 B2 47 03 00
4950  C2 47 03 00 D2 47 03 00 EA 47 03 00 04 48 03 00
4960  1C 48 03 00 34 48 03 00 44 43 03 00 5A 48 03 00
4970  6A 48 03 00 72 48 03 00 84 48 03 00 96 48 03 00
4980  A6 48 03 00 B8 48 03 00 CA 48 03 00 E0 48 03 00
4990  F6 48 03 00 08 49 03 00 22 49 03 00 3C 49 03 00
49A0  44 49 03 00 5C 49 03 00 76 49 03 00 8A 49 03 00
49B0  9E 49 03 00 AE 49 03 00 C4 49 03 00 DC 49 03 00
49C0  F4 49 03 00 0A 4A 03 00 1E 4A 03 00 2E 4A 03 00
49D0  44 4A 03 00 58 4A 03 00 6C 4A 03 00 7A 4A 03 00
49E0  90 4A 03 00 A8 4A 03 00 C0 4A 03 00 D6 4A 03 00
49F0  EA 4A 03 00 FE 4A 03 00 0C 4B 03 00 18 4B 03 00
4A00  2C 4B 03 00 3C 4B 03 00 48 4B 03 00 5E 4B 03 00
4A10  74 4B 03 00 82 4B 03 00 94 4B 03 00 A6 4B 03 00
4A20  B6 4B 03 00 C4 4B 03 00 D0 4B 03 00 DC 4B 03 00
4A30  EC 4B 03 00 FE 4B 03 00 10 4C 03 00 20 4C 03 00
4A40  30 4C 03 00 42 4C 03 00 60 4C 03 00 70 4C 03 00
4A50  84 4C 03 00 98 4C 03 00 B8 4C 03 00 C4 4C 03 00
4A60  D2 4C 03 00 E0 4C 03 00 EE 4C 03 00 FA 4C 03 00
4A70  08 4D 03 00 22 4D 03 00 30 4D 03 00 4A 4D 03 00
4A80  62 4D 03 00 72 4D 03 00 82 4D 03 00 00 00 00 00
4A90  0B 02 52 61 69 73 65 45 78 63 65 70 74 69 6F 6E
4AA0  00 00 2F 02 52 74 6C 55 6E 77 69 6E 64 00 B5 01
4AB0  49 73 42 61 64 52 65 61 64 50 74 72 00 00 B8 01
4AC0  49 73 42 61 64 57 72 69 74 65 50 74 72 00 B2 01
4AD0  49 73 42 61 64 43 6F 64 65 50 74 72 00 00 8B 02
4AE0  53 65 74 55 6E 68 61 6E 64 6C 65 64 45 78 63 65
4AF0  70 74 69 6F 6E 46 69 6C 74 65 72 00 24 01 47 65
4B00  74 4D 6F 64 75 6C 65 46 69 6C 65 4E 61 6D 65 41
4B10  00 00 25 01 47 65 74 4D 6F 64 75 6C 65 46 69 6C
4B20  65 4E 61 6D 65 57 00 00 7D 00 45 78 69 74 50 72
4B30  6F 63 65 73 73 00 9E 02 54 65 72 6D 69 6E 61 74
4B40  65 50 72 6F 63 65 73 73 00 00 F7 00 47 65 74 43
4B50  75 72 72 65 6E 74 50 72 6F 63 65 73 73 00 DF 02
4B60  57 72 69 74 65 46 69 6C 65 00 52 01 47 65 74 53
4B70  74 64 48 61 6E 64 6C 65 00 00 CA 00 47 65 74 43
4B80  6F 6D 6D 61 6E 64 4C 69 6E 65 41 00 74 01 47 65
4B90  74 56 65 72 73 69 6F 6E 00 00 AA 01 49 6E 69 74
4BA0  69 61 6C 69 7A 65 43 72 69 74 69 63 61 6C 53 65
4BB0  63 74 69 6F 6E 00 55 00 44 65 6C 65 74 65 43 72
4BC0  69 74 69 63 61 6C 53 65 63 74 69 6F 6E 00 66 00
4BD0  45 6E 74 65 72 43 72 69 74 69 63 61 6C 53 65 63
4BE0  74 69 6F 6E 00 00 C1 01 4C 65 61 76 65 43 72 69
4BF0  74 69 63 61 6C 53 65 63 74 69 6F 6E 00 00 1A 01
4C00  47 65 74 4C 61 73 74 45 72 72 6F 72 00 00 2C 02
4C10  52 65 73 75 6D 65 54 68 72 65 61 64 00 00 4A 00
4C20  43 72 65 61 74 65 54 68 72 65 61 64 00 00 A5 02
4C30  54 6C 73 53 65 74 56 61 6C 75 65 00 7E 00 45 78
4C40  69 74 54 68 72 65 61 64 00 00 1B 00 43 6C 6F 73
4C50  65 48 61 6E 64 6C 65 00 FA 00 47 65 74 43 75 72
4C60  72 65 6E 74 54 68 72 65 61 64 49 64 00 00 A2 02
4C70  54 6C 73 41 6C 6C 6F 63 00 00 A3 02 54 6C 73 46
4C80  72 65 65 00 71 02 53 65 74 4C 61 73 74 45 72 72
4C90  6F 72 00 00 A4 02 54 6C 73 47 65 74 56 61 6C 75
4CA0  65 00 F9 00 47 65 74 43 75 72 72 65 6E 74 54 68
4CB0  72 65 61 64 00 00 9D 00 46 69 6E 64 4E 65 78 74
4CC0  46 69 6C 65 41 00 94 00 46 69 6E 64 46 69 72 73
4CD0  74 46 69 6C 65 41 00 00 90 00 46 69 6E 64 43 6C
4CE0  6F 73 65 00 9E 00 46 69 6E 64 4E 65 78 74 46 69
4CF0  6C 65 57 00 97 00 46 69 6E 64 46 69 72 73 74 46
4D00  69 6C 65 57 00 00 9F 01 48 65 61 70 46 72 65 65
4D10  00 00 99 01 48 65 61 70 41 6C 6C 6F 63 00 26 01
4D20  47 65 74 4D 6F 64 75 6C 65 48 61 6E 64 6C 65 41
4D30  00 00 09 01 47 65 74 45 6E 76 69 72 6F 6E 6D 65
4D40  6E 74 56 61 72 69 61 62 6C 65 41 00 75 01 47 65
4D50  74 56 65 72 73 69 6F 6E 45 78 41 00 9D 01 48 65
4D60  61 70 44 65 73 74 72 6F 79 00 9B 01 48 65 61 70
4D70  43 72 65 61 74 65 00 00 BF 02 56 69 72 74 75 61
4D80  6C 46 72 65 65 00 BB 02 56 69 72 74 75 61 6C 41
4D90  6C 6C 6F 63 00 00 A2 01 48 65 61 70 52 65 41 6C
4DA0  6C 6F 63 00 6D 02 53 65 74 48 61 6E 64 6C 65 43
4DB0  6F 75 6E 74 00 00 15 01 47 65 74 46 69 6C 65 54
4DC0  79 70 65 00 50 01 47 65 74 53 74 61 72 74 75 70
4DD0  49 6E 66 6F 41 00 BF 00 47 65 74 43 50 49 6E 66
4DE0  6F 00 B9 00 47 65 74 41 43 50 00 00 31 01 47 65
4DF0  74 4F 45 4D 43 50 00 00 3E 01 47 65 74 50 72 6F
4E00  63 41 64 64 72 65 73 73 00 00 C2 01 4C 6F 61 64
4E10  4C 69 62 72 61 72 79 41 00 00 E4 01 4D 75 6C 74
4E20  69 42 79 74 65 54 6F 57 69 64 65 43 68 61 72 00
4E30  CB 00 47 65 74 43 6F 6D 6D 61 6E 64 4C 69 6E 65
4E40  57 00 B2 00 46 72 65 65 45 6E 76 69 72 6F 6E 6D
4E50  65 6E 74 53 74 72 69 6E 67 73 41 00 B3 00 46 72
4E60  65 65 45 6E 76 69 72 6F 6E 6D 65 6E 74 53 74 72
4E70  69 6E 67 73 57 00 D2 02 57 69 64 65 43 68 61 72
4E80  54 6F 4D 75 6C 74 69 42 79 74 65 00 06 01 47 65
4E90  74 45 6E 76 69 72 6F 6E 6D 65 6E 74 53 74 72 69
4EA0  6E 67 73 00 08 01 47 65 74 45 6E 76 69 72 6F 6E
4EB0  6D 65 6E 74 53 74 72 69 6E 67 73 57 00 00 AD 02
4EC0  55 6E 68 61 6E 64 6C 65 64 45 78 63 65 70 74 69
4ED0  6F 6E 46 69 6C 74 65 72 00 00 53 01 47 65 74 53
4EE0  74 72 69 6E 67 54 79 70 65 41 00 00 56 01 47 65
4EF0  74 53 74 72 69 6E 67 54 79 70 65 57 00 00 BF 01
4F00  4C 43 4D 61 70 53 74 72 69 6E 67 41 00 00 C0 01
4F10  4C 43 4D 61 70 53 74 72 69 6E 67 57 00 00 41 02
4F20  53 65 74 43 6F 6E 73 6F 6C 65 43 74 72 6C 48 61
4F30  6E 64 6C 65 72 00 63 02 53 65 74 45 6E 76 69 72
4F40  6F 6E 6D 65 6E 74 56 61 72 69 61 62 6C 65 57 00
4F50  AD 01 49 6E 74 65 72 6C 6F 63 6B 65 64 44 65 63
4F60  72 65 6D 65 6E 74 00 00 B0 01 49 6E 74 65 72 6C
4F70  6F 63 6B 65 64 49 6E 63 72 65 6D 65 6E 74 00 00
4F80  AA 00 46 6C 75 73 68 46 69 6C 65 42 75 66 66 65
4F90  72 73 00 00 6A 02 53 65 74 46 69 6C 65 50 6F 69
4FA0  6E 74 65 72 00 00 7C 02 53 65 74 53 74 64 48 61
4FB0  6E 64 6C 65 00 00 96 02 53 6C 65 65 70 00 21 00
4FC0  43 6F 6D 70 61 72 65 53 74 72 69 6E 67 41 00 00
4FD0  22 00 43 6F 6D 70 61 72 65 53 74 72 69 6E 67 57
4FE0  00 00 BE 01 49 73 56 61 6C 69 64 4C 6F 63 61 6C
4FF0  65 00 BD 01 49 73 56 61 6C 69 64 43 6F 64 65 50
5000  61 67 65 00 1C 01 47 65 74 4C 6F 63 61 6C 65 49
5010  6E 66 6F 41 00 00 77 00 45 6E 75 6D 53 79 73 74
5020  65 6D 4C 6F 63 61 6C 65 73 41 00 00 71 01 47 65
5030  74 55 73 65 72 44 65 66 61 75 6C 74 4C 43 49 44
5040  00 00 1D 01 47 65 74 4C 6F 63 61 6C 65 49 6E 66
5050  6F 57 00 00 70 01 47 65 74 54 69 6D 65 5A 6F 6E
5060  65 49 6E 66 6F 72 6D 61 74 69 6F 6E 00 00 62 02
5070  53 65 74 45 6E 76 69 72 6F 6E 6D 65 6E 74 56 61
5080  72 69 61 62 6C 65 41 00 0B 00 42 65 65 70 00 00
5090  8A 00 46 69 6C 65 54 69 6D 65 54 6F 53 79 73 74
50A0  65 6D 54 69 6D 65 00 00 89 00 46 69 6C 65 54 69
50B0  6D 65 54 6F 4C 6F 63 61 6C 46 69 6C 65 54 69 6D
50C0  65 00 00 01 47 65 74 44 69 73 6B 46 72 65 65 53
50D0  70 61 63 65 41 00 20 01 47 65 74 4C 6F 67 69 63
50E0  61 6C 44 72 69 76 65 73 00 00 64 02 53 65 74 45
50F0  72 72 6F 72 4D 6F 64 65 00 00 0D 01 47 65 74 46
5100  69 6C 65 41 74 74 72 69 62 75 74 65 73 41 00 00
5110  F5 00 47 65 74 43 75 72 72 65 6E 74 44 69 72 65
5120  63 74 6F 72 79 41 00 00 5D 02 53 65 74 43 75 72
5130  72 65 6E 74 44 69 72 65 63 74 6F 72 79 41 00 00
5140  68 02 53 65 74 46 69 6C 65 41 74 74 72 69 62 75
5150  74 65 73 41 00 00 16 01 47 65 74 46 75 6C 6C 50
5160  61 74 68 4E 61 6D 65 41 00 00 04 01 47 65 74 44
5170  72 69 76 65 54 79 70 65 41 00 F8 00 47 65 74 43
5180  75 72 72 65 6E 74 50 72 6F 63 65 73 73 49 64 00
5190  2D 00 43 72 65 61 74 65 44 69 72 65 63 74 6F 72
51A0  79 41 00 00 27 02 52 65 6D 6F 76 65 44 69 72 65
51B0  63 74 6F 72 79 41 00 00 57 00 44 65 6C 65 74 65
51C0  46 69 6C 65 41 00 10 01 47 65 74 46 69 6C 65 41
51D0  74 74 72 69 62 75 74 65 73 57 00 00 F6 00 47 65
51E0  74 43 75 72 72 65 6E 74 44 69 72 65 63 74 6F 72
51F0  79 57 00 00 5E 02 53 65 74 43 75 72 72 65 6E 74
5200  44 69 72 65 63 74 6F 72 79 57 00 00 69 02 53 65
5210  74 46 69 6C 65 41 74 74 72 69 62 75 74 65 73 57
5220  00 00 17 01 47 65 74 46 75 6C 6C 50 61 74 68 4E
5230  61 6D 65 57 00 00 30 00 43 72 65 61 74 65 44 69
5240  72 65 63 74 6F 72 79 57 00 00 58 00 44 65 6C 65
5250  74 65 46 69 6C 65 57 00 E0 01 4D 6F 76 65 46 69
5260  6C 65 57 00 28 02 52 65 6D 6F 76 65 44 69 72 65
5270  63 74 6F 72 79 57 00 00 05 01 47 65 74 44 72 69
5280  76 65 54 79 70 65 57 00 DD 01 4D 6F 76 65 46 69
5290  6C 65 41 00 0B 01 47 65 74 45 78 69 74 43 6F 64
52A0  65 50 72 6F 63 65 73 73 00 00 CE 02 57 61 69 74
52B0  46 6F 72 53 69 6E 67 6C 65 4F 62 6A 65 63 74 00
52C0  B4 00 46 72 65 65 4C 69 62 72 61 72 79 00 44 00
52D0  43 72 65 61 74 65 50 72 6F 63 65 73 73 41 00 00
52E0  45 00 43 72 65 61 74 65 50 72 6F 63 65 73 73 57
52F0  00 00 A7 01 48 65 61 70 56 61 6C 69 64 61 74 65
5300  00 00 9A 01 48 65 61 70 43 6F 6D 70 61 63 74 00
5310  A8 01 48 65 61 70 57 61 6C 6B 00 00 A3 01 48 65
5320  61 70 53 69 7A 65 00 00 0C 02 52 65 61 64 43 6F
5330  6E 73 6F 6C 65 41 00 00 50 02 53 65 74 43 6F 6E
5340  73 6F 6C 65 4D 6F 64 65 00 00 EB 00 47 65 74 43
5350  6F 6E 73 6F 6C 65 4D 6F 64 65 00 00 61 02 53 65
5360  74 45 6E 64 4F 66 46 69 6C 65 00 00 D4 02 57 72
5370  69 74 65 43 6F 6E 73 6F 6C 65 41 00 63 00 44 75
5380  70 6C 69 63 61 74 65 48 61 6E 64 6C 65 00 11 01
5390  47 65 74 46 69 6C 65 49 6E 66 6F 72 6D 61 74 69
53A0  6F 6E 42 79 48 61 6E 64 6C 65 00 00 F9 01 50 65
53B0  65 6B 4E 61 6D 65 64 50 69 70 65 00 0D 02 52 65
53C0  61 64 43 6F 6E 73 6F 6C 65 49 6E 70 75 74 41 00
53D0  F7 01 50 65 65 6B 43 6F 6E 73 6F 6C 65 49 6E 70
53E0  75 74 41 00 2F 01 47 65 74 4E 75 6D 62 65 72 4F
53F0  66 43 6F 6E 73 6F 6C 65 49 6E 70 75 74 45 76 65
5400  6E 74 73 00 D3 01 4C 6F 63 6B 46 69 6C 65 00 00
5410  AE 02 55 6E 6C 6F 63 6B 46 69 6C 65 00 00 34 00
5420  43 72 65 61 74 65 46 69 6C 65 41 00 43 00 43 72
5430  65 61 74 65 50 69 70 65 00 00 18 02 52 65 61 64
5440  46 69 6C 65 00 00 37 00 43 72 65 61 74 65 46 69
5450  6C 65 57 00 5F 01 47 65 74 53 79 73 74 65 6D 54
5460  69 6D 65 41 73 46 69 6C 65 54 69 6D 65 00 6C 02
5470  53 65 74 46 69 6C 65 54 69 6D 65 00 CA 01 4C 6F
5480  63 61 6C 46 69 6C 65 54 69 6D 65 54 6F 46 69 6C
5490  65 54 69 6D 65 00 9B 02 53 79 73 74 65 6D 54 69
54A0  6D 65 54 6F 46 69 6C 65 54 69 6D 65 00 00 1B 01
54B0  47 65 74 4C 6F 63 61 6C 54 69 6D 65 00 00 72 02
54C0  53 65 74 4C 6F 63 61 6C 54 69 6D 65 00 00 5D 01
54D0  47 65 74 53 79 73 74 65 6D 54 69 6D 65 00 00 00
54E0  00 00 00 00 00 00 00 00 00 00 00 00 00 00 00 00
54F0  00 00 00 00 00 00 00 00 00 00 00 00 00 00 00 00
5500  00 00 00 00 00 00 00 00 00 00 00 00 00 00 00 00
5510  00 00 00 00 00 00 00 00 00 00 00 00 00 00 00 00
5520  00 00 00 00 00 00 00 00 00 00 00 00 00 00 00 00
5530  00 00 00 00 00 00 00 00 00 00 00 00 00 00 00 00
5540  00 00 00 00 00 00 00 00 00 00 00 00 00 00 00 00
5550  00 00 00 00 00 00 00 00 00 00 00 00 00 00 00 00
5560  00 00 00 00 00 00 00 00 00 00 00 00 00 00 00 00
5570  00 00 00 00 00 00 00 00 00 00 00 00 00 00 00 00
5580  00 00 00 00 00 00 00 00 00 00 00 00 00 00 00 00
5590  00 00 00 00 00 00 00 00 00 00 00 00 00 00 00 00
55A0  00 00 00 00 00 00 00 00 00 00 00 00 00 00 00 00
55B0  00 00 00 00 00 00 00 00 00 00 00 00 00 00 00 00
55C0  00 00 00 00 00 00 00 00 00 00 00 00 00 00 00 00
55D0  00 00 00 00 00 00 00 00 00 00 00 00 00 00 00 00
55E0  00 00 00 00 00 00 00 00 00 00 00 00 00 00 00 00
55F0  00 00 00 00 00 00 00 00 00 00 00 00 00 00 00 00
5600  00 00 00 00 00 00 00 00 00 00 00 00 00 00 00 00
5610  00 00 00 00 00 00 00 00 00 00 00 00 00 00 00 00
5620  00 00 00 00 00 00 00 00 00 00 00 00 00 00 00 00
5630  00 00 00 00 00 00 00 00 00 00 00 00 00 00 00 00
5640  00 00 00 00 00 00 00 00 00 00 00 00 00 00 00 00
5650  00 00 00 00 00 00 00 00 00 00 00 00 00 00 00 00
5660  00 00 00 00 00 00 00 00 00 00 00 00 00 00 00 00
5670  00 00 00 00 00 00 00 00 00 00 00 00 00 00 00 00
5680  00 00 00 00 00 00 00 00 00 00 00 00 00 00 00 00
5690  00 00 00 00 00 00 00 00 00 00 00 00 00 00 00 00
56A0  00 00 00 00 00 00 00 00 00 00 00 00 00 00 00 00
56B0  00 00 00 00 00 00 00 00 00 00 00 00 00 00 00 00
56C0  00 00 00 00 00 00 00 00 00 00 00 00 00 00 00 00
56D0  00 00 00 00 00 00 00 00 00 00 00 00 00 00 00 00
56E0  00 00 00 00 00 00 00 00 00 00 00 00 00 00 00 00
56F0  00 00 00 00 00 00 00 00 00 00 00 00 00 00 00 00
5700  00 00 00 00 00 00 00 00 00 00 00 00 00 00 00 00
5710  00 00 00 00 00 00 00 00 00 00 00 00 00 00 00 00
5720  00 00 00 00 00 00 00 00 00 00 00 00 00 00 00 00
5730  00 00 00 00 00 00 00 00 00 00 00 00 00 00 00 00
5740  00 00 00 00 00 00 00 00 00 00 00 00 34 74 6F 77
5750  00 5F 69 6E 69 74 74 65 72 6D 00 5F 69 6E 70 00
5760  5F 69 6E 70 64 00 5F 69 6E 70 77 00 5F 69 6F 62
5770  00 5F 69 73 61 74 74 79 00 5F 69 73 63 74 79 70
5780  65 00 5F 69 73 6D 62 62 61 6C 6E 75 6D 00 5F 69
5790  73 6D 62 62 61 6C 70 68 61 00 5F 69 73 6D 62 62
57A0  67 72 61 70 68 00 5F 69 73 6D 62 62 6B 61 6C 6E
57B0  75 6D 00 5F 69 73 6D 62 62 6B 61 6E 61 00 5F 69
57C0  73 6D 62 62 6B 70 72 69 6E 74 00 5F 69 73 6D 62
57D0  62 6B 70 75 6E 63 74 00 5F 69 73 6D 62 62 6C 65
57E0  61 64 00 5F 69 73 6D 62 62 70 72 69 6E 74 00 5F
57F0  69 73 6D 62 62 70 75 6E 63 74 00 5F 69 73 6D 62
5800  62 74 72 61 69 6C 00 5F 69 73 6D 62 63 61 6C 6E
5810  75 6D 00 5F 69 73 6D 62 63 61 6C 70 68 61 00 5F
5820  69 73 6D 62 63 64 69 67 69 74 00 5F 69 73 6D 62
5830  63 67 72 61 70 68 00 5F 69 73 6D 62 63 68 69 72
5840  61 00 5F 69 73 6D 62 63 6B 61 74 61 00 5F 69 73
5850  6D 62 63 6C 30 00 5F 69 73 6D 62 63 6C 31 00 5F
5860  69 73 6D 62 63 6C 32 00 5F 69 73 6D 62 63 6C 65
5870  67 61 6C 00 5F 69 73 6D 62 63 6C 6F 77 65 72 00
5880  5F 69 73 6D 62 63 70 72 69 6E 74 00 5F 69 73 6D
5890  62 63 70 75 6E 63 74 00 5F 69 73 6D 62 63 73 70
58A0  61 63 65 00 5F 69 73 6D 62 63 73 79 6D 62 6F 6C
58B0  00 5F 69 73 6D 62 63 75 70 70 65 72 00 5F 69 73
58C0  6D 62 73 6C 65 61 64 00 5F 69 73 6D 62 73 74 72
58D0  61 69 6C 00 5F 69 73 6E 61 6E 00 5F 69 74 6F 61
58E0  00 5F 69 74 6F 77 00 5F 6A 30 00 5F 6A 31 00 5F
58F0  6A 6E 00 5F 6B 62 68 69 74 00 5F 6C 66 69 6E 64
5900  00 5F 6C 6F 61 64 64 6C 6C 00 5F 6C 6F 63 61 6C
5910  5F 75 6E 77 69 6E 64 32 00 5F 6C 6F 63 6B 00 5F
5920  6C 6F 63 6B 69 6E 67 00 5F 6C 6F 67 62 00 5F 6C
5930  6F 6E 67 6A 6D 70 65 78 00 5F 6C 72 6F 74 6C 00
5940  5F 6C 72 6F 74 72 00 5F 6C 73 65 61 72 63 68 00
5950  5F 6C 73 65 65 6B 00 5F 6C 73 65 65 6B 69 36 34
5960  00 5F 6C 74 6F 61 00 5F 6C 74 6F 77 00 5F 6D 61
5970  6B 65 70 61 74 68 00 5F 6D 62 62 74 6F 6D 62 63
5980  00 5F 6D 62 62 74 79 70 65 00 5F 6D 62 63 61 73
5990  65 6D 61 70 00 5F 6D 62 63 63 70 79 00 5F 6D 62
59A0  63 6A 69 73 74 6F 6A 6D 73 00 5F 6D 62 63 6A 6D
59B0  73 74 6F 6A 69 73 00 5F 6D 62 63 6C 65 6E 00 5F
59C0  6D 62 63 74 6F 68 69 72 61 00 5F 6D 62 63 74 6F
59D0  6B 61 74 61 00 5F 6D 62 63 74 6F 6C 6F 77 65 72
59E0  00 5F 6D 62 63 74 6F 6D 62 62 00 5F 6D 62 63 74
59F0  6F 75 70 70 65 72 00 5F 6D 62 63 74 79 70 65 00
5A00  5F 6D 62 73 62 74 79 70 65 00 5F 6D 62 73 63 61
5A10  74 00 5F 6D 62 73 63 68 72 00 5F 6D 62 73 63 6D
5A20  70 00 5F 6D 62 73 63 6F 6C 6C 00 5F 6D 62 73 63
5A30  70 79 00 5F 6D 62 73 63 73 70 6E 00 5F 6D 62 73
5A40  64 65 63 00 5F 6D 62 73 64 75 70 00 5F 6D 62 73
5A50  69 63 6D 70 00 5F 6D 62 73 69 63 6F 6C 6C 00 5F
5A60  6D 62 73 69 6E 63 00 5F 6D 62 73 6C 65 6E 00 5F
5A70  6D 62 73 6C 77 72 00 5F 6D 62 73 6E 62 63 61 74
5A80  00 5F 6D 62 73 6E 62 63 6D 70 00 5F 6D 62 73 6E
5A90  62 63 6E 74 00 5F 6D 62 73 6E 62 63 6F 6C 6C 00
5AA0  5F 6D 62 73 6E 62 63 70 79 00 5F 6D 62 73 6E 62
5AB0  69 63 6D 70 00 5F 6D 62 73 6E 62 69 63 6F 6C 6C
5AC0  00 5F 6D 62 73 6E 62 73 65 74 00 5F 6D 62 73 6E
5AD0  63 61 74 00 5F 6D 62 73 6E 63 63 6E 74 00 5F 6D
5AE0  62 73 6E 63 6D 70 00 5F 6D 62 73 6E 63 6F 6C 6C
5AF0  00 5F 6D 62 73 6E 63 70 79 00 5F 6D 62 73 6E 65
5B00  78 74 63 00 5F 6D 62 73 6E 69 63 6D 70 00 5F 6D
5B10  62 73 6E 69 63 6F 6C 6C 00 5F 6D 62 73 6E 69 6E
5B20  63 00 5F 6D 62 73 6E 73 65 74 00 5F 6D 62 73 70
5B30  62 72 6B 00 5F 6D 62 73 72 63 68 72 00 5F 6D 62
5B40  73 72 65 76 00 5F 6D 62 73 73 65 74 00 5F 6D 62
5B50  73 73 70 6E 00 5F 6D 62 73 73 70 6E 70 00 5F 6D
5B60  62 73 73 74 72 00 5F 6D 62 73 74 6F 6B 00 5F 6D
5B70  62 73 74 72 6C 65 6E 00 5F 6D 62 73 75 70 72 00
5B80  5F 6D 65 6D 63 63 70 79 00 5F 6D 65 6D 69 63 6D
5B90  70 00 5F 6D 6B 64 69 72 00 5F 6D 6B 74 65 6D 70
5BA0  00 5F 6D 73 69 7A 65 00 5F 6E 65 78 74 61 66 74
5BB0  65 72 00 5F 6F 6E 65 78 69 74 00 5F 6F 70 65 6E
5BC0  00 5F 6F 70 65 6E 5F 6F 73 66 68 61 6E 64 6C 65
5BD0  00 5F 6F 73 76 65 72 00 5F 6F 75 74 70 00 5F 6F
5BE0  75 74 70 64 00 5F 6F 75 74 70 77 00 5F 70 63 6C
5BF0  6F 73 65 00 5F 70 63 74 79 70 65 00 5F 70 67 6D
5C00  70 74 72 00 5F 70 69 70 65 00 5F 70 6F 70 65 6E
5C10  00 5F 70 75 72 65 63 61 6C 6C 00 5F 70 75 74 63
5C20  68 00 5F 70 75 74 65 6E 76 00 5F 70 75 74 77 00
5C30  5F 70 75 74 77 73 00 5F 70 77 63 74 79 70 65 00
5C40  5F 72 65 61 64 00 5F 72 6D 64 69 72 00 5F 72 6D
5C50  74 6D 70 00 5F 72 6F 74 6C 00 5F 72 6F 74 72 00
5C60  5F 73 61 66 65 5F 66 64 69 76 00 5F 73 61 66 65
5C70  5F 66 64 69 76 72 00 5F 73 61 66 65 5F 66 70 72
5C80  65 6D 00 5F 73 61 66 65 5F 66 70 72 65 6D 31 00
5C90  5F 73 63 61 6C 62 00 5F 73 65 61 72 63 68 65 6E
5CA0  76 00 5F 73 65 68 5F 6C 6F 6E 67 6A 6D 70 5F 75
5CB0  6E 77 69 6E 64 00 5F 73 65 74 5F 65 72 72 6F 72
5CC0  5F 6D 6F 64 65 00 5F 73 65 74 5F 73 62 68 5F 74
5CD0  68 72 65 73 68 6F 6C 64 00 5F 73 65 74 65 72 72
5CE0  6F 72 6D 6F 64 65 00 5F 73 65 74 6A 6D 70 00 5F
5CF0  73 65 74 6A 6D 70 33 00 5F 73 65 74 6D 61 78 73
5D00  74 64 69 6F 00 5F 73 65 74 6D 62 63 70 00 5F 73
5D10  65 74 6D 6F 64 65 00 5F 73 65 74 73 79 73 74 69
5D20  6D 65 00 5F 73 6C 65 65 70 00 5F 73 6E 70 72 69
5D30  6E 74 66 00 5F 73 6E 77 70 72 69 6E 74 66 00 5F
5D40  73 6F 70 65 6E 00 5F 73 70 61 77 6E 6C 00 5F 73
5D50  70 61 77 6E 6C 65 00 5F 73 70 61 77 6E 6C 70 00
5D60  5F 73 70 61 77 6E 6C 70 65 00 5F 73 70 61 77 6E
5D70  76 00 5F 73 70 61 77 6E 76 65 00 5F 73 70 61 77
5D80  6E 76 70 00 5F 73 70 61 77 6E 76 70 65 00 5F 73
5D90  70 6C 69 74 70 61 74 68 00 5F 73 74 61 74 00 5F
5DA0  73 74 61 74 69 36 34 00 5F 73 74 61 74 75 73 66
5DB0  70 00 5F 73 74 72 63 6D 70 69 00 5F 73 74 72 64
5DC0  61 74 65 00 5F 73 74 72 64 75 70 00 5F 73 74 72
5DD0  65 72 72 6F 72 00 5F 73 74 72 69 63 6D 70 00 5F
5DE0  73 74 72 69 63 6F 6C 6C 00 5F 73 74 72 6C 77 72
5DF0  00 5F 73 74 72 6E 63 6F 6C 6C 00 5F 73 74 72 6E
5E00  69 63 6D 70 00 5F 73 74 72 6E 69 63 6F 6C 6C 00
5E10  5F 73 74 72 6E 73 65 74 00 5F 73 74 72 72 65 76
5E20  00 5F 73 74 72 73 65 74 00 5F 73 74 72 74 69 6D
5E30  65 00 5F 73 74 72 75 70 72 00 5F 73 77 61 62 00
5E40  5F 73 79 73 5F 65 72 72 6C 69 73 74 00 5F 73 79
5E50  73 5F 6E 65 72 72 00 5F 74 65 6C 6C 00 5F 74 65
5E60  6C 6C 69 36 34 00 5F 74 65 6D 70 6E 61 6D 00 5F
5E70  74 69 6D 65 7A 6F 6E 65 00 5F 74 6F 6C 6F 77 65
5E80  72 00 5F 74 6F 75 70 70 65 72 00 5F 74 7A 6E 61
5E90  6D 65 00 5F 74 7A 73 65 74 00 5F 75 69 36 34 74
5EA0  6F 61 00 5F 75 69 36 34 74 6F 77 00 5F 75 6C 74
5EB0  6F 61 00 5F 75 6C 74 6F 77 00 5F 75 6D 61 73 6B
5EC0  00 5F 75 6E 67 65 74 63 68 00 5F 75 6E 6C 69 6E
5ED0  6B 00 5F 75 6E 6C 6F 61 64 64 6C 6C 00 5F 75 6E
5EE0  6C 6F 63 6B 00 5F 75 74 69 6D 65 00 5F 76 73 6E
5EF0  70 72 69 6E 74 66 00 5F 76 73 6E 77 70 72 69 6E
5F00  74 66 00 5F 77 61 63 63 65 73 73 00 5F 77 61 73
5F10  63 74 69 6D 65 00 5F 77 63 68 64 69 72 00 5F 77
5F20  63 68 6D 6F 64 00 5F 77 63 6D 64 6C 6E 00 5F 77
5F30  63 72 65 61 74 00 5F 77 63 73 64 75 70 00 5F 77
5F40  63 73 69 63 6D 70 00 5F 77 63 73 69 63 6F 6C 6C
5F50  00 5F 77 63 73 6C 77 72 00 5F 77 63 73 6E 63 6F
5F60  6C 6C 00 5F 77 63 73 6E 69 63 6D 70 00 5F 77 63
5F70  73 6E 69 63 6F 6C 6C 00 5F 77 63 73 6E 73 65 74
5F80  00 5F 77 63 73 72 65 76 00 5F 77 63 73 73 65 74
5F90  00 5F 77 63 73 75 70 72 00 5F 77 63 74 69 6D 65
5FA0  00 5F 77 65 6E 76 69 72 6F 6E 00 5F 77 65 78 65
5FB0  63 6C 00 5F 77 65 78 65 63 6C 65 00 5F 77 65 78
5FC0  65 63 6C 70 00 5F 77 65 78 65 63 6C 70 65 00 5F
5FD0  77 65 78 65 63 76 00 5F 77 65 78 65 63 76 65 00
5FE0  5F 77 65 78 65 63 76 70 00 5F 77 65 78 65 63 76
5FF0  70 65 00 5F 77 66 64 6F 70 65 6E 00 5F 77 66 69
6000  6E 64 66 69 72 73 74 00 5F 77 66 69 6E 64 66 69
6010  72 73 74 69 36 34 00 5F 77 66 69 6E 64 6E 65 78
6020  74 00 5F 77 66 69 6E 64 6E 65 78 74 69 36 34 00
6030  5F 77 66 6F 70 65 6E 00 5F 77 66 72 65 6F 70 65
6040  6E 00 5F 77 66 73 6F 70 65 6E 00 5F 77 66 75 6C
6050  6C 70 61 74 68 00 5F 77 67 65 74 63 77 64 00 5F
6060  77 67 65 74 64 63 77 64 00 5F 77 67 65 74 65 6E
6070  76 00 5F 77 69 6E 6D 61 6A 6F 72 00 5F 77 69 6E
6080  6D 69 6E 6F 72 00 5F 77 69 6E 76 65 72 00 5F 77
6090  6D 61 6B 65 70 61 74 68 00 5F 77 6D 6B 64 69 72
60A0  00 5F 77 6D 6B 74 65 6D 70 00 5F 77 6F 70 65 6E
60B0  00 5F 77 70 65 72 72 6F 72 00 5F 77 70 67 6D 70
60C0  74 72 00 5F 77 70 6F 70 65 6E 00 5F 77 70 75 74
60D0  65 6E 76 00 5F 77 72 65 6D 6F 76 65 00 5F 77 72
60E0  65 6E 61 6D 65 00 5F 77 72 69 74 65 00 5F 77 72
60F0  6D 64 69 72 00 5F 77 73 65 61 72 63 68 65 6E 76
6100  00 5F 77 73 65 74 6C 6F 63 61 6C 65 00 5F 77 73
6110  6F 70 65 6E 00 5F 77 73 70 61 77 6E 6C 00 5F 77
6120  73 70 61 77 6E 6C 65 00 5F 77 73 70 61 77 6E 6C
6130  70 00 5F 77 73 70 61 77 6E 6C 70 65 00 5F 77 73
6140  70 61 77 6E 76 00 5F 77 73 70 61 77 6E 76 65 00
6150  5F 77 73 70 61 77 6E 76 70 00 5F 77 73 70 61 77
6160  6E 76 70 65 00 5F 77 73 70 6C 69 74 70 61 74 68
6170  00 5F 77 73 74 61 74 00 5F 77 73 74 61 74 69 36
6180  34 00 5F 77 73 74 72 64 61 74 65 00 5F 77 73 74
6190  72 74 69 6D 65 00 5F 77 73 79 73 74 65 6D 00 5F
61A0  77 74 65 6D 70 6E 61 6D 00 5F 77 74 6D 70 6E 61
61B0  6D 00 5F 77 74 6F 69 00 5F 77 74 6F 69 36 34 00
61C0  5F 77 74 6F 6C 00 5F 77 75 6E 6C 69 6E 6B 00 5F
61D0  77 75 74 69 6D 65 00 5F 79 30 00 5F 79 31 00 5F
61E0  79 6E 00 61 62 6F 72 74 00 61 62 73 00 61 63 6F
61F0  73 00 61 73 63 74 69 6D 65 00 61 73 69 6E 00 61
6200  74 61 6E 00 61 74 61 6E 32 00 61 74 65 78 69 74
6210  00 61 74 6F 66 00 61 74 6F 69 00 61 74 6F 6C 00
6220  62 73 65 61 72 63 68 00 63 61 6C 6C 6F 63 00 63
6230  65 69 6C 00 63 6C 65 61 72 65 72 72 00 63 6C 6F
6240  63 6B 00 63 6F 73 00 63 6F 73 68 00 63 74 69 6D
6250  65 00 64 69 66 66 74 69 6D 65 00 64 69 76 00 65
6260  78 69 74 00 65 78 70 00 66 61 62 73 00 66 63 6C
6270  6F 73 65 00 66 65 6F 66 00 66 65 72 72 6F 72 00
6280  66 66 6C 75 73 68 00 66 67 65 74 63 00 66 67 65
6290  74 70 6F 73 00 66 67 65 74 73 00 66 67 65 74 77
62A0  63 00 66 67 65 74 77 73 00 66 6C 6F 6F 72 00 66
62B0  6D 6F 64 00 66 6F 70 65 6E 00 66 70 72 69 6E 74
62C0  66 00 66 70 75 74 63 00 66 70 75 74 73 00 66 70
62D0  75 74 77 63 00 66 70 75 74 77 73 00 66 72 65 61
62E0  64 00 66 72 65 65 00 66 72 65 6F 70 65 6E 00 66
62F0  72 65 78 70 00 66 73 63 61 6E 66 00 66 73 65 65
6300  6B 00 66 73 65 74 70 6F 73 00 66 74 65 6C 6C 00
6310  66 77 70 72 69 6E 74 66 00 66 77 72 69 74 65 00
6320  66 77 73 63 61 6E 66 00 67 65 74 63 00 67 65 74
6330  63 68 61 72 00 67 65 74 65 6E 76 00 67 65 74 73
6340  00 67 65 74 77 63 00 67 65 74 77 63 68 61 72 00
6350  67 6D 74 69 6D 65 00 69 73 5F 77 63 74 79 70 65
6360  00 69 73 61 6C 6E 75 6D 00 69 73 61 6C 70 68 61
6370  00 69 73 63 6E 74 72 6C 00 69 73 64 69 67 69 74
6380  00 69 73 67 72 61 70 68 00 69 73 6C 65 61 64 62
6390  79 74 65 00 69 73 6C 6F 77 65 72 00 69 73 70 72
63A0  69 6E 74 00 69 73 70 75 6E 63 74 00 69 73 73 70
63B0  61 63 65 00 69 73 75 70 70 65 72 00 69 73 77 61
63C0  6C 6E 75 6D 00 69 73 77 61 6C 70 68 61 00 69 73
63D0  77 61 73 63 69 69 00 69 73 77 63 6E 74 72 6C 00
63E0  69 73 77 63 74 79 70 65 00 69 73 77 64 69 67 69
63F0  74 00 69 73 77 67 72 61 70 68 00 69 73 77 6C 6F
6400  77 65 72 00 69 73 77 70 72 69 6E 74 00 69 73 77
6410  70 75 6E 63 74 00 69 73 77 73 70 61 63 65 00 69
6420  73 77 75 70 70 65 72 00 69 73 77 78 64 69 67 69
6430  74 00 69 73 78 64 69 67 69 74 00 6C 61 62 73 00
6440  6C 64 65 78 70 00 6C 64 69 76 00 6C 6F 63 61 6C
6450  65 63 6F 6E 76 00 6C 6F 63 61 6C 74 69 6D 65 00
6460  6C 6F 67 00 6C 6F 67 31 30 00 6C 6F 6E 67 6A 6D
6470  70 00 6D 61 6C 6C 6F 63 00 6D 62 6C 65 6E 00 6D
6480  62 73 74 6F 77 63 73 00 6D 62 74 6F 77 63 00 6D
6490  65 6D 63 68 72 00 6D 65 6D 63 6D 70 00 6D 65 6D
64A0  63 70 79 00 6D 65 6D 6D 6F 76 65 00 6D 65 6D 73
64B0  65 74 00 6D 6B 74 69 6D 65 00 6D 6F 64 66 00 70
64C0  65 72 72 6F 72 00 70 6F 77 00 70 72 69 6E 74 66
64D0  00 70 75 74 63 00 70 75 74 63 68 61 72 00 70 75
64E0  74 73 00 70 75 74 77 63 00 70 75 74 77 63 68 61
64F0  72 00 71 73 6F 72 74 00 72 61 69 73 65 00 72 61
6500  6E 64 00 72 65 61 6C 6C 6F 63 00 72 65 6D 6F 76
6510  65 00 72 65 6E 61 6D 65 00 72 65 77 69 6E 64 00
6520  73 63 61 6E 66 00 73 65 74 62 75 66 00 73 65 74
6530  6C 6F 63 61 6C 65 00 73 65 74 76 62 75 66 00 73
6540  69 67 6E 61 6C 00 73 69 6E 00 73 69 6E 68 00 73
6550  70 72 69 6E 74 66 00 73 71 72 74 00 73 72 61 6E
6560  64 00 73 73 63 61 6E 66 00 73 74 72 63 61 74 00
6570  73 74 72 63 68 72 00 73 74 72 63 6D 70 00 73 74
6580  72 63 6F 6C 6C 00 73 74 72 63 70 79 00 73 74 72
6590  63 73 70 6E 00 73 74 72 65 72 72 6F 72 00 73 74
65A0  72 66 74 69 6D 65 00 73 74 72 6C 65 6E 00 73 74
65B0  72 6E 63 61 74 00 73 74 72 6E 63 6D 70 00 73 74
65C0  72 6E 63 70 79 00 73 74 72 70 62 72 6B 00 73 74
65D0  72 72 63 68 72 00 73 74 72 73 70 6E 00 73 74 72
65E0  73 74 72 00 73 74 72 74 6F 64 00 73 74 72 74 6F
65F0  6B 00 73 74 72 74 6F 6C 00 73 74 72 74 6F 75 6C
6600  00 73 74 72 78 66 72 6D 00 73 77 70 72 69 6E 74
6610  66 00 73 77 73 63 61 6E 66 00 73 79 73 74 65 6D
6620  00 74 61 6E 00 74 61 6E 68 00 74 69 6D 65 00 74
6630  6D 70 66 69 6C 65 00 74 6D 70 6E 61 6D 00 74 6F
6640  6C 6F 77 65 72 00 74 6F 75 70 70 65 72 00 74 6F
6650  77 6C 6F 77 65 72 00 74 6F 77 75 70 70 65 72 00
6660  75 6E 67 65 74 63 00 75 6E 67 65 74 77 63 00 76
6670  66 70 72 69 6E 74 66 00 76 66 77 70 72 69 6E 74
6680  66 00 76 70 72 69 6E 74 66 00 76 73 70 72 69 6E
6690  74 66 00 76 73 77 70 72 69 6E 74 66 00 76 77 70
66A0  72 69 6E 74 66 00 77 63 73 63 61 74 00 77 63 73
66B0  63 68 72 00 77 63 73 63 6D 70 00 77 63 73 63 6F
66C0  6C 6C 00 77 63 73 63 70 79 00 77 63 73 63 73 70
66D0  6E 00 77 63 73 66 74 69 6D 65 00 77 63 73 6C 65
66E0  6E 00 77 63 73 6E 63 61 74 00 77 63 73 6E 63 6D
66F0  70 00 77 63 73 6E 63 70 79 00 77 63 73 70 62 72
6700  6B 00 77 63 73 72 63 68 72 00 77 63 73 73 70 6E
6710  00 77 63 73 73 74 72 00 77 63 73 74 6F 64 00 77
6720  63 73 74 6F 6B 00 77 63 73 74 6F 6C 00 77 63 73
6730  74 6F 6D 62 73 00 77 63 73 74 6F 75 6C 00 77 63
6740  73 78 66 72 6D 00 77 63 74 6F 6D 62 30 02 31 02
6750  32 02 33 02 34 02 35 02 36 02 37 02 38 02 39 02
6760  3A 02 3B 02 3C 02 3D 02 3E 02 3F 02 40 02 41 02
6770  42 02 43 02 44 02 45 02 46 02 47 02 48 02 49 02
6780  4A 02 4B 02 4C 02 4D 02 4E 02 4F 02 50 02 51 02
6790  52 02 53 02 54 02 55 02 56 02 57 02 58 02 59 02
67A0  5A 02 5B 02 5C 02 5D 02 5E 02 5F 02 60 02 61 02
67B0  62 02 63 02 64 02 65 02 66 02 67 02 68 02 69 02
67C0  6A 02 6B 02 6C 02 6D 02 6E 02 6F 02 70 02 71 02
67D0  72 02 73 02 74 02 75 02 76 02 77 02 78 02 79 02
67E0  7A 02 7B 02 7C 02 7D 02 7E 02 7F 02 80 02 81 02
67F0  82 02 83 02 84 02 85 02 86 02 87 02 88 02 89 02
6800  8A 02 8B 02 8C 02 8D 02 8E 02 8F 02 90 02 91 02
6810  92 02 93 02 94 02 95 02 96 02 97 02 98 02 99 02
6820  9A 02 9B 02 9C 02 9D 02 9E 02 9F 02 A0 02 A1 02
6830  A2 02 A3 02 A4 02 A5 02 A6 02 A7 02 A8 02 A9 02
6840  AA 02 AB 02 AC 02 AD 02 AE 02 AF 02 B0 02 B1 02
6850  B2 02 B3 02 B4 02 B5 02 B6 02 B7 02 B8 02 B9 02
6860  BA 02 BB 02 BC 02 BD 02 BE 02 BF 02 C0 02 C1 02
6870  C2 02 C3 02 C4 02 C5 02 C6 02 C7 02 C8 02 C9 02
6880  CA 02 CB 02 CC 02 CD 02 CE 02 CF 02 D0 02 D1 02
6890  D2 02 D3 02 D4 02 D5 02 D6 02 D7 02 D8 02 D9 02
68A0  DA 02 DB 02 DC 02 DD 02 DE 02 DF 02 E0 02 E1 02
68B0  E2 02 E3 02 E4 02 E5 02 E6 02 E7 02 E8 02 E9 02
68C0  EA 02 EB 02 EC 02 ED 02 EE 02 EF 02 F0 02 F1 02
68D0  F2 02 F3 02 F4 02 F5 02 F6 02 4D 53 56 43 52 54
68E0  2E 64 6C 6C 00 3F 3F 30 5F 5F 6E 6F 6E 5F 72 74
68F0  74 69 5F 6F 62 6A 65 63 74 40 40 51 41 45 40 41
6900  42 56 30 40 40 5A 00 3F 3F 30 5F 5F 6E 6F 6E 5F
6910  72 74 74 69 5F 6F 62 6A 65 63 74 40 40 51 41 45
6920  40 50 42 44 40 5A 00 3F 3F 30 62 61 64 5F 63 61
6930  73 74 40 40 51 41 45 40 41 42 51 42 44 40 5A 00
6940  3F 3F 30 62 61 64 5F 63 61 73 74 40 40 51 41 45
6950  40 41 42 56 30 40 40 5A 00 3F 3F 30 62 61 64 5F
6960  74 79 70 65 69 64 40 40 51 41 45 40 41 42 56 30
6970  40 40 5A 00 3F 3F 30 62 61 64 5F 74 79 70 65 69
6980  64 40 40 51 41 45 40 50 42 44 40 5A 00 3F 3F 30
6990  65 78 63 65 70 74 69 6F 6E 40 40 51 41 45 40 41
69A0  42 51 42 44 40 5A 00 3F 3F 30 65 78 63 65 70 74
69B0  69 6F 6E 40 40 51 41 45 40 41 42 56 30 40 40 5A
69C0  00 3F 3F 30 65 78 63 65 70 74 69 6F 6E 40 40 51
69D0  41 45 40 58 5A 00 3F 3F 31 5F 5F 6E 6F 6E 5F 72
69E0  74 74 69 5F 6F 62 6A 65 63 74 40 40 55 41 45 40
69F0  58 5A 00 3F 3F 31 62 61 64 5F 63 61 73 74 40 40
6A00  55 41 45 40 58 5A 00 3F 3F 31 62 61 64 5F 74 79
6A10  70 65 69 64 40 40 55 41 45 40 58 5A 00 3F 3F 31
6A20  65 78 63 65 70 74 69 6F 6E 40 40 55 41 45 40 58
6A30  5A 00 3F 3F 31 74 79 70 65 5F 69 6E 66 6F 40 40
6A40  55 41 45 40 58 5A 00 3F 3F 32 40 59 41 50 41 58
6A50  49 40 5A 00 3F 3F 33 40 59 41 58 50 41 58 40 5A
6A60  00 3F 3F 34 5F 5F 6E 6F 6E 5F 72 74 74 69 5F 6F
6A70  62 6A 65 63 74 40 40 51 41 45 41 41 56 30 40 41
6A80  42 56 30 40 40 5A 00 3F 3F 34 62 61 64 5F 63 61
6A90  73 74 40 40 51 41 45 41 41 56 30 40 41 42 56 30
6AA0  40 40 5A 00 3F 3F 34 62 61 64 5F 74 79 70 65 69
6AB0  64 40 40 51 41 45 41 41 56 30 40 41 42 56 30 40
6AC0  40 5A 00 3F 3F 34 65 78 63 65 70 74 69 6F 6E 40
6AD0  40 51 41 45 41 41 56 30 40 41 42 56 30 40 40 5A
6AE0  00 3F 3F 38 74 79 70 65 5F 69 6E 66 6F 40 40 51
6AF0  42 45 48 41 42 56 30 40 40 5A 00 3F 3F 39 74 79
6B00  70 65 5F 69 6E 66 6F 40 40 51 42 45 48 41 42 56
6B10  30 40 40 5A 00 3F 3F 5F 37 5F 5F 6E 6F 6E 5F 72
6B20  74 74 69 5F 6F 62 6A 65 63 74 40 40 36 42 40 00
6B30  3F 3F 5F 37 62 61 64 5F 63 61 73 74 40 40 36 42
6B40  40 00 3F 3F 5F 37 62 61 64 5F 74 79 70 65 69 64
6B50  40 40 36 42 40 00 3F 3F 5F 37 65 78 63 65 70 74
6B60  69 6F 6E 40 40 36 42 40 00 3F 3F 5F 45 5F 5F 6E
6B70  6F 6E 5F 72 74 74 69 5F 6F 62 6A 65 63 74 40 40
6B80  55 41 45 50 41 58 49 40 5A 00 3F 3F 5F 45 62 61
6B90  64 5F 63 61 73 74 40 40 55 41 45 50 41 58 49 40
6BA0  5A 00 3F 3F 5F 45 62 61 64 5F 74 79 70 65 69 64
6BB0  40 40 55 41 45 50 41 58 49 40 5A 00 3F 3F 5F 45
6BC0  65 78 63 65 70 74 69 6F 6E 40 40 55 41 45 50 41
6BD0  58 49 40 5A 00 3F 3F 5F 47 5F 5F 6E 6F 6E 5F 72
6BE0  74 74 69 5F 6F 62 6A 65 63 74 40 40 55 41 45 50
6BF0  41 58 49 40 5A 00 3F 3F 5F 47 62 61 64 5F 63 61
6C00  73 74 40 40 55 41 45 50 41 58 49 40 5A 00 3F 3F
6C10  5F 47 62 61 64 5F 74 79 70 65 69 64 40 40 55 41
6C20  45 50 41 58 49 40 5A 00 3F 3F 5F 47 65 78 63 65
6C30  70 74 69 6F 6E 40 40 55 41 45 50 41 58 49 40 5A
6C40  00 3F 5F 71 75 65 72 79 5F 6E 65 77 5F 68 61 6E
6C50  64 6C 65 72 40 40 59 41 50 36 41 48 49 40 5A 58
6C60  5A 00 3F 5F 71 75 65 72 79 5F 6E 65 77 5F 6D 6F
6C70  64 65 40 40 59 41 48 58 5A 00 3F 5F 73 65 74 5F
6C80  6E 65 77 5F 68 61 6E 64 6C 65 72 40 40 59 41 50
6C90  36 41 48 49 40 5A 50 36 41 48 49 40 5A 40 5A 00
6CA0  3F 5F 73 65 74 5F 6E 65 77 5F 6D 6F 64 65 40 40
6CB0  59 41 48 48 40 5A 00 3F 5F 73 65 74 5F 73 65 5F
6CC0  74 72 61 6E 73 6C 61 74 6F 72 40 40 59 41 50 36
6CD0  41 58 49 50 41 55 5F 45 58 43 45 50 54 49 4F 4E
6CE0  5F 50 4F 49 4E 54 45 52 53 40 40 40 5A 50 36 41
6CF0  58 49 30 40 5A 40 5A 00 3F 62 65 66 6F 72 65 40
6D00  74 79 70 65 5F 69 6E 66 6F 40 40 51 42 45 48 41
6D10  42 56 31 40 40 5A 00 3F 6E 61 6D 65 40 74 79 70
6D20  65 5F 69 6E 66 6F 40 40 51 42 45 50 42 44 58 5A
6D30  00 3F 72 61 77 5F 6E 61 6D 65 40 74 79 70 65 5F
6D40  69 6E 66 6F 40 40 51 42 45 50 42 44 58 5A 00 3F
6D50  73 65 74 5F 6E 65 77 5F 68 61 6E 64 6C 65 72 40
6D60  40 59 41 50 36 41 58 58 5A 50 36 41 58 58 5A 40
6D70  5A 00 3F 73 65 74 5F 74 65 72 6D 69 6E 61 74 65
6D80  40 40 59 41 50 36 41 58 58 5A 50 36 41 58 58 5A
6D90  40 5A 00 3F 73 65 74 5F 75 6E 65 78 70 65 63 74
6DA0  65 64 40 40 59 41 50 36 41 58 58 5A 50 36 41 58
6DB0  58 5A 40 5A 00 3F 74 65 72 6D 69 6E 61 74 65 40
6DC0  40 59 41 58 58 5A 00 3F 75 6E 65 78 70 65 63 74
6DD0  65 64 40 40 59 41 58 58 5A 00 3F 77 68 61 74 40
6DE0  65 78 63 65 70 74 69 6F 6E 40 40 55 42 45 50 42
6DF0  44 58 5A 00 24 49 31 30 5F 4F 55 54 50 55 54 00
6E00  5F 43 49 61 63 6F 73 00 5F 43 49 61 73 69 6E 00
6E10  5F 43 49 61 74 61 6E 00 5F 43 49 61 74 61 6E 32
6E20  00 5F 43 49 63 6F 73 00 5F 43 49 63 6F 73 68 00
6E30  5F 43 49 65 78 70 00 5F 43 49 66 6D 6F 64 00 5F
6E40  43 49 6C 6F 67 00 5F 43 49 6C 6F 67 31 30 00 5F
6E50  43 49 70 6F 77 00 5F 43 49 73 69 6E 00 5F 43 49
6E60  73 69 6E 68 00 5F 43 49 73 71 72 74 00 5F 43 49
6E70  74 61 6E 00 5F 43 49 74 61 6E 68 00 5F 43 78 78
6E80  54 68 72 6F 77 45 78 63 65 70 74 69 6F 6E 00 5F
6E90  45 48 5F 70 72 6F 6C 6F 67 00 5F 47 65 74 64 61
6EA0  79 73 00 5F 47 65 74 6D 6F 6E 74 68 73 00 5F 47
6EB0  65 74 74 6E 61 6D 65 73 00 5F 48 55 47 45 00 5F
6EC0  53 74 72 66 74 69 6D 65 00 5F 58 63 70 74 46 69
6ED0  6C 74 65 72 00 5F 5F 43 78 78 46 72 61 6D 65 48
6EE0  61 6E 64 6C 65 72 00 5F 5F 43 78 78 4C 6F 6E 67
6EF0  6A 6D 70 55 6E 77 69 6E 64 00 5F 5F 52 54 43 61
6F00  73 74 54 6F 56 6F 69 64 00 5F 5F 52 54 44 79 6E
6F10  61 6D 69 63 43 61 73 74 00 5F 5F 52 54 74 79 70
6F20  65 69 64 00 5F 5F 53 54 52 49 4E 47 54 4F 4C 44
6F30  00 5F 5F 61 72 67 63 00 5F 5F 61 72 67 76 00 5F
6F40  5F 62 61 64 69 6F 69 6E 66 6F 00 5F 5F 63 72 74
6F50  43 6F 6D 70 61 72 65 53 74 72 69 6E 67 41 00 5F
6F60  5F 63 72 74 47 65 74 4C 6F 63 61 6C 65 49 6E 66
6F70  6F 57 00 5F 5F 63 72 74 4C 43 4D 61 70 53 74 72
6F80  69 6E 67 41 00 5F 5F 64 6C 6C 6F 6E 65 78 69 74
6F90  00 5F 5F 64 6F 73 65 72 72 6E 6F 00 5F 5F 66 70
6FA0  65 63 6F 64 65 00 5F 5F 67 65 74 6D 61 69 6E 61
6FB0  72 67 73 00 5F 5F 69 6E 69 74 65 6E 76 00 5F 5F
6FC0  69 73 61 73 63 69 69 00 5F 5F 69 73 63 73 79 6D
6FD0  00 5F 5F 69 73 63 73 79 6D 66 00 5F 5F 6C 63 5F
6FE0  63 6F 64 65 70 61 67 65 00 5F 5F 6C 63 5F 63 6F
6FF0  6C 6C 61 74 65 5F 63 70 00 5F 5F 6C 63 5F 68 61
7000  6E 64 6C 65 00 5F 5F 6C 63 6F 6E 76 5F 69 6E 69
7010  74 00 5F 5F 6D 62 5F 63 75 72 5F 6D 61 78 00 5F
7020  5F 70 5F 5F 5F 61 72 67 63 00 5F 5F 70 5F 5F 5F
7030  61 72 67 76 00 5F 5F 70 5F 5F 5F 69 6E 69 74 65
7040  6E 76 00 5F 5F 70 5F 5F 5F 6D 62 5F 63 75 72 5F
7050  6D 61 78 00 5F 5F 70 5F 5F 5F 77 61 72 67 76 00
7060  5F 5F 70 5F 5F 5F 77 69 6E 69 74 65 6E 76 00 5F
7070  5F 70 5F 5F 61 63 6D 64 6C 6E 00 5F 5F 70 5F 5F
7080  61 6D 62 6C 6B 73 69 7A 00 5F 5F 70 5F 5F 63 6F
7090  6D 6D 6F 64 65 00 5F 5F 70 5F 5F 64 61 79 6C 69
70A0  67 68 74 00 5F 5F 70 5F 5F 64 73 74 62 69 61 73
70B0  00 5F 5F 70 5F 5F 65 6E 76 69 72 6F 6E 00 5F 5F
70C0  70 5F 5F 66 69 6C 65 69 6E 66 6F 00 5F 5F 70 5F
70D0  5F 66 6D 6F 64 65 00 5F 5F 70 5F 5F 69 6F 62 00
70E0  5F 5F 70 5F 5F 6D 62 63 61 73 65 6D 61 70 00 5F
70F0  5F 70 5F 5F 6D 62 63 74 79 70 65 00 5F 5F 70 5F
7100  5F 6F 73 76 65 72 00 5F 5F 70 5F 5F 70 63 74 79
7110  70 65 00 5F 5F 70 5F 5F 70 67 6D 70 74 72 00 5F
7120  5F 70 5F 5F 70 77 63 74 79 70 65 00 5F 5F 70 5F
7130  5F 74 69 6D 65 7A 6F 6E 65 00 5F 5F 70 5F 5F 74
7140  7A 6E 61 6D 65 00 5F 5F 70 5F 5F 77 63 6D 64 6C
7150  6E 00 5F 5F 70 5F 5F 77 65 6E 76 69 72 6F 6E 00
7160  5F 5F 70 5F 5F 77 69 6E 6D 61 6A 6F 72 00 5F 5F
7170  70 5F 5F 77 69 6E 6D 69 6E 6F 72 00 5F 5F 70 5F
7180  5F 77 69 6E 76 65 72 00 5F 5F 70 5F 5F 77 70 67
7190  6D 70 74 72 00 5F 5F 70 69 6F 69 6E 66 6F 00 5F
71A0  5F 70 78 63 70 74 69 6E 66 6F 70 74 72 73 00 5F
71B0  5F 73 65 74 5F 61 70 70 5F 74 79 70 65 00 5F 5F
71C0  73 65 74 6C 63 5F 61 63 74 69 76 65 00 5F 5F 73
71D0  65 74 75 73 65 72 6D 61 74 68 65 72 72 00 5F 5F
71E0  74 68 72 65 61 64 68 61 6E 64 6C 65 00 5F 5F 74
71F0  68 72 65 61 64 69 64 00 5F 5F 74 6F 61 73 63 69
7200  69 00 5F 5F 75 6E 44 4E 61 6D 65 00 5F 5F 75 6E
7210  44 4E 61 6D 65 45 78 00 5F 5F 75 6E 67 75 61 72
7220  64 65 64 5F 72 65 61 64 6C 63 5F 61 63 74 69 76
7230  65 00 5F 5F 77 61 72 67 76 00 5F 5F 77 67 65 74
7240  6D 61 69 6E 61 72 67 73 00 5F 5F 77 69 6E 69 74
7250  65 6E 76 00 5F 61 62 6E 6F 72 6D 61 6C 5F 74 65
7260  72 6D 69 6E 61 74 69 6F 6E 00 5F 61 63 63 65 73
7270  73 00 5F 61 63 6D 64 6C 6E 00 5F 61 64 6A 5F 66
7280  64 69 76 5F 6D 31 36 69 00 5F 61 64 6A 5F 66 64
7290  69 76 5F 6D 33 32 00 5F 61 64 6A 5F 66 64 69 76
72A0  5F 6D 33 32 69 00 5F 61 64 6A 5F 66 64 69 76 5F
72B0  6D 36 34 00 5F 61 64 6A 5F 66 64 69 76 5F 72 00
72C0  5F 61 64 6A 5F 66 64 69 76 72 5F 6D 31 36 69 00
72D0  5F 61 64 6A 5F 66 64 69 76 72 5F 6D 33 32 00 5F
72E0  61 64 6A 5F 66 64 69 76 72 5F 6D 33 32 69 00 5F
72F0  61 64 6A 5F 66 64 69 76 72 5F 6D 36 34 00 5F 61
7300  64 6A 5F 66 70 61 74 61 6E 00 5F 61 64 6A 5F 66
7310  70 72 65 6D 00 5F 61 64 6A 5F 66 70 72 65 6D 31
7320  00 5F 61 64 6A 5F 66 70 74 61 6E 00 5F 61 64 6A
7330  75 73 74 5F 66 64 69 76 00 5F 61 65 78 69 74 5F
7340  72 74 6E 00 5F 61 6D 73 67 5F 65 78 69 74 00 5F
7350  61 73 73 65 72 74 00 5F 61 74 6F 64 62 6C 00 5F
7360  61 74 6F 69 36 34 00 5F 61 74 6F 6C 64 62 6C 00
7370  5F 62 65 65 70 00 5F 62 65 67 69 6E 74 68 72 65
7380  61 64 00 5F 62 65 67 69 6E 74 68 72 65 61 64 65
7390  78 00 5F 63 5F 65 78 69 74 00 5F 63 61 62 73 00
73A0  5F 63 61 6C 6C 6E 65 77 68 00 5F 63 65 78 69 74
73B0  00 5F 63 67 65 74 73 00 5F 63 68 64 69 72 00 5F
73C0  63 68 64 72 69 76 65 00 5F 63 68 67 73 69 67 6E
73D0  00 5F 63 68 6B 65 73 70 00 5F 63 68 6D 6F 64 00
73E0  5F 63 68 73 69 7A 65 00 5F 63 6C 65 61 72 66 70
73F0  00 5F 63 6C 6F 73 65 00 5F 63 6F 6D 6D 69 74 00
7400  5F 63 6F 6D 6D 6F 64 65 00 5F 63 6F 6E 74 72 6F
7410  6C 38 37 00 5F 63 6F 6E 74 72 6F 6C 66 70 00 5F
7420  63 6F 70 79 73 69 67 6E 00 5F 63 70 72 69 6E 74
7430  66 00 5F 63 70 75 74 73 00 5F 63 72 65 61 74 00
7440  5F 63 73 63 61 6E 66 00 5F 63 74 79 70 65 00 5F
7450  63 77 61 69 74 00 5F 64 61 79 6C 69 67 68 74 00
7460  5F 64 73 74 62 69 61 73 00 5F 64 75 70 00 5F 64
7470  75 70 32 00 5F 65 63 76 74 00 5F 65 6E 64 74 68
7480  72 65 61 64 00 5F 65 6E 64 74 68 72 65 61 64 65
7490  78 00 5F 65 6E 76 69 72 6F 6E 00 5F 65 6F 66 00
74A0  5F 65 72 72 6E 6F 00 5F 65 78 63 65 70 74 5F 68
74B0  61 6E 64 6C 65 72 32 00 5F 65 78 63 65 70 74 5F
74C0  68 61 6E 64 6C 65 72 33 00 5F 65 78 65 63 6C 00
74D0  5F 65 78 65 63 6C 65 00 5F 65 78 65 63 6C 70 00
74E0  5F 65 78 65 63 6C 70 65 00 5F 65 78 65 63 76 00
74F0  5F 65 78 65 63 76 65 00 5F 65 78 65 63 76 70 00
7500  5F 65 78 65 63 76 70 65 00 5F 65 78 69 74 00 5F
7510  65 78 70 61 6E 64 00 5F 66 63 6C 6F 73 65 61 6C
7520  6C 00 5F 66 63 76 74 00 5F 66 64 6F 70 65 6E 00
7530  5F 66 67 65 74 63 68 61 72 00 5F 66 67 65 74 77
7540  63 68 61 72 00 5F 66 69 6C 62 75 66 00 5F 66 69
7550  6C 65 69 6E 66 6F 00 5F 66 69 6C 65 6C 65 6E 67
7560  74 68 00 5F 66 69 6C 65 6C 65 6E 67 74 68 69 36
7570  34 00 5F 66 69 6C 65 6E 6F 00 5F 66 69 6E 64 63
7580  6C 6F 73 65 00 5F 66 69 6E 64 66 69 72 73 74 00
7590  5F 66 69 6E 64 66 69 72 73 74 69 36 34 00 5F 66
75A0  69 6E 64 6E 65 78 74 00 5F 66 69 6E 64 6E 65 78
75B0  74 69 36 34 00 5F 66 69 6E 69 74 65 00 5F 66 6C
75C0  73 62 75 66 00 5F 66 6C 75 73 68 61 6C 6C 00 5F
75D0  66 6D 6F 64 65 00 5F 66 70 63 6C 61 73 73 00 5F
75E0  66 70 69 65 65 65 5F 66 6C 74 00 5F 66 70 72 65
75F0  73 65 74 00 5F 66 70 75 74 63 68 61 72 00 5F 66
7600  70 75 74 77 63 68 61 72 00 5F 66 73 6F 70 65 6E
7610  00 5F 66 73 74 61 74 00 5F 66 73 74 61 74 69 36
7620  34 00 5F 66 74 69 6D 65 00 5F 66 74 6F 6C 00 5F
7630  66 75 6C 6C 70 61 74 68 00 5F 66 75 74 69 6D 65
7640  00 5F 67 63 76 74 00 5F 67 65 74 5F 6F 73 66 68
7650  61 6E 64 6C 65 00 5F 67 65 74 5F 73 62 68 5F 74
7660  68 72 65 73 68 6F 6C 64 00 5F 67 65 74 63 68 00
7670  5F 67 65 74 63 68 65 00 5F 67 65 74 63 77 64 00
7680  5F 67 65 74 64 63 77 64 00 5F 67 65 74 64 69 73
7690  6B 66 72 65 65 00 5F 67 65 74 64 6C 6C 70 72 6F
76A0  63 61 64 64 72 00 5F 67 65 74 64 72 69 76 65 00
76B0  5F 67 65 74 64 72 69 76 65 73 00 5F 67 65 74 6D
76C0  61 78 73 74 64 69 6F 00 5F 67 65 74 6D 62 63 70
76D0  00 5F 67 65 74 70 69 64 00 5F 67 65 74 73 79 73
76E0  74 69 6D 65 00 5F 67 65 74 77 00 5F 67 65 74 77
76F0  73 00 5F 67 6C 6F 62 61 6C 5F 75 6E 77 69 6E 64
7700  32 00 5F 68 65 61 70 61 64 64 00 5F 68 65 61 70
7710  63 68 6B 00 5F 68 65 61 70 6D 69 6E 00 5F 68 65
7720  61 70 73 65 74 00 5F 68 65 61 70 75 73 65 64 00
7730  5F 68 65 61 70 77 61 6C 6B 00 5F 68 79 70 6F 74
7740  00 5F 69 36 34 74 6F 61 00 5F 69 36 00 00 00 00
7750  00 00 00 00 00 00 00 00 00 00 00 00 00 00 00 00
7760  00 00 00 00 00 00 00 00 00 00 00 00 00 00 00 00
7770  00 00 00 00 00 00 00 00 E8 70 03 78 00 00 00 00
7780  00 00 00 00 00 00 00 00 00 00 00 00 00 00 00 00
7790  00 00 00 00 00 00 00 00 18 71 03 78 00 00 00 00
77A0  00 00 00 00 00 00 00 00 30 71 03 78 00 00 00 00
77B0  00 00 00 00 00 00 00 00 00 71 03 78 00 00 00 00
77C0  00 00 00 00 00 00 00 00 00 00 00 00 00 00 00 00
77D0  00 00 00 00 00 00 00 00 70 0E 89 00 00 00 00 00
77E0  00 00 00 00 00 00 00 00 00 00 00 00 00 00 00 00
77F0  00 00 00 00 00 00 00 00 00 00 00 00 00 00 00 00
7800  00 00 00 00 00 00 00 00 00 00 00 00 00 00 00 00
7810  00 00 00 00 00 00 00 00 00 00 00 00 00 00 00 00
7820  00 00 00 00 00 00 00 00 00 00 00 00 00 00 00 00
7830  00 00 00 00 00 00 00 00 00 00 00 00 00 00 00 00
7840  00 00 00 00 00 00 00 00 00 00 00 00 00 00 00 00
7850  00 00 00 00 00 00 00 00 00 00 00 00 00 00 00 00
7860  00 00 00 00 00 00 00 00 00 00 00 00 00 00 00 00
7870  00 00 00 00 00 00 00 00 00 00 00 00 00 00 00 00
7880  00 00 00 00 00 00 00 00 00 00 00 00 00 00 00 00
7890  00 00 00 00 E0 01 00 00 08 50 03 78 00 00 00 00
78A0  00 00 00 00 00 C0 00 00 0A 04 00 00 04 00 00 00
78B0  0A 00 00 00 01 00 00 00 00 00 00 00 48 A1 C2 81
78C0  C0 73 C2 81 00 00 00 00 FF FF FF FF 00 00 00 00
78D0  00 00 00 00 00 00 00 00 00 00 00 00 00 00 00 00
78E0  00 00 00 00 00 00 00 00 00 00 00 00 00 00 00 00
78F0  01 00 00 00 AE 71 03 78 00 00 20 00 20 00 20 00
7900  20 00 20 00 20 00 20 00 20 00 20 00 28 00 28 00
7910  28 00 28 00 28 00 20 00 20 00 20 00 20 00 20 00
7920  20 00 20 00 20 00 20 00 20 00 20 00 20 00 20 00
7930  20 00 20 00 20 00 20 00 20 00 48 00 10 00 10 00
7940  10 00 10 00 10 00 10 00 10 00 10 00 10 00 10 00
7950  10 00 10 00 10 00 10 00 10 00 84 00 84 00 84 00
7960  84 00 84 00 84 00 84 00 84 00 84 00 84 00 10 00
7970  10 00 10 00 10 00 10 00 10 00 10 00 81 00 81 00
7980  81 00 81 00 81 00 81 00 01 00 01 00 01 00 01 00
7990  01 00 01 00 01 00 01 00 01 00 01 00 01 00 01 00
79A0  01 00 01 00 01 00 01 00 01 00 01 00 01 00 01 00
79B0  10 00 10 00 10 00 10 00 10 00 10 00 82 00 82 00
79C0  82 00 82 00 82 00 82 00 02 00 02 00 02 00 02 00
79D0  02 00 02 00 02 00 02 00 02 00 02 00 02 00 02 00
79E0  02 00 02 00 02 00 02 00 02 00 02 00 02 00 02 00
79F0  10 00 10 00 10 00 10 00 20 00 00 00 00 00 00 00
7A00  00 00 00 00 00 00 00 00 00 00 00 00 00 00 00 00
7A10  00 00 00 00 00 00 00 00 00 00 00 00 00 00 00 00
7A20  00 00 00 00 00 00 00 00 00 00 00 00 00 00 00 00
7A30  00 00 00 00 00 00 00 00 00 00 00 00 00 00 00 00
7A40  00 00 00 00 00 00 00 00 00 00 00 00 00 00 00 00
7A50  00 00 00 00 00 00 00 00 00 00 00 00 00 00 00 00
7A60  00 00 00 00 00 00 00 00 00 00 00 00 00 00 00 00
7A70  00 00 00 00 00 00 00 00 00 00 00 00 00 00 00 00
7A80  00 00 00 00 00 00 00 00 00 00 00 00 00 00 00 00
7A90  00 00 00 00 00 00 00 00 00 00 00 00 00 00 00 00
7AA0  00 00 00 00 00 00 00 00 00 00 00 00 00 00 00 00
7AB0  00 00 00 00 00 00 00 00 00 00 00 00 00 00 00 00
7AC0  00 00 00 00 00 00 00 00 00 00 00 00 00 00 00 00
7AD0  00 00 00 00 00 00 00 00 00 00 00 00 00 00 00 00
7AE0  00 00 00 00 00 00 00 00 00 00 00 00 00 00 00 00
7AF0  00 00 00 00 00 00 00 00 00 00 00 00 AE 71 03 78
7B00  2E 00 00 00 00 00 00 00 00 00 00 00 05 00 00 C0
7B10  0B 00 00 00 00 00 00 00 1D 00 00 C0 04 00 00 00
7B20  00 00 00 00 96 00 00 C0 04 00 00 00 00 00 00 00
7B30  8D 00 00 C0 08 00 00 00 00 00 00 00 8E 00 00 C0
7B40  08 00 00 00 00 00 00 00 8F 00 00 C0 08 00 00 00
7B50  00 00 00 00 90 00 00 C0 08 00 00 00 00 00 00 00
7B60  91 00 00 C0 08 00 00 00 00 00 00 00 92 00 00 C0
7B70  08 00 00 00 00 00 00 00 93 00 00 C0 08 00 00 00
7B80  00 00 00 00 5F 26 00 78 5F 26 00 78 00 00 00 00
7B90  00 00 00 00 00 A0 02 40 00 00 00 00 00 00 00 00
7BA0  00 C8 05 40 00 00 00 00 00 00 00 00 00 FA 08 40
7BB0  00 00 00 00 00 00 00 00 40 9C 0C 40 00 00 00 00
7BC0  00 00 00 00 50 C3 0F 40 00 00 00 00 00 00 00 00
7BD0  24 F4 12 40 00 00 00 00 00 00 00 80 96 98 16 40
7BE0  00 00 00 00 00 00 00 20 BC BE 19 40 00 00 00 00
7BF0  00 04 BF C9 1B 8E 34 40 00 00 00 A1 ED CC CE 1B
7C00  C2 D3 4E 40 20 F0 9E B5 70 2B A8 AD C5 9D 69 40
7C10  D0 5D FD 25 E5 1A 8E 4F 19 EB 83 40 71 96 D7 95
7C20  43 0E 05 8D 29 AF 9E 40 F9 BF A0 44 ED 81 12 8F
7C30  81 82 B9 40 BF 3C D5 A6 CF FF 49 1F 78 C2 D3 40
7C40  6F C6 E0 8C E9 80 C9 47 BA 93 A8 41 BC 85 6B 55
7C50  27 39 8D F7 70 E0 7C 42 BC DD 8E DE F9 9D FB EB
7C60  7E AA 51 43 A1 E6 76 E3 CC F2 29 2F 84 81 26 44
7C70  28 10 17 AA F8 AE 10 E3 C5 C4 FA 44 EB A7 D4 F3
7C80  F7 EB E1 4A 7A 95 CF 45 65 CC C7 91 0E A6 AE A0
7C90  19 E3 A3 46 0D 65 17 0C 75 81 86 75 76 C9 48 4D
7CA0  58 42 E4 A7 93 39 3B 35 B8 B2 ED 53 4D A7 E5 5D
7CB0  3D C5 5D 3B 8B 9E 92 5A FF 5D A6 F0 A1 20 C0 54
7CC0  A5 8C 37 61 D1 FD 8B 5A 8B D8 25 5D 89 F9 DB 67
7CD0  AA 95 F8 F3 27 BF A2 C8 5D DD 80 6E 4C C9 9B 97
7CE0  20 8A 02 52 60 C4 25 75 00 00 00 00 00 04 00 00
7CF0  01 FC FF FF 35 00 00 00 0B 00 00 00 40 00 00 00
7D00  FF 03 00 00 02 00 00 00 43 00 00 00 94 E3 02 78
7D10  00 00 00 00 A3 26 01 78 88 E3 02 78 BC 75 03 78
7D20  B5 4A 00 78 7C E3 02 78 BC 75 03 78 C0 37 00 78
7D30  70 E3 02 78 BC 75 03 78 B8 4A 00 78 64 E3 02 78
7D40  BC 75 03 78 98 4F 00 78 5C E3 02 78 BC 75 03 78
7D50  89 50 00 78 43 00 00 00 00 00 00 00 00 00 00 00
7D60  00 00 00 00 00 00 00 00 00 00 00 00 00 00 00 00
7D70  00 00 00 00 00 00 00 00 00 00 00 00 00 00 00 00
7D80  00 00 00 00 00 00 00 00 00 00 00 00 00 00 00 00
7D90  00 00 00 00 00 00 00 00 00 00 00 00 00 00 00 00
7DA0  00 00 00 00 00 00 00 00 00 00 00 00 00 00 00 00
7DB0  00 00 00 00 00 00 00 00 00 00 00 00 00 00 00 00
7DC0  00 00 00 00 00 00 00 00 00 00 00 00 00 00 00 00
7DD0  00 00 00 00 00 00 00 00 43 00 00 00 00 00 00 00
7DE0  00 00 00 00 00 00 00 00 00 00 00 00 00 00 00 00
7DF0  00 00 00 00 00 00 00 00 00 00 00 00 00 00 00 00
7E00  F8 80 B2 F8 08 A2 E2 D2 64 00 62 0C F8 FF A1 F8
7E10  0F B1 F8 AA 51 01 FB AA 32 22 91 FF 04 3B 22 B1
7E20  30 12 36 28 90 A0 E0 D0 E1 F8 00 73 81 FB AF 3A
7E30  29 F8 D2 73 F8 9F 51 81 A0 91 B0 F8 CF A1 D0 73
7E40  20 20 40 FF 01 20 50 FB 82 3A 3E 92 B3 F8 51 A3
7E50  D3 90 B2 BB BD F8 81 B1 B4 B5 B7 BA BC F8 46 A1
7E60  F8 AF A2 F8 DD A4 F8 C6 A5 F8 BA A7 F8 A1 AC E2
7E70  69 DC D7 D7 D7 B6 D7 D7 D7 A6 D4 DC BE 32 F4 FB
7E80  0A 32 EF DC AE 22 61 9E FB 0B 32 C2 9E FB 0F 3A
7E90  8F F8 6F AC F8 40 B9 93 F6 DC 29 99 3A 97 F8 10
7EA0  A7 F8 08 A9 46 B7 93 FE DC 86 3A AD 2E 97 F6 B7
7EB0  DC 29 89 3A AD 17 87 F6 DC 8E 3A 9E DC 69 26 D4
7EC0  30 C0 F8 83 AC F8 0A B9 DC 33 C5 29 99 3A C8 DC
7ED0  3B CF F8 09 A9 A7 97 76 B7 29 DC 89 3A D6 87 F6
7EE0  33 E3 7B 97 56 16 86 3A CF 2E 8E 3A CF 30 BD DC
7EF0  16 D4 30 EF D7 D7 D7 56 D4 16 30 F4 00 00 00 00
7F00  30 39 22 2A 3E 20 24 34 26 28 2E 18 14 1C 10 12
7F10  F0 80 F0 80 F0 80 80 80 F0 50 70 50 F0 50 50 50
7F20  F0 80 F0 10 F0 80 F0 90 F0 90 F0 10 F0 10 F0 90
7F30  F0 90 90 90 F0 10 10 10 10 60 20 20 20 70 A0 A0
7F40  F0 20 20 7A 42 70 22 78 22 52 C4 19 F8 00 A0 9B
7F50  B0 E2 E2 80 E2 E2 20 A0 E2 20 A0 E2 20 A0 3C 53
7F60  98 32 67 AB 2B 8B B8 88 32 43 7B 28 30 44 D3 F8
7F70  0A 3B 76 F8 20 17 7B BF FF 01 3A 78 39 6E 7A 9F
7F80  30 78 D3 F8 10 3D 85 3D 8F FF 01 3A 87 17 9C FE
7F90  35 90 30 82 D3 E2 9C AF 2F 22 8F 52 62 E2 E2 3E
7FA0  98 F8 04 A8 88 3A A4 F8 04 A8 36 A7 88 31 AA 8F
7FB0  FA 0F 52 30 94 00 00 00 00 D3 DC FE FE FE FE AE
7FC0  DC 8E F1 30 B9 D4 AA 0A AA F8 05 AF 4A 5D 8D FC
7FD0  08 AD 2F 8F 3A CC 8D FC D9 AD 30 C5 D3 22 06 73
7FE0  86 73 96 52 F8 06 AE F8 D8 AD 02 F6 F6 F6 F6 D5
7FF0  42 FA 0F D5 8E F6 AE 32 DC 3B EA 1D 1D 30 EA 01
8000  01 00 00 00 00 00 00 00 FE FF FF FF FE FF FF FF
8010  20 00 00 00 02 00 00 00 01 00 00 00 A4 03 00 00
8020  60 82 79 82 21 00 00 00 00 00 00 00 A6 DF 00 00
8030  00 00 00 00 A1 A5 00 00 00 00 00 00 81 9F E0 FC
8040  00 00 00 00 40 7E 80 FC 00 00 00 00 A8 03 00 00
8050  C1 A3 DA A3 20 00 00 00 00 00 00 00 00 00 00 00
8060  00 00 00 00 00 00 00 00 00 00 00 00 81 FE 00 00
8070  00 00 00 00 40 FE 00 00 00 00 00 00 B5 03 00 00
8080  C1 A3 DA A3 20 00 00 00 00 00 00 00 00 00 00 00
8090  00 00 00 00 00 00 00 00 00 00 00 00 81 FE 00 00
80A0  00 00 00 00 41 FE 00 00 00 00 00 00 B6 03 00 00
80B0  CF A2 E4 A2 1A 00 E5 A2 E8 A2 5B 00 00 00 00 00
80C0  00 00 00 00 00 00 00 00 00 00 00 00 81 FE 00 00
80D0  00 00 00 00 40 7E A1 FE 00 00 00 00 51 05 00 00
80E0  51 DA 5E DA 20 00 5F DA 6A DA 32 00 00 00 00 00
80F0  00 00 00 00 00 00 00 00 00 00 00 00 81 D3 D8 DE
8100  E0 F9 00 00 31 7E 81 FE 00 00 00 00 E4 04 00 00
8110  00 00 00 00 00 00 00 00 00 00 00 00 00 00 00 00
8120  00 00 00 00 00 00 00 00 00 00 00 00 00 00 00 00
8130  00 00 00 00 00 00 00 00 00 00 00 00 00 00 00 00
8140  00 00 00 00 00 00 00 00 00 00 00 00 00 00 00 00
8150  00 00 00 00 00 00 00 00 00 00 00 00 00 00 00 00
8160  00 00 00 00 00 00 00 00 00 00 00 00 00 00 10 10
8170  10 10 10 10 10 10 10 10 10 10 10 10 10 10 10 10
8180  10 10 10 10 10 10 10 10 00 00 00 00 00 00 20 20
8190  20 20 20 20 20 20 20 20 20 20 20 20 20 20 20 20
81A0  20 20 20 20 20 20 20 20 00 00 00 00 00 00 00 00
81B0  20 00 00 00 00 00 00 10 00 10 00 10 00 00 00 00
81C0  00 00 00 00 00 00 00 20 00 20 00 20 10 00 00 00
81D0  00 00 00 00 00 00 00 00 00 00 00 00 00 00 00 00
81E0  00 00 00 00 00 00 00 00 00 00 00 00 00 10 10 10
81F0  10 10 10 10 10 10 10 10 10 10 10 10 10 10 10 10
8200  10 10 10 10 00 10 10 10 10 10 10 10 20 20 20 20
8210  20 20 20 20 20 20 20 20 20 20 20 20 20 20 20 20
8220  20 20 20 20 00 20 20 20 20 20 20 20 20 00 00 00
8230  00 00 00 00 01 00 00 00 00 00 00 00 00 00 00 00
8240  00 00 00 00 00 00 00 00 00 00 00 00 00 00 00 00
8250  00 00 00 00 00 00 00 00 00 00 00 00 00 00 00 00
8260  00 00 00 00 00 00 00 00 00 00 00 00 00 00 00 00
8270  00 00 00 00 00 00 00 00 00 00 00 00 00 00 00 00
8280  00 00 00 00 00 00 00 00 00 00 00 00 00 61 62 63
8290  64 65 66 67 68 69 6A 6B 6C 6D 6E 6F 70 71 72 73
82A0  74 75 76 77 78 79 7A 00 00 00 00 00 00 41 42 43
82B0  44 45 46 47 48 49 4A 4B 4C 4D 4E 4F 50 51 52 53
82C0  54 55 56 57 58 59 5A 00 00 00 00 00 00 00 00 83
82D0  00 00 00 00 00 00 9A 00 9C 00 9E 00 00 00 00 00
82E0  00 00 00 00 00 00 8A 00 8C 00 8E FF 00 00 00 00
82F0  00 00 00 00 00 00 00 00 00 00 00 00 00 00 00 00
8300  00 00 00 00 00 00 00 00 00 00 00 00 E0 E1 E2 E3
8310  E4 E5 E6 E7 E8 E9 EA EB EC ED EE EF F0 F1 F2 F3
8320  F4 F5 F6 00 F8 F9 FA FB FC FD FE DF C0 C1 C2 C3
8330  C4 C5 C6 C7 C8 C9 CA CB CC CD CE CF D0 D1 D2 D3
8340  D4 D5 D6 00 D8 D9 DA DB DC DD DE 9F 02 00 00 00
8350  40 0E 89 00 00 00 00 00 00 00 00 00 00 00 00 00
8360  10 44 00 78 82 44 00 78 A8 44 00 78 0C 45 00 78
8370  00 00 00 00 54 42 00 78 00 00 00 00 E2 86 02 78
8380  8C 83 02 78 F2 83 02 78 32 83 02 78 DA 83 02 78
8390  E2 86 02 78 E0 7E 03 78 00 00 00 00 E0 7E 03 78
83A0  01 01 00 00 FF FF FF FF 00 00 00 00 00 10 00 00
83B0  00 00 00 00 00 00 00 00 00 00 00 00 00 00 00 00
83C0  02 00 00 00 FF FF FF FF 00 00 00 00 00 00 00 00
83D0  00 00 00 00 00 00 00 00 00 00 00 00 00 00 00 00
83E0  02 00 00 00 FF FF FF FF 00 00 00 00 00 00 00 00
83F0  00 00 00 00 00 00 00 00 00 00 00 00 00 00 00 00
8400  00 00 00 00 00 00 00 00 00 00 00 00 00 00 00 00
8410  00 00 00 00 00 00 00 00 00 00 00 00 00 00 00 00
8420  00 00 00 00 00 00 00 00 00 00 00 00 00 00 00 00
8430  00 00 00 00 00 00 00 00 00 00 00 00 00 00 00 00
8440  00 00 00 00 00 00 00 00 00 00 00 00 00 00 00 00
8450  00 00 00 00 00 00 00 00 00 00 00 00 00 00 00 00
8460  00 00 00 00 00 00 00 00 00 00 00 00 00 00 00 00
8470  00 00 00 00 00 00 00 00 00 00 00 00 00 00 00 00
8480  00 00 00 00 00 00 00 00 00 00 00 00 00 00 00 00
8490  00 00 00 00 00 00 00 00 00 00 00 00 00 00 00 00
84A0  00 00 00 00 00 00 00 00 00 00 00 00 00 00 00 00
84B0  00 00 00 00 00 00 00 00 00 00 00 00 00 00 00 00
84C0  00 00 00 00 00 00 00 00 00 00 00 00 00 00 00 00
84D0  00 00 00 00 00 00 00 00 00 00 00 00 00 00 00 00
84E0  00 00 00 00 00 00 00 00 00 00 00 00 00 00 00 00
84F0  00 00 00 00 00 00 00 00 00 00 00 00 00 00 00 00
8500  00 00 00 00 00 00 00 00 00 00 00 00 00 00 00 00
8510  00 00 00 00 00 00 00 00 00 00 00 00 00 00 00 00
8520  00 00 00 00 00 00 00 00 00 00 00 00 00 00 00 00
8530  00 00 00 00 00 00 00 00 00 00 00 00 00 00 00 00
8540  00 00 00 00 00 00 00 00 00 00 00 00 00 00 00 00
8550  00 00 00 00 00 00 00 00 00 00 00 00 00 00 00 00
8560  00 00 00 00 00 00 00 00 00 00 00 00 00 00 00 00
8570  00 00 00 00 00 00 00 00 00 00 00 00 00 00 00 00
8580  00 00 00 00 00 00 00 00 00 00 00 00 00 00 00 00
8590  00 00 00 00 00 00 00 00 00 00 00 00 00 00 00 00
85A0  00 00 00 00 00 00 00 00 00 00 00 00 00 00 00 00
85B0  00 00 00 00 00 00 00 00 00 00 00 00 00 00 00 00
85C0  00 00 00 00 00 00 00 00 00 00 00 00 00 00 00 00
85D0  00 00 00 00 00 00 00 00 00 00 00 00 00 00 00 00
85E0  00 00 00 00 00 00 00 00 00 00 00 00 00 00 00 00
85F0  00 00 00 00 00 00 00 00 00 00 00 00 00 00 00 00
8600  00 00 00 00 00 00 00 00 00 00 00 00 00 00 00 00
8610  00 00 00 00 00 00 00 00 00 00 00 00 00 00 00 00
8620  00 00 00 00 00 00 00 00 00 00 00 00 00 00 00 00
8630  00 00 00 00 00 00 00 00 00 00 00 00 00 00 00 00
8640  00 00 00 00 00 00 00 00 00 00 00 00 00 00 00 00
8650  00 00 00 00 00 00 00 00 00 00 00 00 00 00 00 00
8660  00 00 00 00 00 00 00 00 00 00 00 00 00 00 00 00
8670  00 00 00 00 00 00 00 00 00 00 00 00 00 00 00 00
8680  00 00 00 00 00 00 00 00 00 00 00 00 00 00 00 00
8690  00 00 00 00 00 00 00 00 00 00 00 00 00 00 00 00
86A0  00 00 00 00 00 00 00 00 00 00 00 00 00 00 00 00
86B0  00 00 00 00 00 00 00 00 00 00 00 00 00 00 00 00
86C0  00 00 00 00 00 00 00 00 00 00 00 00 00 00 00 00
86D0  00 00 00 00 00 00 00 00 00 00 00 00 00 00 00 00
86E0  00 00 00 00 00 00 00 00 00 00 00 00 00 00 00 00
86F0  00 00 00 00 00 00 00 00 00 00 00 00 00 00 00 00
8700  00 00 00 00 00 00 00 00 00 00 00 00 00 00 00 00
8710  00 00 00 00 00 00 00 00 00 00 00 00 00 00 00 00
8720  00 00 00 00 00 00 00 00 00 00 00 00 00 00 00 00
8730  00 00 00 00 00 00 00 00 00 00 00 00 00 00 00 00
8740  00 00 00 00 00 00 00 00 00 00 00 00 FB 22 03 00
8750  08 23 03 00 15 23 03 00 3B 23 03 00 58 23 03 00
8760  77 23 03 00 95 23 03 00 AF 23 03 00 C9 23 03 00
8770  E4 23 03 00 F6 23 03 00 0A 24 03 00 1D 24 03 00
8780  3E 24 03 00 56 24 03 00 70 24 03 00 89 24 03 00
8790  AA 24 03 00 C2 24 03 00 DC 24 03 00 F5 24 03 00
87A0  16 25 03 00 2E 25 03 00 54 25 03 00 6B 25 03 00
87B0  AC 25 03 00 CB 25 03 00 E5 25 03 00 03 26 03 00
87C0  26 26 03 00 47 26 03 00 69 26 03 00 7B 26 03 00
87D0  8E 26 03 00 B4 26 03 00 BC 26 03 00 C4 26 03 00
87E0  CC 26 03 00 D5 26 03 00 DC 26 03 00 E4 26 03 00
87F0  EB 26 03 00 F3 26 03 00 FA 26 03 00 03 27 03 00
8800  0A 27 03 00 11 27 03 00 19 27 03 00 21 27 03 00
8810  28 27 03 00 30 27 03 00 43 27 03 00 4E 27 03 00
8820  57 27 03 00 62 27 03 00 6D 27 03 00 73 27 03 00
8830  7D 27 03 00 89 27 03 00 9B 27 03 00 AE 27 03 00
8840  BD 27 03 00 CD 27 03 00 D8 27 03 00 E5 27 03 00
8850  EC 27 03 00 F3 27 03 00 FF 27 03 00 13 28 03 00
8860  27 28 03 00 39 28 03 00 45 28 03 00 50 28 03 00
8870  5A 28 03 00 68 28 03 00 72 28 03 00 7C 28 03 00
8880  85 28 03 00 8F 28 03 00 9D 28 03 00 AD 28 03 00
8890  B9 28 03 00 C6 28 03 00 D3 28 03 00 DE 28 03 00
88A0  E9 28 03 00 F7 28 03 00 08 29 03 00 14 29 03 00
88B0  23 29 03 00 2F 29 03 00 3D 29 03 00 4A 29 03 00
88C0  58 29 03 00 65 29 03 00 72 29 03 00 80 29 03 00
88D0  8B 29 03 00 94 29 03 00 A3 29 03 00 B0 29 03 00
88E0  BB 29 03 00 C7 29 03 00 D3 29 03 00 E0 29 03 00
88F0  EE 29 03 00 FA 29 03 00 06 2A 03 00 14 2A 03 00
8900  22 2A 03 00 30 2A 03 00 3C 2A 03 00 49 2A 03 00
8910  53 2A 03 00 63 2A 03 00 72 2A 03 00 81 2A 03 00
8920  92 2A 03 00 A1 2A 03 00 AC 2A 03 00 B6 2A 03 00
8930  C0 2A 03 00 CC 2A 03 00 E6 2A 03 00 EE 2A 03 00
8940  FD 2A 03 00 08 2B 03 00 1E 2B 03 00 26 2B 03 00
8950  2E 2B 03 00 3D 2B 03 00 4B 2B 03 00 5A 2B 03 00
8960  68 2B 03 00 74 2B 03 00 84 2B 03 00 93 2B 03 00
8970  A3 2B 03 00 B2 2B 03 00 BE 2B 03 00 C9 2B 03 00
8980  D5 2B 03 00 E0 2B 03 00 ED 2B 03 00 F8 2B 03 00
8990  03 2C 03 00 0B 2C 03 00 13 2C 03 00 1B 2C 03 00
89A0  24 2C 03 00 2A 2C 03 00 37 2C 03 00 46 2C 03 00
89B0  4E 2C 03 00 54 2C 03 00 5E 2C 03 00 65 2C 03 00
89C0  6C 2C 03 00 73 2C 03 00 7C 2C 03 00 85 2C 03 00
89D0  8D 2C 03 00 94 2C 03 00 9C 2C 03 00 A5 2C 03 00
89E0  AC 2C 03 00 B4 2C 03 00 BD 2C 03 00 C8 2C 03 00
89F0  D3 2C 03 00 DD 2C 03 00 E6 2C 03 00 ED 2C 03 00
8A00  F4 2C 03 00 FC 2C 03 00 03 2D 03 00 0A 2D 03 00
8A10  14 2D 03 00 1D 2D 03 00 22 2D 03 00 28 2D 03 00
8A20  2E 2D 03 00 39 2D 03 00 46 2D 03 00 4F 2D 03 00
8A30  54 2D 03 00 5B 2D 03 00 6C 2D 03 00 7D 2D 03 00
8A40  84 2D 03 00 8C 2D 03 00 94 2D 03 00 9D 2D 03 00
8A50  A4 2D 03 00 AC 2D 03 00 B4 2D 03 00 BD 2D 03 00
8A60  C3 2D 03 00 CB 2D 03 00 D6 2D 03 00 DC 2D 03 00
8A70  E4 2D 03 00 EE 2D 03 00 F9 2D 03 00 01 2E 03 00
8A80  0B 2E 03 00 17 2E 03 00 26 2E 03 00 2E 2E 03 00
8A90  39 2E 03 00 44 2E 03 00 52 2E 03 00 5C 2E 03 00
8AA0  69 2E 03 00 71 2E 03 00 79 2E 03 00 83 2E 03 00
8AB0  8A 2E 03 00 93 2E 03 00 9F 2E 03 00 A8 2E 03 00
8AC0  B2 2E 03 00 BD 2E 03 00 C5 2E 03 00 CC 2E 03 00
8AD0  D6 2E 03 00 DD 2E 03 00 E3 2E 03 00 ED 2E 03 00
8AE0  F5 2E 03 00 FB 2E 03 00 0A 2F 03 00 1D 2F 03 00
8AF0  24 2F 03 00 2C 2F 03 00 34 2F 03 00 3D 2F 03 00
8B00  4A 2F 03 00 5A 2F 03 00 64 2F 03 00 6F 2F 03 00
8B10  7C 2F 03 00 85 2F 03 00 8D 2F 03 00 99 2F 03 00
8B20  9F 2F 03 00 A6 2F 03 00 B6 2F 03 00 BF 2F 03 00
8B30  C8 2F 03 00 D1 2F 03 00 DA 2F 03 00 E4 2F 03 00
8B40  EE 2F 03 00 F5 2F 03 00 FD 2F 03 00 05 30 03 00
8B50  0F 30 03 00 14 30 03 00 1A 30 03 00 20 30 03 00
8B60  25 30 03 00 2D 30 03 00 36 30 03 00 42 30 03 00
8B70  4E 30 03 00 5A 30 03 00 67 30 03 00 72 30 03 00
8B80  7F 30 03 00 8C 30 03 00 97 30 03 00 A3 30 03 00
8B90  AF 30 03 00 BB 30 03 00 C7 30 03 00 D3 30 03 00
8BA0  DF 30 03 00 EB 30 03 00 F6 30 03 00 01 31 03 00
8BB0  0A 31 03 00 13 31 03 00 1C 31 03 00 28 31 03 00
8BC0  34 31 03 00 40 31 03 00 4C 31 03 00 58 31 03 00
8BD0  65 31 03 00 71 31 03 00 7C 31 03 00 88 31 03 00
8BE0  8F 31 03 00 95 31 03 00 9B 31 03 00 9F 31 03 00
8BF0  A3 31 03 00 A7 31 03 00 AE 31 03 00 B5 31 03 00
8C00  BE 31 03 00 CD 31 03 00 D3 31 03 00 DC 31 03 00
8C10  E2 31 03 00 ED 31 03 00 F4 31 03 00 FB 31 03 00
8C20  04 32 03 00 0B 32 03 00 15 32 03 00 1B 32 03 00
8C30  21 32 03 00 2B 32 03 00 35 32 03 00 3E 32 03 00
8C40  49 32 03 00 51 32 03 00 5E 32 03 00 6B 32 03 00
8C50  73 32 03 00 7E 32 03 00 89 32 03 00 95 32 03 00
8C60  9F 32 03 00 AB 32 03 00 B4 32 03 00 BE 32 03 00
8C70  C6 32 03 00 CE 32 03 00 D6 32 03 00 DF 32 03 00
8C80  E7 32 03 00 F0 32 03 00 F8 32 03 00 00 33 03 00
8C90  09 33 03 00 13 33 03 00 1B 33 03 00 23 33 03 00
8CA0  2B 33 03 00 35 33 03 00 3F 33 03 00 49 33 03 00
8CB0  54 33 03 00 5E 33 03 00 69 33 03 00 75 33 03 00
8CC0  7F 33 03 00 88 33 03 00 92 33 03 00 9B 33 03 00
8CD0  A5 33 03 00 AE 33 03 00 B8 33 03 00 C2 33 03 00
8CE0  CD 33 03 00 D6 33 03 00 DF 33 03 00 E8 33 03 00
8CF0  F1 33 03 00 F9 33 03 00 01 34 03 00 09 34 03 00
8D00  12 34 03 00 1A 34 03 00 22 34 03 00 2C 34 03 00
8D10  34 34 03 00 3D 34 03 00 46 34 03 00 4D 34 03 00
8D20  55 34 03 00 5C 34 03 00 67 34 03 00 6F 34 03 00
8D30  75 34 03 00 85 34 03 00 8C 34 03 00 92 34 03 00
8D40  99 34 03 00 A0 34 03 00 A8 34 03 00 B0 34 03 00
8D50  B8 34 03 00 BE 34 03 00 C5 34 03 00 CF 34 03 00
8D60  D6 34 03 00 DE 34 03 00 E4 34 03 00 EB 34 03 00
8D70  F4 34 03 00 FA 34 03 00 01 35 03 00 08 35 03 00
8D80  0E 35 03 00 14 35 03 00 1F 35 03 00 2B 35 03 00
8D90  37 35 03 00 44 35 03 00 4B 35 03 00 56 35 03 00
8DA0  6A 35 03 00 7A 35 03 00 8D 35 03 00 9B 35 03 00
8DB0  A3 35 03 00 AC 35 03 00 B9 35 03 00 C2 35 03 00
8DC0  CB 35 03 00 D7 35 03 00 DE 35 03 00 E8 35 03 00
8DD0  F3 35 03 00 FA 35 03 00 02 36 03 00 0B 36 03 00
8DE0  14 36 03 00 1E 36 03 00 26 36 03 00 2F 36 03 00
8DF0  38 36 03 00 42 36 03 00 4D 36 03 00 53 36 03 00
8E00  5C 36 03 00 66 36 03 00 6F 36 03 00 78 36 03 00
8E10  80 36 03 00 8A 36 03 00 93 36 03 00 9D 36 03 00
8E20  A5 36 03 00 AF 36 03 00 B9 36 03 00 C4 36 03 00
8E30  CD 36 03 00 D5 36 03 00 DD 36 03 00 E6 36 03 00
8E40  EE 36 03 00 F4 36 03 00 01 37 03 00 0B 37 03 00
8E50  11 37 03 00 1A 37 03 00 23 37 03 00 2D 37 03 00
8E60  36 37 03 00 3F 37 03 00 47 37 03 00 4E 37 03 00
8E70  57 37 03 00 60 37 03 00 67 37 03 00 6E 37 03 00
8E80  75 37 03 00 7E 37 03 00 86 37 03 00 91 37 03 00
8E90  99 37 03 00 A0 37 03 00 AB 37 03 00 B7 37 03 00
8EA0  C0 37 03 00 CA 37 03 00 D2 37 03 00 DA 37 03 00
8EB0  E2 37 03 00 EA 37 03 00 F2 37 03 00 FB 37 03 00
8EC0  05 38 03 00 0D 38 03 00 17 38 03 00 21 38 03 00
8ED0  2C 38 03 00 35 38 03 00 3D 38 03 00 45 38 03 00
8EE0  4D 38 03 00 55 38 03 00 5F 38 03 00 67 38 03 00
8EF0  70 38 03 00 79 38 03 00 83 38 03 00 8B 38 03 00
8F00  94 38 03 00 9D 38 03 00 A7 38 03 00 B0 38 03 00
8F10  BC 38 03 00 CB 38 03 00 D6 38 03 00 E4 38 03 00
8F20  EC 38 03 00 F6 38 03 00 FF 38 03 00 0A 39 03 00
8F30  13 39 03 00 1D 39 03 00 26 39 03 00 30 39 03 00
8F40  3A 39 03 00 42 39 03 00 4D 39 03 00 55 39 03 00
8F50  5E 39 03 00 65 39 03 00 6E 39 03 00 77 39 03 00
8F60  7F 39 03 00 88 39 03 00 91 39 03 00 9A 39 03 00
8F70  A1 39 03 00 A9 39 03 00 B5 39 03 00 C1 39 03 00
8F80  C9 39 03 00 D2 39 03 00 DC 39 03 00 E6 39 03 00
8F90  F1 39 03 00 FA 39 03 00 04 3A 03 00 0E 3A 03 00
8FA0  19 3A 03 00 25 3A 03 00 2C 3A 03 00 36 3A 03 00
8FB0  40 3A 03 00 4A 3A 03 00 53 3A 03 00 5D 3A 03 00
8FC0  66 3A 03 00 6C 3A 03 00 74 3A 03 00 7A 3A 03 00
8FD0  83 3A 03 00 8B 3A 03 00 8F 3A 03 00 93 3A 03 00
8FE0  97 3A 03 00 9D 3A 03 00 A1 3A 03 00 A6 3A 03 00
8FF0  AE 3A 03 00 B3 3A 03 00 B8 3A 03 00 BE 3A 03 00
9000  C5 3A 03 00 CA 3A 03 00 CF 3A 03 00 D4 3A 03 00
9010  DC 3A 03 00 E3 3A 03 00 E8 3A 03 00 F1 3A 03 00
9020  F7 3A 03 00 FB 3A 03 00 00 3B 03 00 06 3B 03 00
9030  0F 3B 03 00 13 3B 03 00 18 3B 03 00 1C 3B 03 00
9040  21 3B 03 00 28 3B 03 00 2D 3B 03 00 34 3B 03 00
9050  3B 3B 03 00 41 3B 03 00 49 3B 03 00 4F 3B 03 00
9060  56 3B 03 00 5D 3B 03 00 63 3B 03 00 68 3B 03 00
9070  6E 3B 03 00 76 3B 03 00 7C 3B 03 00 82 3B 03 00
9080  89 3B 03 00 90 3B 03 00 96 3B 03 00 9B 3B 03 00
9090  A3 3B 03 00 A9 3B 03 00 B0 3B 03 00 B6 3B 03 00
90A0  BE 3B 03 00 C4 3B 03 00 CD 3B 03 00 D4 3B 03 00
90B0  DC 3B 03 00 E1 3B 03 00 E9 3B 03 00 F0 3B 03 00
90C0  F5 3B 03 00 FB 3B 03 00 04 3C 03 00 0B 3C 03 00
90D0  15 3C 03 00 1D 3C 03 00 25 3C 03 00 2D 3C 03 00
90E0  35 3C 03 00 3D 3C 03 00 48 3C 03 00 50 3C 03 00
90F0  58 3C 03 00 60 3C 03 00 68 3C 03 00 70 3C 03 00
9100  79 3C 03 00 82 3C 03 00 8B 3C 03 00 94 3C 03 00
9110  9D 3C 03 00 A6 3C 03 00 AF 3C 03 00 B8 3C 03 00
9120  C1 3C 03 00 CA 3C 03 00 D3 3C 03 00 DC 3C 03 00
9130  E6 3C 03 00 EF 3C 03 00 F4 3C 03 00 FA 3C 03 00
9140  FF 3C 03 00 0A 3D 03 00 14 3D 03 00 18 3D 03 00
9150  1E 3D 03 00 26 3D 03 00 2D 3D 03 00 33 3D 03 00
9160  3C 3D 03 00 43 3D 03 00 4A 3D 03 00 51 3D 03 00
9170  58 3D 03 00 60 3D 03 00 67 3D 03 00 6E 3D 03 00
9180  73 3D 03 00 7A 3D 03 00 7E 3D 03 00 85 3D 03 00
9190  8A 3D 03 00 92 3D 03 00 97 3D 03 00 9D 3D 03 00
91A0  A6 3D 03 00 AC 3D 03 00 B2 3D 03 00 B7 3D 03 00
91B0  BF 3D 03 00 C6 3D 03 00 CD 3D 03 00 D4 3D 03 00
91C0  DA 3D 03 00 E1 3D 03 00 EB 3D 03 00 F3 3D 03 00
91D0  FA 3D 03 00 FE 3D 03 00 03 3E 03 00 0B 3E 03 00
91E0  10 3E 03 00 16 3E 03 00 1D 3E 03 00 24 3E 03 00
91F0  2B 3E 03 00 32 3E 03 00 3A 3E 03 00 41 3E 03 00
9200  49 3E 03 00 52 3E 03 00 5B 3E 03 00 62 3E 03 00
9210  6A 3E 03 00 72 3E 03 00 7A 3E 03 00 82 3E 03 00
9220  8A 3E 03 00 91 3E 03 00 98 3E 03 00 9F 3E 03 00
9230  A6 3E 03 00 AD 3E 03 00 B5 3E 03 00 BD 3E 03 00
9240  C6 3E 03 00 CE 3E 03 00 D5 3E 03 00 D9 3E 03 00
9250  DE 3E 03 00 E3 3E 03 00 EB 3E 03 00 F2 3E 03 00
9260  FA 3E 03 00 02 3F 03 00 0B 3F 03 00 14 3F 03 00
9270  1B 3F 03 00 23 3F 03 00 2C 3F 03 00 36 3F 03 00
9280  3E 3F 03 00 47 3F 03 00 51 3F 03 00 5A 3F 03 00
9290  61 3F 03 00 68 3F 03 00 6F 3F 03 00 77 3F 03 00
92A0  7E 3F 03 00 86 3F 03 00 8F 3F 03 00 96 3F 03 00
92B0  9E 3F 03 00 A6 3F 03 00 AE 3F 03 00 B6 3F 03 00
92C0  BE 3F 03 00 C5 3F 03 00 CC 3F 03 00 D3 3F 03 00
92D0  DA 3F 03 00 E1 3F 03 00 EA 3F 03 00 F2 3F 03 00
92E0  FA 3F 03 00 01 40 03 00 09 40 03 00 30 00 00 00
92F0  01 00 02 00 03 00 04 00 05 00 06 00 07 00 08 00
9300  09 00 0A 00 0B 00 0C 00 0D 00 0E 00 0F 00 10 00
9310  11 00 12 00 13 00 14 00 15 00 16 00 17 00 18 00
9320  19 00 1A 00 1B 00 1C 00 1D 00 1E 00 1F 00 20 00
9330  21 00 22 00 23 00 24 00 25 00 26 00 27 00 28 00
9340  29 00 2A 00 2B 00 2C 00 2D 00 2E 00 2F 00 31 00
9350  32 00 33 00 34 00 35 00 36 00 37 00 38 00 39 00
9360  3A 00 3B 00 3C 00 3D 00 3E 00 3F 00 40 00 41 00
9370  42 00 43 00 44 00 45 00 46 00 47 00 48 00 49 00
9380  4A 00 4B 00 4C 00 4D 00 4E 00 4F 00 50 00 51 00
9390  52 00 53 00 54 00 55 00 56 00 57 00 58 00 59 00
93A0  5A 00 5B 00 5C 00 5D 00 5E 00 5F 00 60 00 61 00
93B0  62 00 63 00 64 00 65 00 66 00 67 00 68 00 69 00
93C0  6A 00 6B 00 6C 00 6D 00 6E 00 6F 00 70 00 71 00
93D0  72 00 73 00 74 00 75 00 76 00 77 00 78 00 79 00
93E0  7A 00 7B 00 7C 00 7D 00 7E 00 7F 00 80 00 81 00
93F0  82 00 83 00 84 00 85 00 86 00 87 00 88 00 89 00
9400  8A 00 8B 00 8C 00 8D 00 8E 00 8F 00 90 00 91 00
9410  92 00 93 00 94 00 95 00 96 00 97 00 98 00 99 00
9420  9A 00 9B 00 9C 00 9D 00 9E 00 9F 00 A0 00 A1 00
9430  A2 00 A3 00 A4 00 A5 00 A6 00 A7 00 A8 00 A9 00
9440  AA 00 AB 00 AC 00 AD 00 AE 00 AF 00 B0 00 B1 00
9450  B2 00 B3 00 B4 00 B5 00 B6 00 B7 00 B8 00 B9 00
9460  BA 00 BB 00 BC 00 BD 00 BE 00 BF 00 C0 00 C1 00
9470  C2 00 C3 00 C4 00 C5 00 C6 00 C7 00 C8 00 C9 00
9480  CA 00 CB 00 CC 00 CD 00 CE 00 CF 00 D0 00 D1 00
9490  D2 00 D3 00 D4 00 D5 00 D6 00 D7 00 D8 00 D9 00
94A0  DA 00 DB 00 DC 00 DD 00 DE 00 DF 00 E0 00 E1 00
94B0  E2 00 E3 00 E4 00 E5 00 E6 00 E7 00 E8 00 E9 00
94C0  EA 00 EB 00 EC 00 ED 00 EE 00 EF 00 F0 00 F1 00
94D0  F2 00 F3 00 F4 00 F5 00 F6 00 F7 00 F8 00 F9 00
94E0  FA 00 FB 00 FC 00 FD 00 FE 00 FF 00 00 01 01 01
94F0  02 01 03 01 04 01 05 01 06 01 07 01 08 01 09 01
9500  0A 01 0B 01 0C 01 0D 01 0E 01 0F 01 10 01 11 01
9510  12 01 13 01 14 01 15 01 16 01 17 01 18 01 19 01
9520  1A 01 1B 01 1C 01 1D 01 1E 01 1F 01 20 01 21 01
9530  22 01 23 01 24 01 25 01 26 01 27 01 28 01 29 01
9540  2A 01 2B 01 2C 01 2D 01 2E 01 2F 01 30 01 31 01
9550  32 01 33 01 34 01 35 01 36 01 37 01 38 01 39 01
9560  3A 01 3B 01 3C 01 3D 01 3E 01 3F 01 40 01 41 01
9570  42 01 43 01 44 01 45 01 46 01 47 01 48 01 49 01
9580  4A 01 4B 01 4C 01 4D 01 4E 01 4F 01 50 01 51 01
9590  52 01 53 01 54 01 55 01 56 01 57 01 58 01 59 01
95A0  5A 01 5B 01 5C 01 5D 01 5E 01 5F 01 60 01 61 01
95B0  62 01 63 01 64 01 65 01 66 01 67 01 68 01 69 01
95C0  6A 01 6B 01 6C 01 6D 01 6E 01 6F 01 70 01 71 01
95D0  72 01 73 01 74 01 75 01 76 01 77 01 78 01 79 01
95E0  7A 01 7B 01 7C 01 7D 01 7E 01 7F 01 80 01 81 01
95F0  82 01 83 01 84 01 85 01 86 01 87 01 88 01 89 01
9600  8A 01 8B 01 8C 01 8D 01 8E 01 8F 01 90 01 91 01
9610  92 01 93 01 94 01 95 01 96 01 97 01 98 01 99 01
9620  9A 01 9B 01 9C 01 9D 01 9E 01 9F 01 A0 01 A1 01
9630  A2 01 A3 01 A4 01 A5 01 A6 01 A7 01 A8 01 A9 01
9640  AA 01 AB 01 AC 01 AD 01 AE 01 AF 01 B0 01 B1 01
9650  B2 01 B3 01 B4 01 B5 01 B6 01 B7 01 B8 01 B9 01
9660  BA 01 BB 01 BC 01 BD 01 BE 01 BF 01 C0 01 C1 01
9670  C2 01 C3 01 C4 01 C5 01 C6 01 C7 01 C8 01 C9 01
9680  CA 01 CB 01 CC 01 CD 01 CE 01 CF 01 D0 01 D1 01
9690  D2 01 D3 01 D4 01 D5 01 D6 01 D7 01 D8 01 D9 01
96A0  DA 01 DB 01 DC 01 DD 01 DE 01 DF 01 E0 01 E1 01
96B0  E2 01 E3 01 E4 01 E5 01 E6 01 E7 01 E8 01 E9 01
96C0  EA 01 EB 01 EC 01 ED 01 EE 01 EF 01 F0 01 F1 01
96D0  F2 01 F3 01 F4 01 F5 01 F6 01 F7 01 F8 01 F9 01
96E0  FA 01 FB 01 FC 01 FD 01 FE 01 FF 01 00 02 01 02
96F0  02 02 03 02 04 02 05 02 06 02 07 02 08 02 09 02
9700  0A 02 0B 02 0C 02 0D 02 0E 02 0F 02 10 02 11 02
9710  12 02 13 02 14 02 15 02 16 02 17 02 18 02 19 02
9720  1A 02 1B 02 1C 02 1D 02 1E 02 1F 02 20 02 21 02
9730  22 02 23 02 24 02 25 02 26 02 27 02 28 02 29 02
9740  2A 02 2B 02 2C 02 2D 02 2E 02 2F 02 D2 21 33 7F
9750  7C D9 02 40 83 C8 C9 6D 30 5F E4 3F 00 00 00 C0
9760  7E 01 50 41 00 00 00 80 FF FF 47 41 00 00 00 00
9770  00 00 F0 3F 7F 02 35 C2 68 21 A2 DA 0F C9 3E 40
9780  FF FF FF FF FF FF EF 7F 00 00 00 00 00 00 10 00
9790  00 00 00 00 00 00 98 C0 00 00 00 00 00 00 98 40
97A0  00 00 00 00 00 00 F0 7F 00 00 00 00 00 00 00 00
97B0  00 00 00 00 FF FF FF FF FF FF EF 7F 00 00 00 00
97C0  00 00 10 00 00 00 00 00 00 00 98 C0 00 00 00 00
97D0  00 00 98 40 00 00 00 00 00 00 F0 7F 00 00 00 00
97E0  00 00 00 00 5F 79 6E 00 5F 79 31 00 5F 79 30 00
97F0  66 72 65 78 70 00 00 00 66 6D 6F 64 00 00 00 00
9800  5F 68 79 70 6F 74 00 00 5F 63 61 62 73 00 00 00
9810  6C 64 65 78 70 00 00 00 6D 6F 64 66 00 00 00 00
9820  66 61 62 73 00 00 00 00 66 6C 6F 6F 72 00 00 00
9830  63 65 69 6C 00 00 00 00 74 61 6E 00 63 6F 73 00
9840  73 69 6E 00 73 71 72 74 00 00 00 00 61 74 61 6E
9850  32 00 00 00 61 74 61 6E 00 00 00 00 61 63 6F 73
9860  00 00 00 00 61 73 69 6E 00 00 00 00 74 61 6E 68
9870  00 00 00 00 63 6F 73 68 00 00 00 00 73 69 6E 68
9880  00 00 00 00 6C 6F 67 31 30 00 00 00 6C 6F 67 00
9890  70 6F 77 00 65 78 70 00 00 00 00 00 30 92 03 78
98A0  00 00 00 00 00 00 00 00 FF FF FF FF 00 00 00 00
98B0  00 00 00 00 60 92 03 78 01 00 00 00 00 00 00 00
98C0  FF FF FF FF 00 00 00 00 00 00 00 00 68 01 03 78
98D0  50 01 03 78 00 00 00 00 00 00 00 00 00 00 00 00
98E0  00 00 00 00 02 00 00 00 80 01 03 78 48 92 03 78
98F0  00 00 00 00 00 00 00 00 FF FF FF FF 00 00 00 00
9900  00 00 00 00 A0 01 03 78 00 00 00 00 00 00 00 00
9910  00 00 00 00 01 00 00 00 B8 01 03 78 00 00 00 00
9920  00 00 00 00 00 00 00 00 48 92 03 78 C0 01 03 78
9930  00 00 00 00 00 00 00 00 00 00 00 00 00 00 00 00
9940  60 92 03 78 90 01 03 78 00 00 00 00 78 92 03 78
9950  01 00 00 00 00 00 00 00 FF FF FF FF 00 00 00 00
9960  00 00 00 00 00 02 03 78 50 01 03 78 00 00 00 00
9970  00 00 00 00 00 00 00 00 00 00 00 00 02 00 00 00
9980  18 02 03 78 00 00 00 00 00 00 00 00 00 00 00 00
9990  78 92 03 78 28 02 03 78 00 00 00 00 98 92 03 78
99A0  02 00 00 00 00 00 00 00 FF FF FF FF 00 00 00 00
99B0  00 00 00 00 50 02 03 78 00 02 03 78 50 01 03 78
99C0  00 00 00 00 00 00 00 00 00 00 00 00 03 00 00 00
99D0  68 02 03 78 00 00 00 00 00 00 00 00 00 00 00 00
99E0  98 92 03 78 78 02 03 78 50 01 03 78 00 00 00 00
99F0  00 00 00 00 00 00 00 00 00 00 00 00 01 00 00 00
9A00  9C 02 03 78 00 00 00 00 00 00 00 00 00 00 00 00
9A10  30 92 03 78 A8 02 03 78 00 00 00 00 00 00 00 00
9A20  30 92 03 78 00 00 00 00 FF FF FF FF 00 00 00 00
9A30  0C 00 00 00 92 CA 00 78 00 00 00 00 00 00 00 00
9A40  78 92 03 78 00 00 00 00 FF FF FF FF 00 00 00 00
9A50  0C 00 00 00 27 B0 00 78 00 00 00 00 00 00 00 00
9A60  98 92 03 78 00 00 00 00 FF FF FF FF 00 00 00 00
9A70  0C 00 00 00 DF B0 00 78 00 00 00 00 03 00 00 00
9A80  10 03 03 78 F0 02 03 78 D0 02 03 78 00 00 00 00
9A90  09 B1 00 78 00 00 00 00 30 03 03 78 02 00 00 00
9AA0  F0 02 03 78 D0 02 03 78 00 00 00 00 00 00 00 00
9AB0  51 B0 00 78 00 00 00 00 50 03 03 78 00 00 00 00
9AC0  60 92 03 78 00 00 00 00 FF FF FF FF 00 00 00 00
9AD0  0C 00 00 00 67 AF 00 78 00 00 00 00 02 00 00 00
9AE0  70 03 03 78 D0 02 03 78 00 00 00 00 00 00 00 00
9AF0  91 AF 00 78 00 00 00 00 90 03 03 78 00 00 00 00
9B00  00 00 00 00 00 00 00 00 00 00 00 00 00 00 00 00
9B10  02 83 B6 36 00 00 00 00 8E 21 03 00 01 00 00 00
9B20  F7 02 00 00 F7 02 00 00 E8 03 03 00 C4 0F 03 00
9B30  A0 1B 03 00 DF B0 00 00 BD B0 00 00 4F AF 00 00
9B40  67 AF 00 00 27 B0 00 00 0E B0 00 00 55 CA 00 00
9B50  92 CA 00 00 DD C9 00 00 09 B1 00 00 91 AF 00 00
9B60  51 B0 00 00 91 AF 00 00 75 B1 00 00 41 1D 00 00
9B70  83 57 00 00 F7 B0 00 00 7F AF 00 00 3F B0 00 00
9B80  DC CA 00 00 BA B1 00 00 D5 B1 00 00 2C EE 02 00
9B90  14 EE 02 00 20 EE 02 00 94 F1 02 00 2A B1 00 00
9BA0  C3 AF 00 00 72 B0 00 00 0A CA 00 00 0E B1 00 00
9BB0  A7 AF 00 00 56 B0 00 00 EE C9 00 00 0A 59 00 00
9BC0  6E 59 00 00 E6 58 00 00 51 59 00 00 B9 B2 00 00
9BD0  F1 B1 00 00 14 B2 00 00 10 B2 00 00 2B 59 00 00
9BE0  87 B2 00 00 A0 B2 00 00 9E AA 00 00 A3 AB 00 00
9BF0  FB CA 00 00 39 79 02 00 05 89 02 00 00 8A 02 00
9C00  CF 8A 02 00 B4 8B 02 00 EC 8B 02 00 1E 8D 02 00
9C10  36 8D 02 00 47 8D 02 00 6F 8D 02 00 3B 8E 02 00
9C20  07 8F 02 00 7F 91 02 00 E0 8C 02 00 2D 92 02 00
9C30  E7 92 02 00 25 8D 02 00 1A AC 00 00 96 14 00 00
9C40  EB 3A 01 00 7A 3B 01 00 0F 3C 01 00 2C A7 03 00
9C50  63 3E 01 00 80 F1 00 00 E5 AC 00 00 1B AD 00 00
9C60  06 83 01 00 4E 84 01 00 88 83 01 00 28 7F 02 00
9C70  F4 8E 03 00 D8 B3 03 00 C8 94 03 00 31 51 01 00
9C80  0E 4F 00 00 BA 3F 00 00 E5 2F 00 00 88 C9 00 00
9C90  AE F7 00 00 5E BA 00 00 DC B3 03 00 B2 55 01 00
9CA0  04 56 01 00 C7 55 01 00 80 71 03 00 34 77 03 00
9CB0  84 71 03 00 EB E2 01 00 A4 71 03 00 FE 54 00 00
9CC0  1A BB 00 00 44 BB 00 00 62 BB 00 00 20 BB 00 00
9CD0  4A BB 00 00 0E BB 00 00 14 BB 00 00 35 46 00 00
9CE0  26 BB 00 00 2C BB 00 00 32 BB 00 00 3E BB 00 00
9CF0  2F 46 00 00 50 BB 00 00 5C BB 00 00 56 BB 00 00
9D00  68 BB 00 00 6E BB 00 00 7A BB 00 00 74 BB 00 00
9D10  86 BB 00 00 8C BB 00 00 F8 54 00 00 38 BB 00 00
9D20  92 BB 00 00 98 BB 00 00 9E BB 00 00 80 BB 00 00
9D30  80 77 03 00 B7 F7 00 00 25 46 00 00 9C 71 03 00
9D40  8F B3 00 00 7E C0 00 00 78 C0 00 00 BF 55 01 00
9D50  74 59 00 00 32 5A 00 00 A0 71 03 00 F8 8E 03 00
9D60  3B 46 00 00 0C 91 03 00 BF EE 00 00 FC 6B 01 00
9D70  74 71 03 00 0B 9A 02 00 73 99 02 00 3F 9A 02 00
9D80  BF 99 02 00 AE 94 02 00 0B 9B 02 00 73 9A 02 00
9D90  3F 9B 02 00 BF 9A 02 00 1C A1 02 00 A3 9D 02 00
9DA0  5B A0 02 00 1F A1 02 00 2C 7C 03 00 50 93 03 00
9DB0  DB BA 00 00 11 EB 00 00 98 81 02 00 DD C7 00 00
9DC0  C5 81 02 00 27 64 01 00 16 BE 00 00 A8 25 00 00
9DD0  91 B8 00 00 3F A1 02 00 10 59 00 00 82 B8 00 00
9DE0  94 A5 01 00 42 6C 01 00 0B 6D 01 00 08 A4 02 00
9DF0  16 E3 01 00 7E 6D 01 00 6B A6 01 00 5C 12 01 00
9E00  9C 1F 01 00 ED 1C 01 00 F0 8E 03 00 F7 42 00 00
9E10  E1 42 00 00 E7 A3 02 00 5E F7 01 00 ED A7 01 00
9E20  45 A8 01 00 7E FF 01 00 AC 71 03 00 2A 88 01 00
9E30  58 95 03 00 5C 95 03 00 5B A8 01 00 66 A9 01 00
9E40  74 56 01 00 20 BF 00 00 60 26 00 00 04 7C 03 00
9E50  3E AB 01 00 7F C9 00 00 2E E3 01 00 03 EF 00 00
9E60  B9 88 01 00 CD 88 01 00 F5 88 01 00 06 89 01 00
9E70  2E 89 01 00 41 89 01 00 D8 8A 01 00 EB 8A 01 00
9E80  71 B8 00 00 E3 A0 01 00 69 FB 00 00 41 56 01 00
9E90  06 0A 02 00 F4 0A 02 00 00 0B 02 00 0C 0B 02 00
9EA0  C0 94 03 00 D3 AB 01 00 5D AC 01 00 E7 0B 02 00
9EB0  CE 65 01 00 36 64 01 00 52 66 01 00 06 65 01 00
9EC0  40 67 01 00 E6 A7 02 00 8B 05 01 00 C1 55 00 00
9ED0  EC 8E 03 00 28 A8 02 00 BA A8 02 00 70 12 01 00
9EE0  EF 0B 02 00 0B 0C 02 00 27 0C 02 00 11 AD 01 00
9EF0  AB AF 01 00 80 6A 02 00 51 25 00 00 BD 6D 01 00
9F00  9C 6B 02 00 0E 57 01 00 72 23 01 00 CD CE 00 00
9F10  62 B2 01 00 7E B2 01 00 66 6E 01 00 8D 6E 01 00
9F20  29 68 01 00 61 8C 01 00 C8 6C 01 00 7C 68 01 00
9F30  46 0D 02 00 FC E6 00 00 C6 6F 01 00 D7 6C 02 00
9F40  4C 0D 02 00 9A 0D 02 00 15 EE 00 00 41 A2 01 00
9F50  98 A2 01 00 3A A3 01 00 98 A2 01 00 F7 A3 01 00
9F60  05 A4 01 00 22 A1 02 00 1A 16 01 00 3E 58 01 00
9F70  F8 14 00 00 7C B5 01 00 8D B5 01 00 85 B5 01 00
9F80  48 7C 03 00 73 1F 01 00 97 C8 00 00 E7 C5 01 00
9F90  FB C5 01 00 0F C6 01 00 B4 C5 01 00 6A C6 01 00
9FA0  C5 C5 01 00 D6 C5 01 00 48 C6 01 00 23 C6 01 00
9FB0  37 C6 01 00 59 C6 01 00 C2 C6 01 00 49 C7 01 00
9FC0  D0 C7 01 00 5F C8 01 00 E6 C8 01 00 0D C9 01 00
9FD0  65 C9 01 00 90 C9 01 00 C5 C9 01 00 FA C9 01 00
9FE0  22 CA 01 00 A0 CA 01 00 27 CB 01 00 AA CB 01 00
9FF0  39 C9 01 00 39 CC 01 00 B7 CC 01 00 15 CD 01 00
A000  FA A7 02 00 0B 35 00 00 A8 57 01 00 C7 B2 02 00
A010  2B B4 02 00 BB B7 02 00 A3 B3 01 00 DC E3 01 00
A020  90 8C 01 00 57 EE 00 00 55 10 00 00 94 B5 01 00
A030  43 A4 02 00 0E E4 01 00 7F E4 01 00 B8 E4 01 00
A040  F1 E4 01 00 7C 20 01 00 B8 B6 01 00 D5 15 01 00
A050  DA 57 01 00 30 E5 01 00 71 CD 01 00 5F CE 01 00
A060  00 7B 03 00 A3 CE 01 00 C2 CE 01 00 2A CF 01 00
A070  C5 CF 01 00 DB CF 01 00 0D D0 01 00 30 D0 01 00
A080  DF CD 01 00 AB D0 01 00 E0 79 03 00 26 D1 01 00
A090  DD D1 01 00 9C 50 01 00 3B E8 00 00 70 D2 01 00
A0A0  71 D1 01 00 A0 D2 01 00 E8 E8 00 00 2D D3 01 00
A0B0  55 E9 00 00 58 D3 01 00 88 D3 01 00 9F D3 01 00
A0C0  EA D3 01 00 74 D4 01 00 39 D5 01 00 28 D6 01 00
A0D0  6C D6 01 00 A1 E7 00 00 AB D6 01 00 5D 50 01 00
A0E0  4F D8 01 00 C6 D8 01 00 7C D9 01 00 CA D9 01 00
A0F0  92 DA 01 00 E7 DA 01 00 77 DB 01 00 96 DB 01 00
A100  23 DD 01 00 78 DD 01 00 96 DD 01 00 0C E7 00 00
A110  78 DE 01 00 EA DE 01 00 54 DF 01 00 A5 DF 01 00
A120  32 E0 01 00 D2 E0 01 00 48 E1 01 00 A8 58 01 00
A130  F1 E1 01 00 8B 57 02 00 DE 57 02 00 CC 6F 01 00
A140  AE B7 01 00 1D 15 00 00 2A A5 02 00 36 4A 00 00
A150  78 B8 01 00 B4 23 01 00 58 71 03 00 D6 BB 01 00
A160  F0 BB 01 00 E3 BB 01 00 AB 11 02 00 A8 71 03 00
A170  E0 B3 03 00 FB BB 01 00 F2 0D 02 00 0C EE 00 00
A180  C0 BD 01 00 C1 E5 01 00 6D 12 02 00 BD 12 02 00
A190  B0 73 03 00 25 BE 01 00 F8 6F 01 00 0A 57 00 00
A1A0  8F E4 01 00 C8 E4 01 00 73 9B 02 00 88 9B 02 00
A1B0  10 A1 02 00 16 A1 02 00 2D A4 02 00 6E E6 01 00
A1C0  C0 EF 00 00 67 B3 00 00 EC CE 00 00 82 68 01 00
A1D0  78 E7 01 00 B0 E7 01 00 6B 0C 02 00 DB 3D 00 00
A1E0  63 C0 01 00 32 6D 02 00 14 64 01 00 38 13 02 00
A1F0  89 13 02 00 8F B8 01 00 B2 8C 01 00 CA 8C 01 00
A200  F5 8C 01 00 0B 8D 01 00 36 8D 01 00 4D 8D 01 00
A210  EB 8E 01 00 02 8F 01 00 2B E8 01 00 DA 70 01 00
A220  17 74 01 00 49 12 01 00 13 0D 01 00 9B 6D 02 00
A230  6D 0A 01 00 A6 E9 01 00 13 0D 01 00 C4 58 02 00
A240  93 59 02 00 BF 5A 02 00 F6 39 01 00 A3 5B 02 00
A250  7A 5C 02 00 A3 5C 02 00 D3 5C 02 00 1F 6E 02 00
A260  F3 5C 02 00 6B 59 01 00 28 A4 03 00 D8 A4 03 00
A270  1D C1 01 00 2E C1 01 00 F9 13 02 00 54 95 03 00
A280  88 17 01 00 C5 18 01 00 E0 95 03 00 2F 47 01 00
A290  D1 16 01 00 73 58 01 00 FF 15 01 00 0C 58 01 00
A2A0  34 EA 01 00 7D B4 01 00 96 77 01 00 9B 8C 01 00
A2B0  9E 12 00 00 65 6B 02 00 1A 16 02 00 6A 16 02 00
A2C0  A1 77 01 00 98 6E 02 00 E7 77 01 00 75 78 01 00
A2D0  70 71 03 00 41 C1 01 00 F3 45 00 00 4F 1D 00 00
A2E0  1F 5E 02 00 EE 5E 02 00 23 60 02 00 C2 49 00 00
A2F0  8E 49 00 00 07 61 02 00 2D 61 02 00 5F 61 02 00
A300  78 61 02 00 A9 6F 02 00 FC 8E 03 00 6E 90 01 00
A310  82 90 01 00 AA 90 01 00 BB 90 01 00 E3 90 01 00
A320  F6 90 01 00 8A 92 01 00 9D 92 01 00 D9 16 02 00
A330  8D 68 01 00 25 6A 01 00 5D 69 01 00 13 6B 01 00
A340  FE 17 02 00 11 18 02 00 CD 17 02 00 B4 78 01 00
A350  61 79 01 00 88 79 01 00 4A EA 01 00 60 71 03 00
A360  64 71 03 00 5C 71 03 00 E0 EA 01 00 91 7A 01 00
A370  57 C1 01 00 07 C2 01 00 96 EB 01 00 00 8F 03 00
A380  58 18 02 00 5A EC 01 00 BD 7A 01 00 F2 7A 01 00
A390  80 1D 01 00 20 7B 01 00 0E ED 01 00 31 EE 01 00
A3A0  1E C2 01 00 F4 93 01 00 0C 94 01 00 37 94 01 00
A3B0  4D 94 01 00 78 94 01 00 8F 94 01 00 2A 96 01 00
A3C0  41 96 01 00 E1 EE 01 00 08 7C 01 00 64 7F 01 00
A3D0  C2 6F 02 00 52 70 02 00 82 97 01 00 79 1C 02 00
A3E0  99 1E 02 00 BE 59 01 00 E7 59 01 00 95 59 01 00
A3F0  E7 7A 01 00 D7 70 02 00 41 B5 02 00 78 B6 02 00
A400  49 B9 02 00 ED AA 00 00 A7 F0 01 00 19 89 02 00
A410  0E 71 02 00 14 8A 02 00 E3 8A 02 00 67 8B 02 00
A420  C0 E2 01 00 10 5A 01 00 D2 C7 00 00 8B 34 00 00
A430  B2 F0 01 00 F9 18 00 00 6C BA 02 00 CD 1F 02 00
A440  00 72 02 00 00 8C 02 00 D2 8C 02 00 43 72 02 00
A450  5C 72 02 00 3E F1 01 00 04 55 00 00 2C 8D 02 00
A460  3B BB 02 00 0E 05 01 00 0E 20 02 00 19 20 02 00
A470  CE F9 00 00 24 20 02 00 60 20 02 00 82 20 02 00
A480  E2 20 02 00 04 22 02 00 F0 BB 02 00 3D 8D 02 00
A490  58 0C 02 00 84 FA 00 00 5F 22 02 00 AA 22 02 00
A4A0  F8 22 02 00 0C 24 02 00 59 24 02 00 90 13 00 00
A4B0  6C 25 02 00 BF BC 02 00 B3 25 02 00 E0 25 02 00
A4C0  99 26 02 00 B1 26 02 00 24 28 02 00 60 28 02 00
A4D0  9A 29 02 00 55 20 02 00 F4 0A 02 00 09 4D 01 00
A4E0  C7 29 02 00 F9 21 02 00 00 0B 02 00 6D 72 02 00
A4F0  2B 1A 01 00 00 55 01 00 DD 53 01 00 8A 55 01 00
A500  5B 54 01 00 5C 55 01 00 67 5A 01 00 33 54 01 00
A510  2E 55 01 00 D8 54 01 00 B0 54 01 00 0B 54 01 00
A520  E4 5A 01 00 7C 5A 01 00 25 5B 01 00 17 5B 01 00
A530  C8 17 00 00 A9 5A 01 00 06 5B 01 00 9B 5A 01 00
A540  F5 5A 01 00 D6 5A 01 00 C8 5A 01 00 8D 5A 01 00
A550  B7 5A 01 00 83 54 01 00 63 F1 01 00 6F BD 02 00
A560  6E F1 01 00 BB 38 01 00 77 73 02 00 83 8D 02 00
A570  4F 8E 02 00 0E E4 01 00 B3 12 00 00 31 5B 01 00
A580  A8 5B 01 00 D5 2A 00 00 AD 62 02 00 38 17 00 00
A590  0E 16 00 00 75 2D 00 00 00 10 00 00 D3 74 02 00
A5A0  52 BF 02 00 A5 F1 01 00 20 8F 02 00 28 2A 02 00
A5B0  9A 22 02 00 00 0C 02 00 69 2A 02 00 FC 23 02 00
A5C0  1C 0C 02 00 30 F2 01 00 E7 F5 00 00 0B F4 01 00
A5D0  F1 19 00 00 6C 77 01 00 D8 82 01 00 E1 2A 02 00
A5E0  45 2B 02 00 75 2B 02 00 6F 30 00 00 C0 FA 00 00
A5F0  0B F4 00 00 93 91 02 00 9A 8C 02 00 9A 2B 02 00
A600  41 92 02 00 FE F3 01 00 EC 2B 02 00 02 36 00 00
A610  52 0B 01 00 77 32 00 00 DA 63 02 00 AB 2F 00 00
A620  B8 39 01 00 2D F4 01 00 48 3E 01 00 32 2F 00 00
A630  E3 0D 01 00 8E 0C 01 00 20 4E 00 00 D9 0C 01 00
A640  A9 64 02 00 D0 64 02 00 0E 0C 01 00 A4 5D 01 00
A650  0E 65 02 00 53 13 01 00 9F 15 01 00 B2 65 02 00
A660  46 27 00 00 44 2C 02 00 24 98 01 00 FB 92 02 00
A670  D9 8C 02 00 02 77 02 00 F8 2C 02 00 7A 2C 02 00
A680  90 17 01 00 CD 18 01 00 7F 1C 00 00 4E 5E 01 00
A690  7D 2E 02 00 14 2F 02 00 2B 30 02 00 66 30 02 00
A6A0  A1 30 02 00 DD 30 02 00 2E 31 02 00 9C 31 02 00
A6B0  17 1D 00 00 E5 15 00 00 91 17 00 00 A9 66 02 00
A6C0  4A 30 00 00 78 67 02 00 DE 77 02 00 C8 15 00 00
A6D0  B9 67 02 00 F9 67 02 00 98 0A 01 00 D9 1C 00 00
A6E0  B3 45 00 00 31 68 02 00 73 68 02 00 D0 1D 00 00
A6F0  B4 68 02 00 7E 5F 01 00 5D 61 01 00 46 61 01 00
A700  5B 69 02 00 97 1E 00 00 D8 31 02 00 19 32 02 00
A710  A8 26 03 00 99 21 03 00 BB 21 03 00 DB 21 03 00
A720  F4 21 03 00 0D 22 03 00 28 22 03 00 41 22 03 00
A730  5B 22 03 00 75 22 03 00 8A 22 03 00 A7 22 03 00
A740  BB 22 03 00 D1 22 03 00 E6 22 03 00 75 67 68 20
A750  73 70 61 63 65 20 66 6F 72 20 74 68 72 65 61 64
A760  20 64 61 74 61 0D 0A 00 0D 0A 61 62 6E 6F 72 6D
A770  61 6C 20 70 72 6F 67 72 61 6D 20 74 65 72 6D 69
A780  6E 61 74 69 6F 6E 0D 0A 00 00 00 00 52 36 30 30
A790  39 0D 0A 2D 20 6E 6F 74 20 65 6E 6F 75 67 68 20
A7A0  73 70 61 63 65 20 66 6F 72 20 65 6E 76 69 72 6F
A7B0  6E 6D 65 6E 74 0D 0A 00 52 36 30 30 38 0D 0A 2D
A7C0  20 6E 6F 74 20 65 6E 6F 75 67 68 20 73 70 61 63
A7D0  65 20 66 6F 72 20 61 72 67 75 6D 65 6E 74 73 0D
A7E0  0A 00 00 00 52 36 30 30 32 0D 0A 2D 20 66 6C 6F
A7F0  61 74 69 6E 67 20 70 6F 69 6E 74 20 6E 6F 74 20
A800  6C 6F 61 64 65 64 0D 0A 00 00 00 00 4D 69 63 72
A810  6F 73 6F 66 74 20 56 69 73 75 61 6C 20 43 2B 2B
A820  20 52 75 6E 74 69 6D 65 20 4C 69 62 72 61 72 79
A830  00 00 0A 0A 00 00 00 00 52 75 6E 74 69 6D 65 20
A840  45 72 72 6F 72 21 0A 0A 50 72 6F 67 72 61 6D 3A
A850  20 00 00 00 3C 70 72 6F 67 72 61 6D 20 6E 61 6D
A860  65 20 75 6E 6B 6E 6F 77 6E 3E 00 00 4D 53 56 43
A870  52 54 2E 44 4C 4C 20 66 6F 72 20 57 69 6E 33 32
A880  0A 0A 45 72 72 6F 72 3A 20 4D 53 56 43 52 54 2E
A890  44 4C 4C 20 69 73 20 6E 6F 74 20 63 6F 6D 70 61
A8A0  74 69 62 6C 65 20 77 69 74 68 20 57 69 6E 33 32
A8B0  73 2E 00 00 FF FF FF FF 01 BF 00 78 15 BF 00 78
A8C0  2A 3F 00 00 2E 2E 00 00 2A 00 3F 00 00 00 00 00
A8D0  2E 00 2E 00 00 00 00 00 2E 00 00 00 B8 02 03 78
A8E0  0A CA 00 78 FB CA 00 78 55 6E 6B 6E 6F 77 6E 20
A8F0  65 78 63 65 70 74 69 6F 6E 00 00 00 FF FF FF FF
A900  00 00 00 00 70 CB 00 78 00 00 00 00 FF FF FF FF
A910  C4 CB 00 78 CE CB 00 78 5F 5F 47 4C 4F 42 41 4C
A920  5F 48 45 41 50 5F 53 45 4C 45 43 54 45 44 00 00
A930  0A 00 00 00 28 50 72 65 73 73 20 52 65 74 72 79
A940  20 74 6F 20 64 65 62 75 67 20 74 68 65 20 61 70
A950  70 6C 69 63 61 74 69 6F 6E 20 2D 20 4A 49 54 20
A960  6D 75 73 74 20 62 65 20 65 6E 61 62 6C 65 64 29
A970  00 00 00 00 46 6F 72 20 69 6E 66 6F 72 6D 61 74
A980  69 6F 6E 20 6F 6E 20 68 6F 77 20 79 6F 75 72 20
A990  70 72 6F 67 72 61 6D 20 63 61 6E 20 63 61 75 73
A9A0  65 20 61 6E 20 61 73 73 65 72 74 69 6F 6E 0A 66
A9B0  61 69 6C 75 72 65 2C 20 73 65 65 20 74 68 65 20
A9C0  56 69 73 75 61 6C 20 43 2B 2B 20 64 6F 63 75 6D
A9D0  65 6E 74 61 74 69 6F 6E 20 6F 6E 20 61 73 73 65
A9E0  72 74 73 00 45 78 70 72 65 73 73 69 6F 6E 3A 20
A9F0  00 00 00 00 4C 69 6E 65 3A 20 00 00 46 69 6C 65
AA00  3A 20 00 00 50 72 6F 67 72 61 6D 3A 20 00 00 00
AA10  41 73 73 65 72 74 69 6F 6E 20 66 61 69 6C 65 64
AA20  21 00 00 00 47 65 74 4C 61 73 74 41 63 74 69 76
AA30  65 50 6F 70 75 70 00 00 47 65 74 41 63 74 69 76
AA40  65 57 69 6E 64 6F 77 00 4D 65 73 73 61 67 65 42
AA50  6F 78 41 00 75 73 65 72 33 32 2E 64 6C 6C 00 00
AA60  00 00 00 00 28 00 6E 00 75 00 6C 00 6C 00 29 00
AA70  00 00 00 00 28 6E 75 6C 6C 29 00 00 53 75 6E 4D
AA80  6F 6E 54 75 65 57 65 64 54 68 75 46 72 69 53 61
AA90  74 00 00 00 4A 61 6E 46 65 62 4D 61 72 41 70 72
AAA0  4D 61 79 4A 75 6E 4A 75 6C 41 75 67 53 65 70 4F
AAB0  63 74 4E 6F 76 44 65 63 00 00 3D 3B 00 00 00 00
AAC0  5F 2E 2C 00 FF FF FF FF 1F 29 01 78 23 29 01 78
AAD0  FF FF FF FF 39 29 01 78 3D 29 01 78 50 61 72 61
AAE0  67 75 61 79 00 00 00 00 55 72 75 67 75 61 79 00
AAF0  43 68 69 6C 65 00 00 00 45 63 75 61 64 6F 72 00
AB00  41 72 67 65 6E 74 69 6E 61 00 00 00 50 65 72 75
AB10  00 00 00 00 43 6F 6C 6F 6D 62 69 61 00 00 00 00
AB20  56 65 6E 65 7A 75 65 6C 61 00 00 00 44 6F 6D 69
AB30  6E 69 63 61 6E 20 52 65 70 75 62 6C 69 63 00 00
AB40  53 6F 75 74 68 20 41 66 72 69 63 61 00 00 00 00
AB50  50 61 6E 61 6D 61 00 00 4C 75 78 65 6D 62 6F 75
AB60  72 67 00 00 43 6F 73 74 61 20 52 69 63 61 00 00
AB70  53 77 69 74 7A 65 72 6C 61 6E 64 00 47 75 61 74
AB80  65 6D 61 6C 61 00 00 00 43 61 6E 61 64 61 00 00
AB90  53 70 61 6E 69 73 68 20 2D 20 4D 6F 64 65 72 6E
ABA0  20 53 6F 72 74 00 00 00 41 75 73 74 72 61 6C 69
ABB0  61 00 00 00 45 6E 67 6C 69 73 68 00 41 75 73 74
ABC0  72 69 61 00 47 65 72 6D 61 6E 00 00 42 65 6C 67
ABD0  69 75 6D 00 4D 65 78 69 63 6F 00 00 53 70 61 6E
ABE0  69 73 68 00 42 61 73 71 75 65 00 00 53 77 65 64
ABF0  65 6E 00 00 53 77 65 64 69 73 68 00 49 63 65 6C
AC00  61 6E 64 00 49 63 65 6C 61 6E 64 69 63 00 00 00
AC10  46 72 61 6E 63 65 00 00 46 72 65 6E 63 68 00 00
AC20  46 69 6E 6C 61 6E 64 00 46 69 6E 6E 69 73 68 00
AC30  53 70 61 69 6E 00 00 00 53 70 61 6E 69 73 68 20
AC40  2D 20 54 72 61 64 69 74 69 6F 6E 61 6C 20 53 6F
AC50  72 74 00 00 75 6E 69 74 65 64 2D 73 74 61 74 65
AC60  73 00 00 00 75 6E 69 74 65 64 2D 6B 69 6E 67 64
AC70  6F 6D 00 00 74 72 69 6E 69 64 61 64 20 26 20 74
AC80  6F 62 61 67 6F 00 00 00 73 6F 75 74 68 2D 6B 6F
AC90  72 65 61 00 73 6F 75 74 68 2D 61 66 72 69 63 61
ACA0  00 00 00 00 73 6F 75 74 68 20 6B 6F 72 65 61 00
ACB0  73 6F 75 74 68 20 61 66 72 69 63 61 00 00 00 00
ACC0  73 6C 6F 76 61 6B 00 00 70 75 65 72 74 6F 2D 72
ACD0  69 63 6F 00 70 72 2D 63 68 69 6E 61 00 00 00 00
ACE0  70 72 20 63 68 69 6E 61 00 00 6E 7A 00 00 00 00
ACF0  6E 65 77 2D 7A 65 61 6C 61 6E 64 00 68 6F 6E 67
AD00  2D 6B 6F 6E 67 00 00 00 68 6F 6C 6C 61 6E 64 00
AD10  67 72 65 61 74 20 62 72 69 74 61 69 6E 00 00 00
AD20  65 6E 67 6C 61 6E 64 00 63 7A 65 63 68 00 00 00
AD30  63 68 69 6E 61 00 00 00 62 72 69 74 61 69 6E 00
AD40  61 6D 65 72 69 63 61 00 75 73 61 00 75 73 00 00
AD50  75 6B 00 00 73 77 69 73 73 00 00 00 73 77 65 64
AD60  69 73 68 2D 66 69 6E 6C 61 6E 64 00 73 70 61 6E
AD70  69 73 68 2D 76 65 6E 65 7A 75 65 6C 61 00 00 00
AD80  73 70 61 6E 69 73 68 2D 75 72 75 67 75 61 79 00
AD90  73 70 61 6E 69 73 68 2D 70 75 65 72 74 6F 20 72
ADA0  69 63 6F 00 73 70 61 6E 69 73 68 2D 70 65 72 75
ADB0  00 00 00 00 73 70 61 6E 69 73 68 2D 70 61 72 61
ADC0  67 75 61 79 00 00 00 00 73 70 61 6E 69 73 68 2D
ADD0  70 61 6E 61 6D 61 00 00 73 70 61 6E 69 73 68 2D
ADE0  6E 69 63 61 72 61 67 75 61 00 00 00 73 70 61 6E
ADF0  69 73 68 2D 6D 6F 64 65 72 6E 00 00 73 70 61 6E
AE00  69 73 68 2D 6D 65 78 69 63 61 6E 00 73 70 61 6E
AE10  69 73 68 2D 68 6F 6E 64 75 72 61 73 00 00 00 00
AE20  73 70 61 6E 69 73 68 2D 67 75 61 74 65 6D 61 6C
AE30  61 00 00 00 73 70 61 6E 69 73 68 2D 65 6C 20 73
AE40  61 6C 76 61 64 6F 72 00 73 70 61 6E 69 73 68 2D
AE50  65 63 75 61 64 6F 72 00 73 70 61 6E 69 73 68 2D
AE60  64 6F 6D 69 6E 69 63 61 6E 20 72 65 70 75 62 6C
AE70  69 63 00 00 73 70 61 6E 69 73 68 2D 63 6F 73 74
AE80  61 20 72 69 63 61 00 00 73 70 61 6E 69 73 68 2D
AE90  63 6F 6C 6F 6D 62 69 61 00 00 00 00 73 70 61 6E
AEA0  69 73 68 2D 63 68 69 6C 65 00 00 00 73 70 61 6E
AEB0  69 73 68 2D 62 6F 6C 69 76 69 61 00 73 70 61 6E
AEC0  69 73 68 2D 61 72 67 65 6E 74 69 6E 61 00 00 00
AED0  70 6F 72 74 75 67 75 65 73 65 2D 62 72 61 7A 69
AEE0  6C 69 61 6E 00 00 00 00 6E 6F 72 77 65 67 69 61
AEF0  6E 2D 6E 79 6E 6F 72 73 6B 00 00 00 6E 6F 72 77
AF00  65 67 69 61 6E 2D 62 6F 6B 6D 61 6C 00 00 00 00
AF10  6E 6F 72 77 65 67 69 61 6E 00 00 00 69 74 61 6C
AF20  69 61 6E 2D 73 77 69 73 73 00 00 00 69 72 69 73
AF30  68 2D 65 6E 67 6C 69 73 68 00 00 00 67 65 72 6D
AF40  61 6E 2D 73 77 69 73 73 00 00 00 00 67 65 72 6D
AF50  61 6E 2D 6C 75 78 65 6D 62 6F 75 72 67 00 00 00
AF60  67 65 72 6D 61 6E 2D 6C 69 63 68 74 65 6E 73 74
AF70  65 69 6E 00 67 65 72 6D 61 6E 2D 61 75 73 74 72
AF80  69 61 6E 00 66 72 65 6E 63 68 2D 73 77 69 73 73
AF90  00 00 00 00 66 72 65 6E 63 68 2D 6C 75 78 65 6D
AFA0  62 6F 75 72 67 00 00 00 66 72 65 6E 63 68 2D 63
AFB0  61 6E 61 64 69 61 6E 00 66 72 65 6E 63 68 2D 62
AFC0  65 6C 67 69 61 6E 00 00 65 6E 67 6C 69 73 68 2D
AFD0  75 73 61 00 65 6E 67 6C 69 73 68 2D 75 73 00 00
AFE0  65 6E 67 6C 69 73 68 2D 75 6B 00 00 65 6E 67 6C
AFF0  69 73 68 2D 74 72 69 6E 69 64 61 64 20 79 20 74
B000  6F 62 61 67 6F 00 00 00 65 6E 67 6C 69 73 68 2D
B010  73 6F 75 74 68 20 61 66 72 69 63 61 00 00 00 00
B020  65 6E 67 6C 69 73 68 2D 6E 7A 00 00 65 6E 67 6C
B030  69 73 68 2D 6A 61 6D 61 69 63 61 00 65 6E 67 6C
B040  69 73 68 2D 69 72 65 00 65 6E 67 6C 69 73 68 2D
B050  63 61 72 69 62 62 65 61 6E 00 00 00 65 6E 67 6C
B060  69 73 68 2D 63 61 6E 00 65 6E 67 6C 69 73 68 2D
B070  62 65 6C 69 7A 65 00 00 65 6E 67 6C 69 73 68 2D
B080  61 75 73 00 65 6E 67 6C 69 73 68 2D 61 6D 65 72
B090  69 63 61 6E 00 00 00 00 64 75 74 63 68 2D 62 65
B0A0  6C 67 69 61 6E 00 00 00 63 68 69 6E 65 73 65 2D
B0B0  74 72 61 64 69 74 69 6F 6E 61 6C 00 63 68 69 6E
B0C0  65 73 65 2D 73 69 6E 67 61 70 6F 72 65 00 00 00
B0D0  63 68 69 6E 65 73 65 2D 73 69 6D 70 6C 69 66 69
B0E0  65 64 00 00 63 68 69 6E 65 73 65 2D 68 6F 6E 67
B0F0  6B 6F 6E 67 00 00 00 00 63 68 69 6E 65 73 65 00
B100  63 68 69 00 63 68 68 00 63 61 6E 61 64 69 61 6E
B110  00 00 00 00 62 65 6C 67 69 61 6E 00 61 75 73 74
B120  72 61 6C 69 61 6E 00 00 61 6D 65 72 69 63 61 6E
B130  2D 65 6E 67 6C 69 73 68 00 00 00 00 61 6D 65 72
B140  69 63 61 6E 20 65 6E 67 6C 69 73 68 00 00 00 00
B150  61 6D 65 72 69 63 61 6E 00 00 00 00 4F 43 50 00
B160  41 43 50 00 61 2F 70 00 61 6D 2F 70 6D 00 54 5A
B170  00 00 00 00 FF FF FF FF 7C 53 01 78 80 53 01 78
B180  FF FF FF FF 97 53 01 78 9B 53 01 78 2E 63 6F 6D
B190  00 00 00 00 2E 62 61 74 00 00 00 00 2E 63 6D 64
B1A0  00 00 00 00 2E 65 78 65 00 00 00 00 2E 2F 5C 00
B1B0  3F 2A 00 00 2E 00 63 00 6F 00 6D 00 00 00 00 00
B1C0  2E 00 62 00 61 00 74 00 00 00 00 00 2E 00 63 00
B1D0  6D 00 64 00 00 00 00 00 2E 00 65 00 78 00 65 00
B1E0  00 00 00 00 2E 00 2F 00 5C 00 00 00 3F 00 2A 00
B1F0  00 00 00 00 41 63 63 65 73 73 20 76 69 6F 6C 61
B200  74 69 6F 6E 20 2D 20 6E 6F 20 52 54 54 49 20 64
B210  61 74 61 21 00 00 00 00 00 00 00 00 FF FF FF FF
B220  56 83 01 78 6A 83 01 78 42 61 64 20 72 65 61 64
B230  20 70 6F 69 6E 74 65 72 20 2D 20 6E 6F 20 52 54
B240  54 49 20 64 61 74 61 21 00 00 00 00 41 74 74 65
B250  6D 70 74 65 64 20 61 20 74 79 70 65 69 64 20 6F
B260  66 20 4E 55 4C 4C 20 70 6F 69 6E 74 65 72 21 00
B270  00 00 00 00 FF FF FF FF 1C 84 01 78 30 84 01 78
B280  42 61 64 20 64 79 6E 61 6D 69 63 5F 63 61 73 74
B290  21 00 00 00 FF FF FF FF 30 85 01 78 44 85 01 78
B2A0  2E 5C 00 00 5C 00 00 00 50 41 54 48 00 00 00 00
B2B0  2E 00 5C 00 00 00 00 00 5C 00 00 00 50 00 41 00
B2C0  54 00 48 00 00 00 00 00 63 00 6D 00 64 00 2E 00
B2D0  65 00 78 00 65 00 00 00 63 00 6F 00 6D 00 6D 00
B2E0  61 00 6E 00 64 00 2E 00 63 00 6F 00 6D 00 00 00
B2F0  2F 00 63 00 00 00 00 00 43 00 4F 00 4D 00 53 00
B300  50 00 45 00 43 00 00 00 63 6D 64 2E 65 78 65 00
B310  63 6F 6D 6D 61 6E 64 2E 63 6F 6D 00 2F 63 00 00
B320  43 4F 4D 53 50 45 43 00 00 00 00 00 FF FF FF FF
B330  00 00 00 00 89 A1 01 78 FF FF FF FF 00 00 00 00
B340  35 A2 01 78 FF FF FF FF 00 00 00 00 50 A2 01 78
B350  FF FF FF FF 00 00 00 00 50 A2 01 78 FF FF FF FF
B360  00 00 00 00 C3 A3 01 78 FF FF FF FF 00 00 00 00
B370  C3 A3 01 78 FF FF FF FF F9 A4 01 78 FD A4 01 78
B380  43 4F 4E 49 4E 24 00 00 43 4F 4E 4F 55 54 24 00
B390  3A 20 00 00 49 6C 6C 65 67 61 6C 20 62 79 74 65
B3A0  20 73 65 71 75 65 6E 63 65 00 00 00 44 69 72 65
B3B0  63 74 6F 72 79 20 6E 6F 74 20 65 6D 70 74 79 00
B3C0  46 75 6E 63 74 69 6F 6E 20 6E 6F 74 20 69 6D 70
B3D0  6C 65 6D 65 6E 74 65 64 00 00 00 00 4E 6F 20 6C
B3E0  6F 63 6B 73 20 61 76 61 69 6C 61 62 6C 65 00 00
B3F0  46 69 6C 65 6E 61 6D 65 20 74 6F 6F 20 6C 6F 6E
B400  67 00 00 00 52 65 73 6F 75 72 63 65 20 64 65 61
B410  64 6C 6F 63 6B 20 61 76 6F 69 64 65 64 00 00 00
B420  52 65 73 75 6C 74 20 74 6F 6F 20 6C 61 72 67 65
B430  00 00 00 00 44 6F 6D 61 69 6E 20 65 72 72 6F 72
B440  00 00 00 00 42 72 6F 6B 65 6E 20 70 69 70 65 00
B450  54 6F 6F 20 6D 61 6E 79 20 6C 69 6E 6B 73 00 00
B460  52 65 61 64 2D 6F 6E 6C 79 20 66 69 6C 65 20 73
B470  79 73 74 65 6D 00 00 00 49 6E 76 61 6C 69 64 20
B480  73 65 65 6B 00 00 00 00 4E 6F 20 73 70 61 63 65
B490  20 6C 65 66 74 20 6F 6E 20 64 65 76 69 63 65 00
B4A0  46 69 6C 65 20 74 6F 6F 20 6C 61 72 67 65 00 00
B4B0  49 6E 61 70 70 72 6F 70 72 69 61 74 65 20 49 2F
B4C0  4F 20 63 6F 6E 74 72 6F 6C 20 6F 70 65 72 61 74
B4D0  69 6F 6E 00 54 6F 6F 20 6D 61 6E 79 20 6F 70 65
B4E0  6E 20 66 69 6C 65 73 00 54 6F 6F 20 6D 61 6E 79
B4F0  20 6F 70 65 6E 20 66 69 6C 65 73 20 69 6E 20 73
B500  79 73 74 65 6D 00 00 00 49 6E 76 61 6C 69 64 20
B510  61 72 67 75 6D 65 6E 74 00 00 00 00 49 73 20 61
B520  20 64 69 72 65 63 74 6F 72 79 00 00 4E 6F 74 20
B530  61 20 64 69 72 65 63 74 6F 72 79 00 4E 6F 20 73
B540  75 63 68 20 64 65 76 69 63 65 00 00 49 6D 70 72
B550  6F 70 65 72 20 6C 69 6E 6B 00 00 00 46 69 6C 65
B560  20 65 78 69 73 74 73 00 52 65 73 6F 75 72 63 65
B570  20 64 65 76 69 63 65 00 55 6E 6B 6E 6F 77 6E 20
B580  65 72 72 6F 72 00 00 00 42 61 64 20 61 64 64 72
B590  65 73 73 00 50 65 72 6D 69 73 73 69 6F 6E 20 64
B5A0  65 6E 69 65 64 00 00 00 4E 6F 74 20 65 6E 6F 75
B5B0  67 68 20 73 70 61 63 65 00 00 00 00 52 65 73 6F
B5C0  75 72 63 65 20 74 65 6D 70 6F 72 61 72 69 6C 79
B5D0  20 75 6E 61 76 61 69 6C 61 62 6C 65 00 00 00 00
B5E0  4E 6F 20 63 68 69 6C 64 20 70 72 6F 63 65 73 73
B5F0  65 73 00 00 42 61 64 20 66 69 6C 65 20 64 65 73
B600  63 72 69 70 74 6F 72 00 45 78 65 63 20 66 6F 72
B610  6D 61 74 20 65 72 72 6F 72 00 00 00 41 72 67 20
B620  6C 69 73 74 20 74 6F 6F 20 6C 6F 6E 67 00 00 00
B630  4E 6F 20 73 75 63 68 20 64 65 76 69 63 65 20 6F
B640  72 20 61 64 64 72 65 73 73 00 00 00 49 6E 70 75
B650  74 2F 6F 75 74 70 75 74 20 65 72 72 6F 72 00 00
B660  49 6E 74 65 72 72 75 70 74 65 64 20 66 75 6E 63
B670  74 69 6F 6E 20 63 61 6C 6C 00 00 00 4E 6F 20 73
B680  75 63 68 20 70 72 6F 63 65 73 73 00 4E 6F 20 73
B690  75 63 68 20 66 69 6C 65 20 6F 72 20 64 69 72 65
B6A0  63 74 6F 72 79 00 00 00 4F 70 65 72 61 74 69 6F
B6B0  6E 20 6E 6F 74 20 70 65 72 6D 69 74 74 65 64 00
B6C0  4E 6F 20 65 72 72 6F 72 00 00 00 00 FF FF FF FF
B6D0  43 F7 01 78 57 F7 01 78 54 4D 50 00 54 00 4D 00
B6E0  50 00 00 00 31 23 51 4E 41 4E 00 00 31 23 49 4E
B6F0  46 00 00 00 31 23 49 4E 44 00 00 00 31 23 53 4E
B700  41 4E 00 00 00 00 00 00 00 00 00 00 65 2B 30 30
B710  30 00 00 00 00 00 00 00 00 00 F0 3F C0 00 00 00
B720  00 06 00 00 00 00 00 00 00 00 00 40 18 2D 44 54
B730  FB 21 09 40 18 2D 44 54 FB 21 E9 3F 00 00 00 00
B740  00 00 20 40 00 00 00 00 00 00 1E 40 3B 71 F7 BF
B750  88 83 F8 BF C9 B9 F7 BF BE A5 F7 BF 18 CE F7 BF
B760  56 DA F9 BF F7 76 F7 BF A3 94 FA BF F8 D4 F8 BF
B770  D3 5D F9 BF 47 63 F9 BF D1 6F F7 BF 70 57 F7 BF
B780  DA C5 F8 BF 1B 2F F9 BF B1 42 F8 BF FA AB F8 BF
B790  8D B9 F7 BF B2 B9 F7 BF 6B 51 F8 BF AF 0F F9 BF
B7A0  66 6F F7 BF 17 46 F9 BF 08 9F F8 BF 6D E0 F7 BF
B7B0  EC 13 F8 BF F2 C5 F8 BF D3 E1 F9 BF D2 FF F7 BF
B7C0  45 46 F9 BF 88 5A F9 BF 8F 7B F7 BF 57 7B F7 BF
B7D0  C0 64 F7 BF 88 94 FA BF 9A 94 FA BF 10 6F F7 BF
B7E0  C4 6E F7 BF 16 77 F7 BF 92 13 FA BF 0B 16 F9 BF
B7F0  A3 6E F7 BF F2 8B F8 BF CB 41 F8 BF F0 FF F7 BF
B800  E5 6E F7 BF 3C C6 F9 BF 81 58 F7 BF AD 77 F7 BF
B810  CE 7D F7 BF 50 E1 F8 BF 0F 10 F9 BF A8 6D F7 BF
B820  D0 76 F7 BF 81 7D F7 BF AA 5F F9 BF 0D 60 F9 BF
B830  6D 94 FA BF 9F 7D F7 BF BC AB F8 BF 64 94 FA BF
B840  34 DB F9 BF 3D 7D F7 BF BE 94 FA BF 63 7D F7 BF
B850  E2 94 FA BF 4C 2B FA BF 88 94 FA BF 61 43 F7 BF
B860  38 43 F7 BF 47 C9 F9 BF CB 0A FA BF B4 57 F7 BF
B870  08 2D F9 BF 7C 1C FA BF E2 94 FA BF 2C 3E FB BF
B880  0C 7C FB BF C6 20 F8 BF 95 6D FB BF 35 BB F7 BF
B890  BE 94 FA BF 73 0F FA BF D7 13 FA BF B7 EE F9 BF
B8A0  11 7F F7 BF B9 7E F7 BF 0F 7A F7 BF 4C 4B F7 BF
B8B0  5F 4A F8 BF 30 7B F7 BF D5 79 F7 BF AE 79 F7 BF
B8C0  10 7B F7 BF 90 7A F7 BF 17 79 F7 BF 48 49 F8 BF
B8D0  3D 7F F7 BF 68 19 FA BF F5 19 FA BF 7F 94 FA BF
B8E0  88 94 FA BF 6D 94 FA BF 88 94 FA BF BE 94 FA BF
B8F0  88 94 FA BF 6D 94 FA BF 88 94 FA BF 6D 94 FA BF
B900  6D 94 FA BF 44 1A FA BF AB 0A FA BF BD C8 F7 BF
B910  CD E0 F8 BF 41 77 F7 BF 18 95 FA BF AC 94 FA BF
B920  88 94 FA BF 88 94 FA BF 3B 6F F7 BF A6 26 FA BF
B930  DA 26 FA BF 5E 27 FA BF F8 C7 F9 BF 63 26 FA BF
B940  57 0D FA BF E2 C9 F9 BF A9 10 FA BF F3 29 FA BF
B950  A7 29 FA BF 32 2F FA BF 54 C6 F9 BF F0 C6 F9 BF
B960  DB 7A F7 BF 0C 10 FA BF 39 70 F7 BF FD 94 FA BF
B970  34 0D FA BF 9B 71 F7 BF E5 7E F7 BF BD 0F FA BF
B980  D4 71 F7 BF 52 0F FA BF 0E 0F FA BF 00 00 00 00
B990  00 00 00 00 FF FF FF FF 00 00 00 00 AC CC 00 78
B9A0  FF FF FF FF 00 00 00 00 BD CC 00 78 FF FF FF FF
B9B0  00 00 00 00 30 CC 00 78 FF FF FF FF 00 00 00 00
B9C0  38 14 00 78 FF FF FF FF 00 00 00 00 80 A5 01 78
B9D0  FF FF FF FF 00 00 00 00 8C A5 01 78 00 00 00 00
B9E0  00 00 00 00 FF FF FF FF CA 2A 01 78 CE 2A 01 78
B9F0  FF FF FF FF DB 2A 01 78 DF 2A 01 78 FF FF FF FF
BA00  00 00 00 00 95 CE 00 78 FF FF FF FF 00 00 00 00
BA10  C3 CE 00 78 FF FF FF FF AB BF 00 78 BF BF 00 78
BA20  00 00 00 00 FF FF FF FF 00 00 00 00 7F 1B 01 78
BA30  FF FF FF FF 00 00 00 00 FF 1B 01 78 06 00 00 06
BA40  00 01 00 00 10 00 03 06 00 06 02 10 04 45 45 45
BA50  05 05 05 05 05 35 30 00 50 00 00 00 00 20 28 38
BA60  50 58 07 08 00 37 30 30 57 50 07 00 00 20 20 08
BA70  00 00 00 00 08 60 68 60 60 60 60 00 00 70 70 78
BA80  78 78 78 08 07 08 00 00 07 00 08 08 08 00 00 08
BA90  00 08 00 07 08 00 00 00 00 00 00 00 FF FF FF FF
BAA0  39 F3 00 78 3D F3 00 78 4C 43 5F 54 49 4D 45 00
BAB0  4C 43 5F 4E 55 4D 45 52 49 43 00 00 4C 43 5F 4D
BAC0  4F 4E 45 54 41 52 59 00 4C 43 5F 43 54 59 50 45
BAD0  00 00 00 00 4C 43 5F 43 4F 4C 4C 41 54 45 00 00
BAE0  4C 43 5F 41 4C 4C 00 00 2E 00 5F 00 FF FF FF FF
BAF0  45 2C 01 78 49 2C 01 78 FF FF FF FF 5D 2C 01 78
BB00  61 2C 01 78 5F 5F 4D 53 56 43 52 54 5F 48 45 41
BB10  50 5F 53 45 4C 45 43 54 00 00 00 00 FF FF FF FF
BB20  9D F3 00 78 A1 F3 00 78 FF FF FF FF E8 F3 00 78
BB30  EC F3 00 78 49 73 50 72 6F 63 65 73 73 6F 72 46
BB40  65 61 74 75 72 65 50 72 65 73 65 6E 74 00 00 00
BB50  4B 45 52 4E 45 4C 33 32 00 00 00 00 FF FF FF FF
BB60  9A 39 01 78 9E 39 01 78 00 00 00 00 FF FF FF FF
BB70  51 39 01 78 55 39 01 78 48 3A 6D 6D 3A 73 73 00
BB80  64 64 64 64 2C 20 4D 4D 4D 4D 20 64 64 2C 20 79
BB90  79 79 79 00 4D 2F 64 2F 79 79 00 00 50 4D 00 00
BBA0  41 4D 00 00 44 65 63 65 6D 62 65 72 00 00 00 00
BBB0  4E 6F 76 65 6D 62 65 72 00 00 00 00 4F 63 74 6F
BBC0  62 65 72 00 53 65 70 74 65 6D 62 65 72 00 00 00
BBD0  41 75 67 75 73 74 00 00 4A 75 6C 79 00 00 00 00
BBE0  4A 75 6E 65 00 00 00 00 41 70 72 69 6C 00 00 00
BBF0  4D 61 72 63 68 00 00 00 46 65 62 72 75 61 72 79
BC00  00 00 00 00 4A 61 6E 75 61 72 79 00 44 65 63 00
BC10  4E 6F 76 00 4F 63 74 00 53 65 70 00 41 75 67 00
BC20  4A 75 6C 00 4A 75 6E 00 4D 61 79 00 41 70 72 00
BC30  4D 61 72 00 46 65 62 00 4A 61 6E 00 53 61 74 75
BC40  72 64 61 79 00 00 00 00 46 72 69 64 61 79 00 00
BC50  54 68 75 72 73 64 61 79 00 00 00 00 57 65 64 6E
BC60  65 73 64 61 79 00 00 00 54 75 65 73 64 61 79 00
BC70  4D 6F 6E 64 61 79 00 00 53 75 6E 64 61 79 00 00
BC80  53 61 74 00 46 72 69 00 54 68 75 00 57 65 64 00
BC90  54 75 65 00 4D 6F 6E 00 53 75 6E 00 3D 00 3B 00
BCA0  6E 65 77 5F 70 20 3D 3D 20 30 00 00 73 65 74 6E
BCB0  65 77 68 2E 63 70 70 00 A8 EA 02 78 A0 EA 02 78
BCC0  94 EA 02 78 88 EA 02 78 7C EA 02 78 70 EA 02 78
BCD0  64 EA 02 78 5C EA 02 78 50 EA 02 78 4D EA 02 78
BCE0  48 EA 02 78 40 EA 02 78 50 E5 02 78 3C EA 02 78
BCF0  38 EA 02 78 36 EA 02 78 32 EA 02 78 2E EA 02 78
BD00  2A EA 02 78 20 EA 02 78 1C EA 02 78 1A EA 02 78
BD10  16 EA 02 78 12 EA 02 78 10 EA 02 78 0E EA 02 78
BD20  0C EA 02 78 08 EA 02 78 06 EA 02 78 04 EA 02 78
BD30  02 EA 02 78 FE E9 02 78 FC E9 02 78 F8 E9 02 78
BD40  F6 E9 02 78 F2 E9 02 78 F0 E9 02 78 EE E9 02 78
BD50  EC E9 02 78 E8 E9 02 78 E4 E9 02 78 E0 E9 02 78
BD60  DC E9 02 78 D8 E9 02 78 D4 E9 02 78 D0 E9 02 78
BD70  CC E9 02 78 C8 E9 02 78 C2 E9 02 78 BE E9 02 78
BD80  BA E9 02 78 B0 E9 02 78 A4 E9 02 78 9C E9 02 78
BD90  90 E9 02 78 78 E9 02 78 6C E9 02 78 58 E9 02 78
BDA0  38 E9 02 78 18 E9 02 78 F8 E8 02 78 D8 E8 02 78
BDB0  B8 E8 02 78 94 E8 02 78 78 E8 02 78 54 E8 02 78
BDC0  34 E8 02 78 0C E8 02 78 F0 E7 02 78 E0 E7 02 78
BDD0  DC E7 02 78 D4 E7 02 78 C4 E7 02 78 A0 E7 02 78
BDE0  98 E7 02 78 8C E7 02 78 7C E7 02 78 60 E7 02 78
BDF0  40 E7 02 78 4D EA 02 78 2C E7 02 78 10 E7 02 78
BE00  FC E6 02 78 DC E6 02 78 C0 E6 02 78 20 43 6F 6D
BE10  70 6C 65 74 65 20 4F 62 6A 65 63 74 20 4C 6F 63
BE20  61 74 6F 72 27 00 00 00 20 43 6C 61 73 73 20 48
BE30  69 65 72 61 72 63 68 79 20 44 65 73 63 72 69 70
BE40  74 6F 72 27 00 00 00 00 20 42 61 73 65 20 43 6C
BE50  61 73 73 20 41 72 72 61 79 27 00 00 20 42 61 73
BE60  65 20 43 6C 61 73 73 20 44 65 73 63 72 69 70 74
BE70  6F 72 20 61 74 20 28 00 20 54 79 70 65 20 44 65
BE80  73 63 72 69 70 74 6F 72 27 00 00 00 60 70 6C 61
BE90  63 65 6D 65 6E 74 20 64 65 6C 65 74 65 5B 5D 20
BEA0  63 6C 6F 73 75 72 65 27 00 00 00 00 60 70 6C 61
BEB0  63 65 6D 65 6E 74 20 64 65 6C 65 74 65 20 63 6C
BEC0  6F 73 75 72 65 27 00 00 60 6F 6D 6E 69 20 63 61
BED0  6C 6C 73 69 67 27 00 00 20 64 65 6C 65 74 65 5B
BEE0  5D 00 00 00 20 6E 65 77 5B 5D 00 00 60 6C 6F 63
BEF0  61 6C 20 76 66 74 61 62 6C 65 20 63 6F 6E 73 74
BF00  72 75 63 74 6F 72 20 63 6C 6F 73 75 72 65 27 00
BF10  60 6C 6F 63 61 6C 20 76 66 74 61 62 6C 65 27 00
BF20  60 52 54 54 49 00 00 00 60 45 48 00 60 75 64 74
BF30  20 72 65 74 75 72 6E 69 6E 67 27 00 60 63 6F 70
BF40  79 20 63 6F 6E 73 74 72 75 63 74 6F 72 20 63 6C
BF50  6F 73 75 72 65 27 00 00 60 65 68 20 76 65 63 74
BF60  6F 72 20 76 62 61 73 65 20 63 6F 6E 73 74 72 75
BF70  63 74 6F 72 20 69 74 65 72 61 74 6F 72 27 00 00
BF80  60 65 68 20 76 65 63 74 6F 72 20 64 65 73 74 72
BF90  75 63 74 6F 72 20 69 74 65 72 61 74 6F 72 27 00
BFA0  60 65 68 20 76 65 63 74 6F 72 20 63 6F 6E 73 74
BFB0  72 75 63 74 6F 72 20 69 74 65 72 61 74 6F 72 27
BFC0  00 00 00 00 60 76 69 72 74 75 61 6C 20 64 69 73
BFD0  70 6C 61 63 65 6D 65 6E 74 20 6D 61 70 00 00 00
BFE0  60 76 65 63 74 6F 72 20 76 62 61 73 65 20 63 6F
BFF0  6E 73 74 72 75 63 74 6F 72 20 69 74 65 72 61 74
C000  6F 72 27 00 60 76 65 63 74 6F 72 20 64 65 73 74
C010  72 75 63 74 6F 72 20 69 74 65 72 61 74 6F 72 27
C020  00 00 00 00 60 76 65 63 74 6F 72 20 63 6F 6E 73
C030  74 72 75 63 74 6F 72 20 69 74 65 72 61 74 6F 72
C040  27 00 00 00 60 73 63 61 6C 61 72 20 64 65 6C 65
C050  74 69 6E 67 20 64 65 73 74 72 75 63 74 6F 72 27
C060  00 00 00 00 60 64 65 66 61 75 6C 74 20 63 6F 6E
C070  73 74 72 75 63 74 6F 72 20 63 6C 6F 73 75 72 65
C080  27 00 00 00 60 76 65 63 74 6F 72 20 64 65 6C 65
C090  74 69 6E 67 20 64 65 73 74 72 75 63 74 6F 72 27
C0A0  00 00 00 00 60 76 62 61 73 65 20 64 65 73 74 72
C0B0  75 63 74 6F 72 27 00 00 60 73 74 72 69 6E 67 27
C0C0  00 00 00 00 60 6C 6F 63 61 6C 20 73 74 61 74 69
C0D0  63 20 67 75 61 72 64 27 00 00 00 00 60 74 79 70
C0E0  65 6F 66 27 00 00 00 00 60 76 63 61 6C 6C 27 00
C0F0  60 76 62 74 61 62 6C 65 27 00 00 00 60 76 66 74
C100  61 62 6C 65 27 00 5E 3D 00 00 7C 3D 00 00 26 3D
C110  00 00 00 00 3C 3C 3D 00 3E 3E 3D 00 25 3D 00 00
C120  2F 3D 00 00 2D 3D 00 00 2B 3D 00 00 2A 3D 00 00
C130  7C 7C 00 00 26 26 00 00 7C 00 5E 00 7E 00 28 29
C140  00 00 2C 00 3E 3D 00 00 3E 00 3C 3D 00 00 3C 00
C150  25 00 2F 00 2D 3E 2A 00 26 00 2B 00 2D 00 2D 2D
C160  00 00 2B 2B 00 00 2A 00 2D 3E 00 00 6F 70 65 72
C170  61 74 6F 72 00 00 5B 5D 00 00 21 3D 00 00 3D 3D
C180  00 00 21 00 3C 3C 00 00 3E 3E 00 00 20 64 65 6C
C190  65 74 65 00 20 6E 65 77 00 00 00 00 5F 5F 72 65
C1A0  73 74 72 69 63 74 00 00 5F 5F 70 74 72 36 34 00
C1B0  5F 5F 63 6F 6D 33 63 61 6C 6C 00 00 5F 5F 66 61
C1C0  73 74 63 61 6C 6C 00 00 5F 5F 74 68 69 73 63 61
C1D0  6C 6C 00 00 5F 5F 73 74 64 63 61 6C 6C 00 00 00
C1E0  5F 5F 70 61 73 63 61 6C 00 00 00 00 5F 5F 63 64
C1F0  65 63 6C 00 5F 5F 62 61 73 65 64 28 00 00 00 00
C200  43 56 3A 20 00 00 3A 3A 00 00 00 00 60 61 6E 6F
C210  6E 79 6D 6F 75 73 20 6E 61 6D 65 73 70 61 63 65
C220  27 00 00 00 76 6F 69 64 00 00 27 00 60 74 65 6D
C230  70 6C 61 74 65 2D 70 61 72 61 6D 65 74 65 72 00
C240  4E 55 4C 4C 00 00 00 00 5B 74 68 75 6E 6B 5D 3A
C250  00 00 00 00 70 75 62 6C 69 63 3A 20 00 00 00 00
C260  70 72 6F 74 65 63 74 65 64 3A 20 00 70 72 69 76
C270  61 74 65 3A 20 00 00 00 76 69 72 74 75 61 6C 20
C280  00 00 00 00 73 74 61 74 69 63 20 00 60 74 65 6D
C290  70 6C 61 74 65 20 73 74 61 74 69 63 20 64 61 74
C2A0  61 20 6D 65 6D 62 65 72 20 64 65 73 74 72 75 63
C2B0  74 6F 72 20 68 65 6C 70 65 72 27 00 60 74 65 6D
C2C0  70 6C 61 74 65 20 73 74 61 74 69 63 20 64 61 74
C2D0  61 20 6D 65 6D 62 65 72 20 63 6F 6E 73 74 72 75
C2E0  63 74 6F 72 20 68 65 6C 70 65 72 27 00 00 00 00
C2F0  60 6C 6F 63 61 6C 20 73 74 61 74 69 63 20 64 65
C300  73 74 72 75 63 74 6F 72 20 68 65 6C 70 65 72 27
C310  00 00 7D 27 00 00 00 00 60 61 64 6A 75 73 74 6F
C320  72 7B 00 00 60 76 74 6F 72 64 69 73 70 7B 00 00
C330  20 00 00 00 7D 27 20 00 29 20 00 00 76 6F 69 64
C340  20 00 00 00 76 6F 6C 61 74 69 6C 65 00 00 00 00
C350  2E 2E 2E 00 2C 2E 2E 2E 00 00 00 00 20 74 68 72
C360  6F 77 28 00 20 76 6F 6C 61 74 69 6C 65 00 00 00
C370  63 6F 6E 73 74 00 00 00 73 69 67 6E 65 64 20 00
C380  55 4E 4B 4E 4F 57 4E 00 77 63 68 61 72 5F 74 00
C390  5F 5F 69 6E 74 31 32 38 00 00 00 00 5F 5F 69 6E
C3A0  74 36 34 00 5F 5F 69 6E 74 33 32 00 5F 5F 69 6E
C3B0  74 31 36 00 5F 5F 69 6E 74 38 00 00 62 6F 6F 6C
C3C0  00 00 00 00 75 6E 73 69 67 6E 65 64 20 00 00 00
C3D0  64 6F 75 62 6C 65 00 00 6C 6F 6E 67 20 00 00 00
C3E0  66 6C 6F 61 74 00 00 00 6C 6F 6E 67 00 00 00 00
C3F0  69 6E 74 00 73 68 6F 72 74 00 00 00 63 68 61 72
C400  00 00 00 00 60 75 6E 6B 6E 6F 77 6E 20 65 63 73
C410  75 27 00 00 75 6E 69 6F 6E 20 00 00 73 74 72 75
C420  63 74 20 00 63 6C 61 73 73 20 00 00 65 6E 75 6D
C430  20 00 00 00 69 6E 74 20 00 00 00 00 73 68 6F 72
C440  74 20 00 00 63 68 61 72 20 00 00 00 63 6F 6E 73
C450  74 20 00 00 76 6F 6C 61 74 69 6C 65 20 00 29 5B
C460  00 00 00 00 7B 66 6C 61 74 7D 00 00 73 20 00 00
C470  7B 66 6F 72 20 00 00 00 0C EE 00 78 0C EE 00 78
C480  0C EE 00 78 35 A1 00 78 39 A1 00 78 3D A1 00 78
C490  C1 A1 00 78 C5 A1 00 78 D7 A1 00 78 39 A2 00 78
C4A0  49 A2 00 78 59 A2 00 78 A8 A2 00 78 AC A2 00 78
C4B0  BB A2 00 78 20 3F 3F 20 00 00 00 00 FF FF FF FF
C4C0  E3 A6 00 78 ED A6 00 78 00 00 00 00 FF FF FF FF
C4D0  00 00 00 00 68 A8 00 78 00 00 00 00 46 A8 00 78
C4E0  50 A8 00 78 FF FF FF FF 97 AA 00 78 9B AA 00 78
C4F0  00 00 00 00 FF FF FF FF 5A AB 00 78 63 AB 00 78
C500  00 00 00 00 FF FF FF FF 00 00 00 00 9E AB 00 78
C510  00 00 00 00 8E AB 00 78 92 AB 00 78 FF FF FF FF
C520  00 00 00 00 15 AC 00 78 00 00 00 00 0C AC 00 78
C530  10 AC 00 78 63 73 6D E0 01 00 00 00 00 00 00 00
C540  00 00 00 00 03 00 00 00 20 05 93 19 00 00 00 00
C550  00 00 00 00 D0 01 03 78 9E B1 00 78 E8 01 03 78
C560  C3 AF 00 78 FB CA 00 78 38 02 03 78 72 B0 00 78
C570  FB CA 00 78 88 02 03 78 2A B1 00 78 FB CA 00 78
C580  72 75 6E 74 69 6D 65 20 65 72 72 6F 72 20 00 00
C590  0D 0A 00 00 54 4C 4F 53 53 20 65 72 72 6F 72 0D
C5A0  0A 00 00 00 53 49 4E 47 20 65 72 72 6F 72 0D 0A
C5B0  00 00 00 00 44 4F 4D 41 49 4E 20 65 72 72 6F 72
C5C0  0D 0A 00 00 52 36 30 32 38 0D 0A 2D 20 75 6E 61
C5D0  62 6C 65 20 74 6F 20 69 6E 69 74 69 61 6C 69 7A
C5E0  65 20 68 65 61 70 0D 0A 00 00 00 00 52 36 30 32
C5F0  37 0D 0A 2D 20 6E 6F 74 20 65 6E 6F 75 67 68 20
C600  73 70 61 63 65 20 66 6F 72 20 6C 6F 77 69 6F 20
C610  69 6E 69 74 69 61 6C 69 7A 61 74 69 6F 6E 0D 0A
C620  00 00 00 00 52 36 30 32 36 0D 0A 2D 20 6E 6F 74
C630  20 65 6E 6F 75 67 68 20 73 70 61 63 65 20 66 6F
C640  72 20 73 74 64 69 6F 20 69 6E 69 74 69 61 6C 69
C650  7A 61 74 69 6F 6E 0D 0A 00 00 00 00 52 36 30 32
C660  35 0D 0A 2D 20 70 75 72 65 20 76 69 72 74 75 61
C670  6C 20 66 75 6E 63 74 69 6F 6E 20 63 61 6C 6C 0D
C680  0A 00 00 00 52 36 30 32 34 0D 0A 2D 20 6E 6F 74
C690  20 65 6E 6F 75 67 68 20 73 70 61 63 65 20 66 6F
C6A0  72 20 5F 6F 6E 65 78 69 74 2F 61 74 65 78 69 74
C6B0  20 74 61 62 6C 65 0D 0A 00 00 00 00 52 36 30 31
C6C0  39 0D 0A 2D 20 75 6E 61 62 6C 65 20 74 6F 20 6F
C6D0  70 65 6E 20 63 6F 6E 73 6F 6C 65 20 64 65 76 69
C6E0  63 65 0D 0A 00 00 00 00 52 36 30 31 38 0D 0A 2D
C6F0  20 75 6E 65 78 70 65 63 74 65 64 20 68 65 61 70
C700  20 65 72 72 6F 72 0D 0A 00 00 00 00 52 36 30 31
C710  37 0D 0A 2D 20 75 6E 65 78 70 65 63 74 65 64 20
C720  6D 75 6C 74 69 74 68 72 65 61 64 20 6C 6F 63 6B
C730  20 65 72 72 6F 72 0D 0A 00 00 00 00 52 36 30 31
C740  36 0D 0A 2D 20 6E 6F 74 20 65 6E 6F 0C E0 FC 7F
C750  00 00 00 00 C0 42 CB 7F 01 24 00 00 08 22 CB 7F
C760  EE FF FF FF 2D 00 00 00 50 01 00 B0 B0 42 CB 7F
C770  06 24 00 00 08 11 D3 7F 00 00 00 00 1E 00 00 00
C780  50 00 00 A8 D0 42 CB 7F 00 24 00 00 F8 10 D3 7F
C790  00 00 00 00 0F 00 00 00 50 01 00 B0 90 26 CD 7F
C7A0  01 00 00 00 84 D1 54 00 08 D1 54 00 78 D2 54 00
C7B0  00 00 00 00 50 80 D3 7F 00 78 9A C2 3A 1F 00 00
C7C0  E8 73 CB 7F 01 00 00 00 04 00 00 00 03 00 00 00
C7D0  08 80 D3 7F 00 00 00 00 A0 2B C5 C1 00 00 00 00
C7E0  00 00 00 00 D0 45 CB 7F 00 00 00 00 3A 2E 00 00
C7F0  90 47 CB 7F FF FF FF FF 04 00 00 00 02 00 00 00
C800  10 E1 CB 7F 00 00 00 00 00 00 00 00 00 00 00 00
C810  00 00 00 00 E8 73 CB 7F 30 73 CC 7F 90 47 CB 7F
C820  D0 D5 CC 7F 00 00 00 00 00 00 00 00 00 00 00 00
C830  00 00 00 00 00 00 00 00 00 00 00 00 00 00 00 00
C840  00 00 00 00 00 00 00 00 00 00 00 00 00 00 00 00
C850  00 00 00 00 00 00 00 00 00 00 00 00 00 00 00 00
C860  00 00 00 00 00 00 00 00 00 00 00 00 20 B2 AD 82
C870  00 00 00 00 00 00 00 00 00 00 00 00 00 00 00 00
C880  00 00 00 00 00 00 00 00 00 00 00 00 00 00 00 00
C890  00 00 00 00 00 00 00 00 00 00 00 00 00 00 00 00
C8A0  00 00 00 00 00 00 00 00 00 00 00 00 00 00 00 00
C8B0  00 00 00 00 00 00 00 00 00 00 00 00 98 81 D3 7F
C8C0  00 00 00 00 3A 6F 00 00 D0 D5 CC 7F 01 00 00 00
C8D0  04 00 00 00 00 00 00 00 00 00 00 00 00 00 00 00
C8E0  00 00 00 00 80 FE D2 7F 00 00 00 00 00 00 00 00
C8F0  00 00 00 00 00 00 00 00 00 00 00 00 00 A7 C6 C1
C900  D0 A6 C6 C1 00 00 CB 7F 00 00 00 00 1C 00 00 00
C910  23 08 00 00 00 00 00 00 00 00 00 00 00 00 00 00
C920  01 00 00 00 0A 00 00 00 00 00 00 00 00 00 00 00
C930  00 00 00 00 00 00 00 00 00 00 00 00 00 00 00 00
C940  00 00 00 00 00 00 00 00 00 00 00 00 00 00 00 00
C950  00 00 00 00 00 00 00 00 00 00 00 00 00 00 00 00
C960  00 00 00 00 00 00 00 00 00 00 00 00 00 00 00 00
C970  00 00 00 00 00 00 00 00 00 00 00 00 00 00 00 00
C980  00 00 00 00 00 00 00 00 00 00 00 00 00 00 00 00
C990  00 00 00 00 0D 37 F5 BF BF 33 F5 BF 68 33 F5 BF
C9A0  0C 33 F5 BF 2E 33 F5 BF F6 52 F5 BF 01 00 00 00
C9B0  00 00 00 00 01 00 00 00 00 00 F2 7F 78 F5 F4 7F
C9C0  9B A5 F3 7F 4E 75 F4 7F 29 F5 F4 7F 01 00 00 00
C9D0  A8 82 F4 7F E0 88 F5 7F D8 7F F3 7F 00 5E F7 7F
C9E0  00 4E F4 7F 1F 6F F7 7F 6A 34 F7 7F 71 9E F3 7F
C9F0  50 40 F4 7F E4 04 00 00 00 00 00 00 00 00 00 00
CA00  00 00 00 00 00 00 00 00 00 00 00 00 00 00 00 00
CA10  00 00 00 00 00 00 00 00 00 00 00 00 00 00 00 00
CA20  00 00 00 00 00 00 00 00 00 00 00 00 00 00 00 00
CA30  00 00 00 00 00 00 00 00 00 00 00 00 00 00 00 00
CA40  00 00 00 00 00 00 00 00 00 00 00 00 00 00 00 00
CA50  00 00 00 00 00 00 00 00 00 00 00 00 00 00 00 00
CA60  00 00 00 00 00 00 00 00 00 00 00 00 00 00 00 00
CA70  00 00 00 00 00 00 00 00 00 00 00 00 00 00 00 00
CA80  00 00 00 00 00 00 00 00 00 00 00 00 00 00 00 00
CA90  00 00 00 00 00 00 00 00 00 00 00 00 00 00 00 00
CAA0  00 00 00 00 00 00 00 00 00 00 00 00 00 00 00 00
CAB0  00 00 00 00 00 00 00 00 00 00 00 00 00 00 00 00
CAC0  00 00 00 00 00 00 00 00 00 00 00 00 00 00 00 00
CAD0  00 00 00 00 00 00 00 00 00 00 00 00 00 00 00 00
CAE0  00 00 00 00 00 00 00 00 00 00 00 00 00 00 00 00
CAF0  00 00 00 00 00 00 00 00 00 00 00 00 00 00 00 00
CB00  00 00 00 00 00 00 00 00 00 00 00 00 00 00 00 00
CB10  00 00 00 00 10 73 CC 7F 00 00 00 00 3A 4D 00 00
CB20  30 73 CC 7F 01 00 00 00 04 00 00 00 00 00 00 00
CB30  00 00 00 00 00 00 00 00 00 00 00 00 00 00 00 00
CB40  00 00 00 00 00 00 00 00 00 00 00 00 00 00 00 00
CB50  00 00 00 00 00 00 00 00 00 00 00 00 00 00 00 00
CB60  00 00 00 00 00 00 00 00 00 00 00 00 00 00 00 00
CB70  00 00 00 00 00 00 00 00 00 00 00 00 00 00 00 00
CB80  00 00 00 00 00 00 00 00 00 00 00 00 00 00 00 00
CB90  00 00 00 00 00 00 00 00 00 00 00 00 00 00 00 00
CBA0  FF FF FF FF 00 00 00 00 00 00 00 00 00 00 00 00
CBB0  00 00 00 00 00 00 00 00 00 00 00 00 00 00 00 00
CBC0  00 00 00 00 00 00 00 00 00 00 00 00 00 00 00 00
CBD0  00 00 00 00 00 00 00 00 00 00 00 00 00 00 00 00
CBE0  00 00 00 00 00 00 00 00 00 00 00 00 00 00 00 00
CBF0  00 00 00 00 00 00 00 00 00 00 00 00 00 00 00 00
CC00  00 00 00 00 53 4C 30 31 65 30 01 00 00 00 00 00
CC10  60 9C 7E 80 4C 42 30 31 00 00 00 00 00 00 00 00
CC20  00 00 00 00 D0 FF FF FF 53 6D 61 67 4C 53 30 31
CC30  0F E5 02 00 7C FA 7C 80 4C 42 30 31 00 00 00 00
CC40  00 00 00 00 00 00 00 00 28 00 00 00 48 00 00 00
CC50  53 6D 61 67 33 C9 8A 4D FC 8B 14 8D 7C FA 7C 80
CC60  B8 D9 27 F7 BF FF E0 CC CC CC CC CC CC CC CC CC
CC70  CC CC CC CC 0F B6 D1 8B 14 95 7C FA 7C 80 68 8D
CC80  26 F7 BF C3 CC CC CC CC CC CC CC CC CC CC CC CC
CC90  CC CC CC CC 00 00 00 00 00 00 00 00 00 00 00 00
CCA0  00 00 00 00 00 00 00 00 00 00 00 00 00 00 00 00
CCB0  00 00 00 00 00 00 00 00 00 00 00 00 00 00 00 00
CCC0  00 00 00 00 00 00 00 00 00 00 00 00 00 00 00 00
CCD0  00 00 00 00 00 00 00 00 00 00 00 00 00 00 00 00
CCE0  00 00 00 00 00 00 00 00 00 00 00 00 00 00 00 00
CCF0  00 00 00 00 00 00 00 00 00 00 00 00 00 00 00 00
CD00  00 00 00 00 00 00 00 00 00 00 00 00 00 00 00 00
CD10  00 00 00 00 00 00 00 00 00 00 00 00 00 00 00 00
CD20  00 00 00 00 00 00 00 00 00 00 00 00 00 00 00 00
CD30  00 00 00 00 00 00 00 00 00 00 00 00 00 00 00 00
CD40  00 00 00 00 00 00 00 00 00 00 00 00 00 00 00 00
CD50  00 00 00 00 00 00 00 00 00 00 00 00 00 00 00 00
CD60  00 00 00 00 00 00 00 00 00 00 00 00 00 00 00 00
CD70  00 00 00 00 00 00 00 00 00 00 00 00 00 00 00 00
CD80  00 00 00 00 00 00 00 00 00 00 00 00 00 00 00 00
CD90  00 00 00 00 00 00 00 00 00 00 00 00 00 00 00 00
CDA0  00 00 00 00 00 00 00 00 00 00 00 00 00 00 00 00
CDB0  00 00 00 00 00 00 00 00 00 00 00 00 00 00 00 00
CDC0  00 00 00 00 00 00 00 00 00 00 00 00 00 00 00 00
CDD0  00 00 00 00 00 00 00 00 00 00 00 00 00 00 00 00
CDE0  00 00 00 00 00 00 00 00 00 00 00 00 00 00 00 00
CDF0  00 00 00 00 00 00 00 00 00 00 00 00 00 00 00 00
CE00  00 00 00 00 00 00 00 00 00 00 00 00 00 00 00 00
CE10  00 00 00 00 00 00 00 00 00 00 00 00 00 00 00 00
CE20  00 00 00 00 00 00 00 00 00 00 00 00 00 00 00 00
CE30  00 00 00 00 00 00 00 00 00 00 00 00 00 00 00 00
CE40  00 00 00 00 00 00 00 00 00 00 00 00 00 00 00 00
CE50  00 00 00 00 00 00 00 00 00 00 00 00 00 00 00 00
CE60  00 00 00 00 00 00 00 00 00 00 00 00 00 00 00 00
CE70  00 00 00 00 00 00 00 00 00 00 00 00 00 00 00 00
CE80  00 00 00 00 00 00 00 00 00 00 00 00 00 00 00 00
CE90  00 00 00 00 00 00 00 00 00 00 00 00 00 00 00 00
CEA0  00 00 00 00 00 00 00 00 00 00 00 00 00 00 00 00
CEB0  00 00 00 00 00 00 00 00 00 00 00 00 00 00 00 00
CEC0  00 00 00 00 00 00 00 00 00 00 00 00 00 00 00 00
CED0  00 00 00 00 00 00 00 00 00 00 00 00 00 00 00 00
CEE0  00 00 00 00 00 00 00 00 00 00 00 00 00 00 00 00
CEF0  00 00 00 00 00 00 00 00 00 00 00 00 00 00 00 00
CF00  00 00 00 00 00 00 00 00 00 00 00 00 00 00 00 00
CF10  00 00 00 00 00 00 00 00 00 00 00 00 00 00 00 00
CF20  00 00 00 00 00 00 00 00 00 00 00 00 00 00 00 00
CF30  00 00 00 00 00 00 00 00 00 00 00 00 00 00 00 00
CF40  00 00 00 00 00 00 00 00 00 00 00 00 00 00 00 00
CF50  00 00 00 00 00 00 00 00 00 00 00 00 00 00 00 00
CF60  00 00 00 00 00 00 00 00 00 00 00 00 00 00 00 00
CF70  00 00 00 00 00 00 00 00 00 00 00 00 00 00 00 00
CF80  00 00 00 00 00 00 00 00 00 00 00 00 00 00 00 00
CF90  00 00 00 00 00 00 00 00 00 00 00 00 00 00 00 00
CFA0  00 00 00 00 00 00 00 00 00 00 00 00 00 00 00 00
CFB0  00 00 00 00 00 00 00 00 00 00 00 00 00 00 00 00
CFC0  00 00 00 00 00 00 00 00 00 00 00 00 00 00 00 00
CFD0  00 00 00 00 00 00 00 00 00 00 00 00 00 00 00 00
CFE0  00 00 00 00 00 00 00 00 00 00 00 00 00 00 00 00
CFF0  00 00 00 00 00 00 00 00 00 00 00 00 00 00 00 00
D000  00 00 00 00 00 00 00 00 00 00 00 00 00 00 00 00
D010  00 00 00 00 00 00 00 00 00 00 00 00 00 00 00 00
D020  00 00 00 00 00 00 00 00 00 00 00 00 00 00 00 00
D030  00 00 00 00 00 00 00 00 00 00 00 00 00 00 00 00
D040  00 00 00 00 00 00 00 00 00 00 00 00 00 00 00 00
D050  00 00 00 00 00 00 00 00 00 00 00 00 00 00 00 00
D060  00 00 00 00 00 00 00 00 00 00 00 00 00 00 00 00
D070  00 00 00 00 00 00 00 00 00 00 00 00 00 00 00 00
D080  00 00 00 00 00 00 00 00 00 00 00 00 00 00 00 00
D090  00 00 00 00 00 00 00 00 00 00 00 00 00 00 00 00
D0A0  00 00 00 00 FF FF FF FF 00 00 00 00 00 00 00 00
D0B0  00 00 00 00 00 00 00 00 00 00 00 00 00 00 00 00
D0C0  00 00 00 00 00 00 00 00 00 00 00 00 00 00 00 00
D0D0  00 00 00 00 00 00 00 00 00 00 00 00 00 00 00 00
D0E0  00 00 00 00 00 00 00 00 00 00 00 00 00 00 00 00
D0F0  00 00 00 00 00 00 00 00 00 00 00 00 00 00 00 00
D100  00 00 00 00 00 00 00 00 00 00 00 00 00 00 00 00
D110  00 00 00 00 00 00 00 00 00 00 00 00 00 00 00 00
D120  00 00 00 00 00 00 00 00 00 00 00 00 00 00 00 00
D130  00 00 00 00 00 00 00 00 00 00 00 00 00 00 00 00
D140  00 00 00 00 00 00 00 00 00 00 00 00 00 00 00 00
D150  00 00 00 00 00 00 00 00 00 00 00 00 00 00 00 00
D160  00 00 00 00 00 00 00 00 00 00 00 00 00 00 00 00
D170  00 00 00 00 00 00 00 00 00 00 00 00 00 00 00 00
D180  00 00 00 00 00 00 00 00 00 00 00 00 00 00 00 00
D190  00 00 00 00 00 00 00 00 00 00 00 00 00 00 00 00
D1A0  00 00 00 00 00 00 00 00 00 00 00 00 00 00 00 00
D1B0  00 00 00 00 00 00 00 00 00 00 00 00 00 00 00 00
D1C0  00 00 00 00 00 00 00 00 00 00 00 00 00 00 00 00
D1D0  00 00 00 00 00 00 00 00 00 00 00 00 00 00 00 00
D1E0  00 00 00 00 00 00 00 00 00 00 00 00 00 00 00 00
D1F0  00 00 00 00 00 00 00 00 00 00 00 00 00 00 00 00
D200  00 00 00 00 00 00 00 00 00 00 00 00 00 00 00 00
D210  00 00 00 00 00 00 00 00 00 00 00 00 00 00 00 00
D220  00 00 00 00 00 00 00 00 00 00 00 00 00 00 00 00
D230  00 00 00 00 00 00 00 00 00 00 00 00 00 00 00 00
D240  00 00 00 00 00 00 00 00 00 00 00 00 00 00 00 00
D250  00 00 00 00 00 00 00 00 00 00 00 00 00 00 00 00
D260  00 00 00 00 00 00 00 00 00 00 00 00 00 00 00 00
D270  00 00 00 00 00 00 00 00 00 00 00 00 00 00 00 00
D280  00 00 00 00 00 00 00 00 00 00 00 00 00 00 00 00
D290  00 00 00 00 00 00 00 00 00 00 00 00 00 00 00 00
D2A0  00 00 00 00 00 00 00 00 00 00 00 00 00 00 00 00
D2B0  00 00 00 00 00 00 00 00 00 00 00 00 00 00 00 00
D2C0  00 00 00 00 00 00 00 00 00 00 00 00 00 00 00 00
D2D0  00 00 00 00 00 00 00 00 00 00 00 00 00 00 00 00
D2E0  00 00 00 00 00 00 00 00 00 00 00 00 00 00 00 00
D2F0  00 00 00 00 00 00 00 00 00 00 00 00 00 00 00 00
D300  00 00 00 00 00 00 00 00 00 00 00 00 00 00 00 00
D310  00 00 00 00 00 00 00 00 00 00 00 00 00 00 00 00
D320  00 00 00 00 00 00 00 00 00 00 00 00 00 00 00 00
D330  00 00 00 00 00 00 00 00 00 00 00 00 00 00 00 00
D340  00 00 00 00 00 00 00 00 00 00 00 00 00 00 00 00
D350  00 00 00 00 00 00 00 00 00 00 00 00 00 00 00 00
D360  00 00 00 00 00 00 00 00 00 00 00 00 00 00 00 00
D370  00 00 00 00 00 00 00 00 00 00 00 00 00 00 00 00
D380  00 00 00 00 00 00 00 00 00 00 00 00 00 00 00 00
D390  00 00 00 00 00 00 00 00 00 00 00 00 00 00 00 00
D3A0  00 00 00 00 00 00 00 00 00 00 00 00 00 00 00 00
D3B0  00 00 00 00 00 00 00 00 00 00 00 00 00 00 00 00
D3C0  00 00 00 00 00 00 00 00 00 00 00 00 00 00 00 00
D3D0  00 00 00 00 00 00 00 00 00 00 00 00 00 00 00 00
D3E0  00 00 00 00 00 00 00 00 00 00 00 00 00 00 00 00
D3F0  00 00 00 00 00 00 00 00 00 00 00 00 00 00 00 00
D400  00 00 00 00 00 00 00 00 00 00 00 00 00 00 00 00
D410  00 00 00 00 00 00 00 00 00 00 00 00 00 00 00 00
D420  00 00 00 00 00 00 00 00 00 00 00 00 00 00 00 00
D430  00 00 00 00 00 00 00 00 00 00 00 00 00 00 00 00
D440  00 00 00 00 00 00 00 00 00 00 00 00 00 00 00 00
D450  00 00 00 00 00 00 00 00 00 00 00 00 00 00 00 00
D460  00 00 00 00 00 00 00 00 00 00 00 00 00 00 00 00
D470  00 00 00 00 00 00 00 00 00 00 00 00 00 00 00 00
D480  00 00 00 00 00 00 00 00 00 00 00 00 00 00 00 00
D490  00 00 00 00 00 00 00 00 00 00 00 00 00 00 00 00
D4A0  00 00 00 00 00 00 00 00 00 00 00 00 00 00 00 00
D4B0  00 00 00 00 00 00 00 00 00 00 00 00 00 00 00 00
D4C0  00 00 00 00 00 00 00 00 00 00 00 00 00 00 00 00
D4D0  00 00 00 00 00 00 00 00 00 00 00 00 00 00 00 00
D4E0  00 00 00 00 00 00 00 00 00 00 00 00 00 00 00 00
D4F0  00 00 00 00 00 00 00 00 00 00 00 00 00 00 00 00
D500  00 00 00 00 00 00 00 00 00 00 00 00 00 00 00 00
D510  00 00 00 00 00 00 00 00 00 00 00 00 00 00 00 00
D520  00 00 00 00 00 00 00 00 00 00 00 00 00 00 00 00
D530  00 00 00 00 00 00 00 00 00 00 00 00 00 00 00 00
D540  00 00 00 00 00 00 00 00 00 00 00 00 00 00 00 00
D550  00 00 00 00 00 00 00 00 00 00 00 00 00 00 00 00
D560  00 00 00 00 00 00 00 00 00 00 00 00 00 00 00 00
D570  00 00 00 00 00 00 00 00 00 00 00 00 00 00 00 00
D580  00 00 00 00 00 00 00 00 00 00 00 00 00 00 00 00
D590  00 00 00 00 00 00 00 00 00 00 00 00 00 00 00 00
D5A0  00 00 00 00 00 00 00 00 00 00 00 00 00 00 00 00
D5B0  00 00 00 00 00 00 00 00 00 00 00 00 00 00 00 00
D5C0  00 00 00 00 00 00 00 00 00 00 00 00 00 00 00 00
D5D0  00 00 00 00 00 00 00 00 00 00 00 00 00 00 00 00
D5E0  00 00 00 00 00 00 00 00 00 00 00 00 00 00 00 00
D5F0  00 00 00 00 00 00 00 00 00 00 00 00 00 00 00 00
D600  00 00 00 00 00 00 00 00 00 00 00 00 00 00 00 00
D610  00 00 00 00 00 00 00 00 00 00 00 00 00 00 00 00
D620  00 00 00 00 00 00 00 00 00 00 00 00 00 00 00 00
D630  00 00 00 00 00 00 00 00 00 00 00 00 00 00 00 00
D640  00 00 00 00 00 00 00 00 00 00 00 00 00 00 00 00
D650  00 00 00 00 00 00 00 00 00 00 00 00 00 00 00 00
D660  00 00 00 00 00 00 00 00 00 00 00 00 00 00 00 00
D670  00 00 00 00 00 00 00 00 00 00 00 00 00 00 00 00
D680  00 00 00 00 00 00 00 00 00 00 00 00 00 00 00 00
D690  00 00 00 00 00 00 00 00 00 00 00 00 00 00 00 00
D6A0  00 00 00 00 00 00 00 00 00 00 00 00 00 00 00 00
D6B0  00 00 00 00 00 00 00 00 00 00 00 00 00 00 00 00
D6C0  00 00 00 00 00 00 00 00 00 00 00 00 00 00 00 00
D6D0  00 00 00 00 00 00 00 00 00 00 00 00 00 00 00 00
D6E0  00 00 00 00 00 00 00 00 00 00 00 00 00 00 00 00
D6F0  00 00 00 00 00 00 00 00 00 00 00 00 00 00 00 00
D700  00 00 00 00 00 00 00 00 00 00 00 00 00 00 00 00
D710  00 00 00 00 00 00 00 00 00 00 00 00 00 00 00 00
D720  00 00 00 00 00 00 00 00 00 00 00 00 00 00 00 00
D730  00 00 00 00 00 00 00 00 00 00 00 00 00 00 00 00
D740  00 00 00 00 00 00 00 00 00 00 00 00 73 41 00 00
D750  4F 00 50 61 74 68 52 65 6D 6F 76 65 41 72 67 73
D760  41 00 C1 00 53 74 72 53 74 72 49 41 00 00 C0 00
D770  53 74 72 53 74 72 41 00 3C 00 50 61 74 68 49 73
D780  55 4E 43 53 65 72 76 65 72 41 00 00 3D 00 50 61
D790  74 68 49 73 55 4E 43 53 65 72 76 65 72 53 68 61
D7A0  72 65 41 00 25 00 50 61 74 68 47 65 74 41 72 67
D7B0  73 41 00 00 67 00 50 61 74 68 55 6E 71 75 6F 74
D7C0  65 53 70 61 63 65 73 41 00 00 51 00 50 61 74 68
D7D0  52 65 6D 6F 76 65 42 61 63 6B 73 6C 61 73 68 41
D7E0  00 00 47 00 50 61 74 68 4D 61 74 63 68 53 70 65
D7F0  63 41 00 00 03 00 47 65 74 4D 65 6E 75 50 6F 73
D800  46 72 6F 6D 49 44 00 00 49 00 50 61 74 68 50 61
D810  72 73 65 49 63 6F 6E 4C 6F 63 61 74 69 6F 6E 41
D820  00 00 2F 00 50 61 74 68 49 73 46 69 6C 65 53 70
D830  65 63 41 00 23 00 50 61 74 68 46 69 6E 64 4F 6E
D840  50 61 74 68 41 00 9B 00 53 74 72 43 53 70 6E 41
D850  00 00 77 00 53 48 47 65 74 56 61 6C 75 65 41 00
D860  5D 00 50 61 74 68 53 65 74 44 6C 67 49 74 65 6D
D870  50 61 74 68 41 00 27 00 50 61 74 68 47 65 74 43
D880  68 61 72 54 79 70 65 41 00 00 15 00 50 61 74 68
D890  43 6F 6D 70 61 63 74 50 61 74 68 41 00 00 A6 00
D8A0  53 74 72 43 6D 70 4E 49 41 00 37 00 50 61 74 68
D8B0  49 73 53 61 6D 65 52 6F 6F 74 41 00 35 00 50 61
D8C0  74 68 49 73 52 6F 6F 74 41 00 07 00 50 61 74 68
D8D0  41 64 64 42 61 63 6B 73 6C 61 73 68 41 00 05 00
D8E0  49 6E 74 6C 53 74 72 45 71 57 6F 72 6B 65 72 41
D8F0  00 00 55 00 50 61 74 68 52 65 6D 6F 76 65 45 78
D900  74 65 6E 73 69 6F 6E 41 00 00 57 00 50 61 74 68
D910  52 65 6D 6F 76 65 46 69 6C 65 53 70 65 63 41 00
D920  63 00 50 61 74 68 53 74 72 69 70 54 6F 52 6F 6F
D930  74 41 00 00 B8 00 53 74 72 52 43 68 72 41 00 00
D940  1D 00 50 61 74 68 46 69 6E 64 45 78 74 65 6E 73
D950  69 6F 6E 41 00 00 13 00 50 61 74 68 43 6F 6D 6D
D960  6F 6E 50 72 65 66 69 78 41 00 99 00 53 48 53 65
D970  74 56 61 6C 75 65 41 00 C4 00 53 74 72 54 6F 49
D980  6E 74 41 00 1F 00 50 61 74 68 46 69 6E 64 46 69
D990  6C 65 4E 61 6D 65 41 00 53 00 50 61 74 68 52 65
D9A0  6D 6F 76 65 42 6C 61 6E 6B 73 41 00 A0 00 53 74
D9B0  72 43 68 72 41 00 38 00 49 6D 61 67 65 4C 69 73
D9C0  74 5F 52 65 61 64 00 00 3F 00 49 6D 61 67 65 4C
D9D0  69 73 74 5F 53 65 74 49 63 6F 6E 53 69 7A 65 00
D9E0  4A 00 50 72 6F 70 65 72 74 79 53 68 65 65 74 41
D9F0  00 00 30 00 49 6D 61 67 65 4C 69 73 74 5F 47 65
DA00  74 49 63 6F 6E 53 69 7A 65 00 03 00 43 72 65 61
DA10  74 65 50 72 6F 70 65 72 74 79 53 68 65 65 74 50
DA20  61 67 65 41 00 00 2F 00 49 6D 61 67 65 4C 69 73
DA30  74 5F 47 65 74 49 63 6F 6E 00 44 00 49 6E 69 74
DA40  43 6F 6D 6D 6F 6E 43 6F 6E 74 72 6F 6C 73 45 78
DA50  00 00 41 00 49 6D 61 67 65 4C 69 73 74 5F 53 65
DA60  74 4F 76 65 72 6C 61 79 49 6D 61 67 65 00 42 00
DA70  49 6D 61 67 65 4C 69 73 74 5F 57 72 69 74 65 00
DA80  3B 00 49 6D 61 67 65 4C 69 73 74 5F 52 65 70 6C
DA90  61 63 65 49 63 6F 6E 00 28 00 49 6D 61 67 65 4C
DAA0  69 73 74 5F 44 72 61 77 00 00 29 00 49 6D 61 67
DAB0  65 4C 69 73 74 5F 44 72 61 77 45 78 00 00 39 00
DAC0  49 6D 61 67 65 4C 69 73 74 5F 52 65 6D 6F 76 65
DAD0  00 00 24 00 49 6D 61 67 65 4C 69 73 74 5F 44 72
DAE0  61 67 45 6E 74 65 72 00 3C 00 49 6D 61 67 65 4C
DAF0  69 73 74 5F 53 65 74 42 6B 43 6F 6C 6F 72 00 00
DB00  0B 00 44 65 73 74 72 6F 79 50 72 6F 70 65 72 74
DB10  79 53 68 65 65 74 50 61 67 65 00 00 2E 00 49 6D
DB20  61 67 65 4C 69 73 74 5F 47 65 74 44 72 61 67 49
DB30  6D 61 67 65 00 00 3D 00 49 6D 61 67 65 4C 69 73
DB40  74 5F 53 65 74 44 72 61 67 43 75 72 73 6F 72 49
DB50  6D 61 67 65 00 00 1D 00 49 6D 61 67 65 4C 69 73
DB60  74 5F 41 64 64 00 25 00 49 6D 61 67 65 4C 69 73
DB70  74 5F 44 72 61 67 4C 65 61 76 65 00 26 00 49 6D
DB80  61 67 65 4C 69 73 74 5F 44 72 61 67 4D 6F 76 65
DB90  00 00 20 00 49 6D 61 67 65 4C 69 73 74 5F 42 65
DBA0  67 69 6E 44 72 61 67 00 23 00 49 6D 61 67 65 4C
DBB0  69 73 74 5F 44 65 73 74 72 6F 79 00 27 00 49 6D
DBC0  61 67 65 4C 69 73 74 5F 44 72 61 67 53 68 6F 77
DBD0  4E 6F 6C 6F 63 6B 00 00 22 00 49 6D 61 67 65 4C
DBE0  69 73 74 5F 43 72 65 61 74 65 00 00 2C 00 49 6D
DBF0  61 67 65 4C 69 73 74 5F 45 6E 64 44 72 61 67 00
DC00  00 00 00 00 00 00 00 00 00 00 00 00 00 00 00 00
DC10  00 00 00 00 00 00 00 00 00 00 00 00 00 00 00 00
DC20  00 00 00 00 00 00 00 00 00 00 00 00 00 00 00 00
DC30  00 00 00 00 00 00 00 00 00 00 00 00 00 00 00 00
DC40  00 00 00 00 00 00 00 00 00 00 00 00 00 00 00 00
DC50  00 00 00 00 00 00 00 00 00 00 00 00 00 00 00 00
DC60  00 00 00 00 00 00 00 00 00 00 00 00 00 00 00 00
DC70  00 00 00 00 00 00 00 00 00 00 00 00 00 00 00 00
DC80  00 00 00 00 00 00 00 00 00 00 00 00 00 00 00 00
DC90  00 00 00 00 00 00 00 00 00 00 00 00 00 00 00 00
DCA0  00 00 00 00 00 00 00 00 00 00 00 00 00 00 00 00
DCB0  00 00 00 00 00 00 00 00 00 00 00 00 00 00 00 00
DCC0  00 00 00 00 00 00 00 00 00 00 00 00 00 00 00 00
DCD0  00 00 00 00 00 00 00 00 00 00 00 00 00 00 00 00
DCE0  00 00 00 00 00 00 00 00 00 00 00 00 00 00 00 00
DCF0  00 00 00 00 00 00 00 00 00 00 00 00 00 00 00 00
DD00  00 00 00 00 00 00 00 00 00 00 00 00 00 00 00 00
DD10  00 00 00 00 00 00 00 00 00 00 00 00 00 00 00 00
DD20  00 00 00 00 00 00 00 00 00 00 00 00 00 00 00 00
DD30  00 00 00 00 00 00 00 00 00 00 00 00 00 00 00 00
DD40  00 00 00 00 00 00 00 00 00 00 00 00 00 00 00 00
DD50  00 00 00 00 00 00 00 00 00 00 00 00 00 00 00 00
DD60  00 00 00 00 00 00 00 00 00 00 00 00 00 00 00 00
DD70  00 00 00 00 00 00 00 00 00 00 00 00 00 00 00 00
DD80  00 00 00 00 00 00 00 00 00 00 00 00 00 00 00 00
DD90  00 00 00 00 00 00 00 00 00 00 00 00 00 00 00 00
DDA0  00 00 00 00 00 00 00 00 00 00 00 00 00 00 00 00
DDB0  00 00 00 00 00 00 00 00 00 00 00 00 00 00 00 00
DDC0  00 00 00 00 00 00 00 00 00 00 00 00 00 00 00 00
DDD0  00 00 00 00 00 00 00 00 00 00 00 00 00 00 00 00
DDE0  00 00 00 00 00 00 00 00 00 00 00 00 00 00 00 00
DDF0  00 00 00 00 00 00 00 00 00 00 00 00 00 00 00 00
DE00  00 00 00 00 00 00 00 00 00 00 00 00 00 00 00 00
DE10  00 00 00 00 00 00 00 00 00 00 00 00 00 00 00 00
DE20  00 00 00 00 00 00 00 00 00 00 00 00 00 00 00 00
DE30  00 00 00 00 00 00 00 00 00 00 00 00 00 00 00 00
DE40  00 00 00 00 00 00 00 00 00 00 00 00 00 00 00 00
DE50  00 00 00 00 00 00 00 00 00 00 00 00 00 00 00 00
DE60  00 00 00 00 00 00 00 00 00 00 00 00 00 00 00 00
DE70  00 00 00 00 00 00 00 00 00 00 00 00 00 00 00 00
DE80  00 00 00 00 00 00 00 00 00 00 00 00 00 00 00 00
DE90  00 00 00 00 00 00 00 00 00 00 00 00 00 00 00 00
DEA0  00 00 00 00 00 00 00 00 00 00 00 00 00 00 00 00
DEB0  00 00 00 00 00 00 00 00 00 00 00 00 00 00 00 00
DEC0  00 00 00 00 00 00 00 00 00 00 00 00 00 00 00 00
DED0  00 00 00 00 00 00 00 00 00 00 00 00 00 00 00 00
DEE0  00 00 00 00 00 00 00 00 00 00 00 00 00 00 00 00
DEF0  00 00 00 00 00 00 00 00 00 00 00 00 00 00 00 00
DF00  00 00 00 00 00 00 00 00 00 00 00 00 00 00 00 00
DF10  00 00 00 00 00 00 00 00 00 00 00 00 00 00 00 00
DF20  00 00 00 00 00 00 00 00 00 00 00 00 00 00 00 00
DF30  00 00 00 00 00 00 00 00 00 00 00 00 00 00 00 00
DF40  00 00 00 00 00 00 00 00 00 00 00 00 00 00 00 00
DF50  00 00 00 00 00 00 00 00 00 00 00 00 00 00 00 00
DF60  00 00 00 00 00 00 00 00 00 00 00 00 00 00 00 00
DF70  00 00 00 00 00 00 00 00 00 00 00 00 00 00 00 00
DF80  00 00 00 00 00 00 00 00 00 00 00 00 00 00 00 00
DF90  00 00 00 00 00 00 00 00 00 00 00 00 00 00 00 00
DFA0  00 00 00 00 00 00 00 00 00 00 00 00 00 00 00 00
DFB0  00 00 00 00 00 00 00 00 00 00 00 00 00 00 00 00
DFC0  00 00 00 00 00 00 00 00 00 00 00 00 00 00 00 00
DFD0  00 00 00 00 00 00 00 00 00 00 00 00 00 00 00 00
DFE0  00 00 00 00 00 00 00 00 00 00 00 00 00 00 00 00
DFF0  00 00 00 00 00 00 00 00 00 00 00 00 00 00 00 00
E000  00 00 00 00 00 00 00 00 00 00 00 00 00 00 00 00
E010  00 00 00 00 00 00 00 00 00 00 00 00 00 00 00 00
E020  00 00 00 00 00 00 00 00 00 00 00 00 00 00 00 00
E030  00 00 00 00 00 00 00 00 00 00 00 00 00 00 00 00
E040  00 00 00 00 00 00 00 00 00 00 00 00 00 00 00 00
E050  00 00 00 00 00 00 00 00 00 00 00 00 00 00 00 00
E060  00 00 00 00 00 00 00 00 00 00 00 00 00 00 00 00
E070  00 00 00 00 00 00 00 00 00 00 00 00 00 00 00 00
E080  00 00 00 00 00 00 00 00 00 00 00 00 00 00 00 00
E090  00 00 00 00 00 00 00 00 00 00 00 00 00 00 00 00
E0A0  00 00 00 00 00 00 00 00 00 00 00 00 00 00 00 00
E0B0  00 00 00 00 00 00 00 00 00 00 00 00 00 00 00 00
E0C0  00 00 00 00 00 00 00 00 00 00 00 00 00 00 00 00
E0D0  00 00 00 00 00 00 00 00 00 00 00 00 00 00 00 00
E0E0  00 00 00 00 00 00 00 00 00 00 00 00 00 00 00 00
E0F0  00 00 00 00 00 00 00 00 00 00 00 00 00 00 00 00
E100  00 00 00 00 00 00 00 00 00 00 00 00 00 00 00 00
E110  00 00 00 00 00 00 00 00 00 00 00 00 00 00 00 00
E120  00 00 00 00 00 00 00 00 00 00 00 00 00 00 00 00
E130  00 00 00 00 00 00 00 00 00 00 00 00 00 00 00 00
E140  00 00 00 00 00 00 00 00 00 00 00 00 00 00 00 00
E150  00 00 00 00 00 00 00 00 00 00 00 00 00 00 00 00
E160  00 00 00 00 00 00 00 00 00 00 00 00 00 00 00 00
E170  00 00 00 00 00 00 00 00 00 00 00 00 00 00 00 00
E180  00 00 00 00 00 00 00 00 00 00 00 00 00 00 00 00
E190  00 00 00 00 00 00 00 00 00 00 00 00 00 00 00 00
E1A0  00 00 00 00 00 00 00 00 00 00 00 00 00 00 00 00
E1B0  00 00 00 00 00 00 00 00 00 00 00 00 00 00 00 00
E1C0  00 00 00 00 00 00 00 00 00 00 00 00 00 00 00 00
E1D0  00 00 00 00 00 00 00 00 00 00 00 00 00 00 00 00
E1E0  00 00 00 00 00 00 00 00 00 00 00 00 00 00 00 00
E1F0  00 00 00 00 00 00 00 00 00 00 00 00 00 00 00 00
E200  00 00 00 00 00 00 00 00 00 00 00 00 00 00 00 00
E210  00 00 00 00 00 00 00 00 00 00 00 00 00 00 00 00
E220  00 00 00 00 00 00 00 00 00 00 00 00 00 00 00 00
E230  00 00 00 00 00 00 00 00 00 00 00 00 00 00 00 00
E240  00 00 00 00 00 00 00 00 00 00 00 00 00 00 00 00
E250  00 00 00 00 00 00 00 00 00 00 00 00 00 00 00 00
E260  00 00 00 00 00 00 00 00 00 00 00 00 00 00 00 00
E270  00 00 00 00 00 00 00 00 00 00 00 00 00 00 00 00
E280  00 00 00 00 00 00 00 00 00 00 00 00 00 00 00 00
E290  00 00 00 00 00 00 00 00 00 00 00 00 00 00 00 00
E2A0  00 00 00 00 00 00 00 00 00 00 00 00 00 00 00 00
E2B0  00 00 00 00 00 00 00 00 00 00 00 00 00 00 00 00
E2C0  00 00 00 00 00 00 00 00 00 00 00 00 00 00 00 00
E2D0  00 00 00 00 00 00 00 00 00 00 00 00 00 00 00 00
E2E0  00 00 00 00 00 00 00 00 00 00 00 00 00 00 00 00
E2F0  00 00 00 00 00 00 00 00 00 00 00 00 00 00 00 00
E300  00 00 00 00 00 00 00 00 00 00 00 00 00 00 00 00
E310  00 00 00 00 00 00 00 00 00 00 00 00 00 00 00 00
E320  00 00 00 00 00 00 00 00 00 00 00 00 00 00 00 00
E330  00 00 00 00 00 00 00 00 00 00 00 00 00 00 00 00
E340  00 00 00 00 00 00 00 00 00 00 00 00 00 00 00 00
E350  00 00 00 00 00 00 00 00 00 00 00 00 00 00 00 00
E360  00 00 00 00 00 00 00 00 00 00 00 00 00 00 00 00
E370  00 00 00 00 00 00 00 00 00 00 00 00 00 00 00 00
E380  00 00 00 00 00 00 00 00 00 00 00 00 00 00 00 00
E390  00 00 00 00 00 00 00 00 00 00 00 00 00 00 00 00
E3A0  00 00 00 00 00 00 00 00 00 00 00 00 00 00 00 00
E3B0  00 00 00 00 00 00 00 00 00 00 00 00 00 00 00 00
E3C0  00 00 00 00 00 00 00 00 00 00 00 00 00 00 00 00
E3D0  00 00 00 00 00 00 00 00 00 00 00 00 00 00 00 00
E3E0  00 00 00 00 00 00 00 00 00 00 00 00 00 00 00 00
E3F0  00 00 00 00 00 00 00 00 00 00 00 00 00 00 00 00
E400  00 00 00 00 00 00 00 00 00 00 00 00 00 00 00 00
E410  00 00 00 00 00 00 00 00 00 00 00 00 00 00 00 00
E420  00 00 00 00 00 00 00 00 00 00 00 00 00 00 00 00
E430  00 00 00 00 00 00 00 00 00 00 00 00 00 00 00 00
E440  00 00 00 00 00 00 00 00 00 00 00 00 00 00 00 00
E450  00 00 00 00 00 00 00 00 00 00 00 00 00 00 00 00
E460  00 00 00 00 00 00 00 00 00 00 00 00 00 00 00 00
E470  00 00 00 00 00 00 00 00 00 00 00 00 00 00 00 00
E480  00 00 00 00 00 00 00 00 00 00 00 00 00 00 00 00
E490  00 00 00 00 00 00 00 00 00 00 00 00 00 00 00 00
E4A0  00 00 00 00 00 00 00 00 00 00 00 00 00 00 00 00
E4B0  00 00 00 00 00 00 00 00 00 00 00 00 00 00 00 00
E4C0  00 00 00 00 00 00 00 00 00 00 00 00 00 00 00 00
E4D0  00 00 00 00 00 00 00 00 00 00 00 00 00 00 00 00
E4E0  00 00 00 00 00 00 00 00 00 00 00 00 00 00 00 00
E4F0  00 00 00 00 00 00 00 00 00 00 00 00 00 00 00 00
E500  00 00 00 00 00 00 00 00 00 00 00 00 00 00 00 00
E510  00 00 00 00 00 00 00 00 00 00 00 00 00 00 00 00
E520  00 00 00 00 00 00 00 00 00 00 00 00 00 00 00 00
E530  00 00 00 00 00 00 00 00 00 00 00 00 00 00 00 00
E540  00 00 00 00 00 00 00 00 00 00 00 00 00 00 00 00
E550  00 00 00 00 00 00 00 00 00 00 00 00 00 00 00 00
E560  00 00 00 00 00 00 00 00 00 00 00 00 00 00 00 00
E570  00 00 00 00 00 00 00 00 00 00 00 00 00 00 00 00
E580  00 00 00 00 00 00 00 00 00 00 00 00 00 00 00 00
E590  00 00 00 00 00 00 00 00 00 00 00 00 00 00 00 00
E5A0  00 00 00 00 00 00 00 00 00 00 00 00 00 00 00 00
E5B0  00 00 00 00 00 00 00 00 00 00 00 00 00 00 00 00
E5C0  00 00 00 00 00 00 00 00 00 00 00 00 00 00 00 00
E5D0  00 00 00 00 00 00 00 00 00 00 00 00 00 00 00 00
E5E0  00 00 00 00 00 00 00 00 00 00 00 00 00 00 00 00
E5F0  00 00 00 00 00 00 00 00 00 00 00 00 00 00 00 00
E600  00 00 00 00 00 00 00 00 00 00 00 00 00 00 00 00
E610  00 00 00 00 00 00 00 00 00 00 00 00 00 00 00 00
E620  00 00 00 00 00 00 00 00 00 00 00 00 00 00 00 00
E630  00 00 00 00 00 00 00 00 00 00 00 00 00 00 00 00
E640  00 00 00 00 00 00 00 00 00 00 00 00 00 00 00 00
E650  00 00 00 00 00 00 00 00 00 00 00 00 00 00 00 00
E660  00 00 00 00 00 00 00 00 00 00 00 00 00 00 00 00
E670  00 00 00 00 00 00 00 00 00 00 00 00 00 00 00 00
E680  00 00 00 00 00 00 00 00 00 00 00 00 00 00 00 00
E690  00 00 00 00 00 00 00 00 00 00 00 00 00 00 00 00
E6A0  00 00 00 00 00 00 00 00 00 00 00 00 00 00 00 00
E6B0  00 00 00 00 00 00 00 00 00 00 00 00 00 00 00 00
E6C0  00 00 00 00 00 00 00 00 00 00 00 00 00 00 00 00
E6D0  00 00 00 00 00 00 00 00 00 00 00 00 00 00 00 00
E6E0  00 00 00 00 00 00 00 00 00 00 00 00 00 00 00 00
E6F0  00 00 00 00 00 00 00 00 00 00 00 00 00 00 00 00
E700  00 00 00 00 00 00 00 00 00 00 00 00 00 00 00 00
E710  00 00 00 00 00 00 00 00 00 00 00 00 00 00 00 00
E720  00 00 00 00 00 00 00 00 00 00 00 00 00 00 00 00
E730  00 00 00 00 00 00 00 00 00 00 00 00 00 00 00 00
E740  00 00 00 00 00 00 00 00 00 00 00 00 00 00 AC 00
E750  45 6E 61 62 6C 65 57 69 6E 64 6F 77 00 00 71 01
E760  4C 6F 61 64 43 75 72 73 6F 72 41 00 E2 01 53 65
E770  74 43 75 72 73 6F 72 00 AE 00 45 6E 64 44 69 61
E780  6C 6F 67 00 09 00 42 65 67 69 6E 50 61 69 6E 74
E790  00 00 77 01 4C 6F 61 64 49 6D 61 67 65 41 00 00
E7A0  AF 00 45 6E 64 50 61 69 6E 74 00 00 53 02 77 73
E7B0  70 72 69 6E 74 66 41 00 1E 00 43 68 61 72 4E 65
E7C0  78 74 41 00 3D 01 47 65 74 57 69 6E 64 6F 77 54
E7D0  65 78 74 41 00 00 13 02 53 65 74 57 69 6E 64 6F
E7E0  77 54 65 78 74 41 00 00 ED 00 47 65 74 44 6C 67
E7F0  49 74 65 6D 54 65 78 74 41 00 E8 01 53 65 74 44
E800  6C 67 49 74 65 6D 54 65 78 74 41 00 CF 01 53 65
E810  6E 64 44 6C 67 49 74 65 6D 4D 65 73 73 61 67 65
E820  41 00 EB 00 47 65 74 44 6C 67 49 74 65 6D 00 00
E830  1E 02 53 68 6F 77 57 69 6E 64 6F 77 00 00 7F 01
E840  4C 6F 61 64 53 74 72 69 6E 67 41 00 89 00 44 69
E850  61 6C 6F 67 42 6F 78 50 61 72 61 6D 41 00 FE 01
E860  53 65 74 52 65 63 74 00 3F 00 43 6F 70 79 52 65
E870  63 74 00 00 EA 00 47 65 74 46 69 6C 65 41 74 74
E880  72 69 62 75 74 65 73 41 00 00 ED 00 47 65 74 46
E890  69 6C 65 53 69 7A 65 00 5B 00 44 65 6C 65 74 65
E8A0  46 69 6C 65 41 00 A0 02 5F 6C 63 72 65 61 74 00
E8B0  39 00 43 72 65 61 74 65 45 76 65 6E 74 41 00 00
E8C0  F6 01 52 74 6C 55 6E 77 69 6E 64 00 5C 02 54 6C
E8D0  73 41 6C 6C 6F 63 00 00 61 02 54 6C 73 53 65 74
E8E0  56 61 6C 75 65 00 60 02 54 6C 73 47 65 74 56 61
E8F0  6C 75 65 00 1A 01 47 65 74 50 72 6F 63 65 73 73
E900  48 65 61 70 00 00 9E 02 5F 68 77 72 69 74 65 00
E910  9D 02 5F 68 72 65 61 64 00 00 64 01 47 6C 6F 62
E920  61 6C 52 65 41 6C 6C 6F 63 00 91 01 4C 43 4D 61
E930  70 53 74 72 69 6E 67 41 00 00 88 01 49 73 42 61
E940  64 57 72 69 74 65 50 74 72 00 23 01 47 65 74 50
E950  72 6F 66 69 6C 65 53 65 63 74 69 6F 6E 41 00 00
E960  06 01 47 65 74 4E 75 6D 62 65 72 46 6F 72 6D 61
E970  74 41 00 00 A2 02 5F 6C 6F 70 65 6E 00 00 E9 00
E980  47 65 74 45 78 69 74 43 6F 64 65 54 68 72 65 61
E990  64 00 25 01 47 65 74 50 72 6F 66 69 6C 65 53 74
E9A0  72 69 6E 67 41 00 98 02 57 72 69 74 65 50 72 6F
E9B0  66 69 6C 65 53 74 72 69 6E 67 41 00 86 01 49 73
E9C0  42 61 64 53 74 72 69 6E 67 50 74 72 41 00 49 00
E9D0  43 72 65 61 74 65 50 72 6F 63 65 73 73 41 00 00
E9E0  E2 00 47 65 74 45 6E 76 69 72 6F 6E 6D 65 6E 74
E9F0  53 74 72 69 6E 67 73 00 21 01 47 65 74 50 72 6F
EA00  66 69 6C 65 49 6E 74 41 00 00 40 02 53 65 74 53
EA10  79 73 74 65 6D 50 6F 77 65 72 53 74 61 74 65 00
EA20  70 01 48 65 61 70 43 72 65 61 74 65 00 00 6E 01
EA30  48 65 61 70 41 6C 6C 6F 63 00 71 01 48 65 61 70
EA40  44 65 73 74 72 6F 79 00 6A 02 55 6E 69 6E 69 74
EA50  69 61 6C 69 7A 65 43 72 69 74 69 63 61 6C 53 65
EA60  63 74 69 6F 6E 00 6B 00 45 6E 75 6D 52 65 73 6F
EA70  75 72 63 65 4E 61 6D 65 73 41 00 00 F0 01 52 65
EA80  6D 6F 76 65 44 69 72 65 63 74 6F 72 79 41 00 00
EA90  35 00 43 72 65 61 74 65 44 69 72 65 63 74 6F 72
EAA0  79 41 00 00 7E 01 49 6E 74 65 72 6C 6F 63 6B 65
EAB0  64 45 78 63 68 61 6E 67 65 00 0F 01 47 65 74 50
EAC0  72 69 76 61 74 65 50 72 6F 66 69 6C 65 53 65 63
EAD0  74 69 6F 6E 41 00 2A 00 43 6F 6D 70 61 72 65 46
EAE0  69 6C 65 54 69 6D 65 00 DE 01 52 61 69 73 65 45
EAF0  78 63 65 70 74 69 6F 6E 00 00 E0 00 47 65 74 44
EB00  72 69 76 65 54 79 70 65 41 00 7B 01 49 6E 69 74
EB10  69 61 6C 69 7A 65 43 72 69 74 69 63 61 6C 53 65
EB20  63 74 69 6F 6E 00 59 00 44 65 6C 65 74 65 43 72
EB30  69 74 69 63 61 6C 53 65 63 74 69 6F 6E 00 EE 01
EB40  52 65 6C 65 61 73 65 4D 75 74 65 78 00 00 EF 01
EB50  52 65 6C 65 61 73 65 53 65 6D 61 70 68 6F 72 65
EB60  00 00 ED 01 52 65 69 6E 69 74 69 61 6C 69 7A 65
EB70  43 72 69 74 69 63 61 6C 53 65 63 74 69 6F 6E 00
EB80  64 00 45 6E 74 65 72 43 72 69 74 69 63 61 6C 53
EB90  65 63 74 69 6F 6E 00 00 93 01 4C 65 61 76 65 43
EBA0  72 69 74 69 63 61 6C 53 65 63 74 69 6F 6E 00 00
EBB0  4C 00 43 72 65 61 74 65 53 65 6D 61 70 68 6F 72
EBC0  65 41 00 00 41 01 47 65 74 54 65 6D 70 50 61 74
EBD0  68 41 00 00 32 00 43 6F 70 79 46 69 6C 65 41 00
EBE0  F2 01 52 65 73 65 74 45 76 65 6E 74 00 00 2C 02
EBF0  53 65 74 45 76 65 6E 74 00 00 F3 01 52 65 73 75
EC00  6D 65 54 68 72 65 61 64 00 00 7C 02 57 61 69 74
EC10  46 6F 72 4D 75 6C 74 69 70 6C 65 4F 62 6A 65 63
EC20  74 73 00 00 7D 01 49 6E 74 65 72 6C 6F 63 6B 65
EC30  64 44 65 63 72 65 6D 65 6E 74 00 00 7E 02 57 61
EC40  69 74 46 6F 72 53 69 6E 67 6C 65 4F 62 6A 65 63
EC50  74 00 31 00 43 6F 6E 76 65 72 74 54 6F 47 6C 6F
EC60  62 61 6C 48 61 6E 64 6C 65 00 98 00 46 69 6E 64
EC70  43 6C 6F 73 65 43 68 61 6E 67 65 4E 6F 74 69 66
EC80  69 63 61 74 69 6F 6E 00 99 00 46 69 6E 64 46 69
EC90  72 73 74 43 68 61 6E 67 65 4E 6F 74 69 66 69 63
ECA0  61 74 69 6F 6E 41 00 00 9D 00 46 69 6E 64 4E 65
ECB0  78 74 43 68 61 6E 67 65 4E 6F 74 69 66 69 63 61
ECC0  74 69 6F 6E 00 00 87 01 49 73 42 61 64 53 74 72
ECD0  69 6E 67 50 74 72 57 00 B7 02 6C 73 74 72 6C 65
ECE0  6E 57 00 00 0F 02 53 65 61 72 63 68 50 61 74 68
ECF0  57 00 3F 00 43 72 65 61 74 65 46 69 6C 65 57 00
ED00  65 01 47 6C 6F 62 61 6C 53 69 7A 65 00 00 31 02
ED10  53 65 74 46 69 6C 65 50 6F 69 6E 74 65 72 00 00
ED20  3D 00 43 72 65 61 74 65 46 69 6C 65 4D 61 70 70
ED30  69 6E 67 41 00 00 B2 01 4D 61 70 56 69 65 77 4F
ED40  66 46 69 6C 65 00 6D 02 55 6E 6D 61 70 56 69 65
ED50  77 4F 66 46 69 6C 65 00 79 00 45 78 70 61 6E 64
ED60  45 6E 76 69 72 6F 6E 6D 65 6E 74 53 74 72 69 6E
ED70  67 73 41 00 0E 02 53 65 61 72 63 68 50 61 74 68
ED80  41 00 4B 02 53 65 74 56 6F 6C 75 6D 65 4C 61 62
ED90  65 6C 41 00 B5 00 47 65 74 41 43 50 00 00 51 01
EDA0  47 65 74 56 6F 6C 75 6D 65 49 6E 66 6F 72 6D 61
EDB0  74 69 6F 6E 41 00 5D 00 44 65 76 69 63 65 49 6F
EDC0  43 6F 6E 74 72 6F 6C 00 FD 00 47 65 74 4C 6F 67
EDD0  69 63 61 6C 44 72 69 76 65 73 00 00 4F 01 47 65
EDE0  74 56 65 72 73 69 6F 6E 45 78 41 00 F9 00 47 65
EDF0  74 4C 6F 63 61 6C 65 49 6E 66 6F 41 00 00 AA 00
EE00  46 6F 72 6D 61 74 4D 65 73 73 61 67 65 41 00 00
EE10  2B 00 43 6F 6D 70 61 72 65 53 74 72 69 6E 67 41
EE20  00 00 9C 01 4C 6F 63 61 6C 46 69 6C 65 54 69 6D
EE30  65 54 6F 46 69 6C 65 54 69 6D 65 00 8F 00 46 69
EE40  6C 65 54 69 6D 65 54 6F 44 6F 73 44 61 74 65 54
EE50  69 6D 65 00 EE 00 47 65 74 46 69 6C 65 54 69 6D
EE60  65 00 62 01 47 6C 6F 62 61 6C 4C 6F 63 6B 00 00
EE70  68 01 47 6C 6F 62 61 6C 55 6E 6C 6F 63 6B 00 00
EE80  57 01 47 6C 6F 62 61 6C 41 6C 6C 6F 63 00 5E 01
EE90  47 6C 6F 62 61 6C 46 72 65 65 00 00 80 01 49 6E
EEA0  74 65 72 6C 6F 63 6B 65 64 49 6E 63 72 65 6D 65
EEB0  6E 74 00 00 59 01 47 6C 6F 62 61 6C 44 65 6C 65
EEC0  74 65 41 74 6F 6D 00 00 55 01 47 6C 6F 62 61 6C
EED0  41 64 64 41 74 6F 6D 41 00 00 3C 00 43 72 65 61
EEE0  74 65 46 69 6C 65 41 00 48 02 53 65 74 54 68 72
EEF0  65 61 64 50 72 69 6F 72 69 74 79 00 3F 01 47 65
EF00  74 54 65 6D 70 46 69 6C 65 4E 61 6D 65 41 00 00
EF10  D1 00 47 65 74 43 75 72 72 65 6E 74 44 69 72 65
EF20  63 74 6F 72 79 41 00 00 23 02 53 65 74 43 75 72
EF30  72 65 6E 74 44 69 72 65 63 74 6F 72 79 41 00 00
EF40  2A 01 47 65 74 53 68 6F 72 74 50 61 74 68 4E 61
EF50  6D 65 41 00 E8 01 52 65 61 64 46 69 6C 65 00 00
EF60  8D 02 57 72 69 74 65 46 69 6C 65 00 A5 00 46 6C
EF70  75 73 68 46 69 6C 65 42 75 66 66 65 72 73 00 00
EF80  32 02 53 65 74 46 69 6C 65 54 69 6D 65 00 01 01
EF90  47 65 74 4D 6F 64 75 6C 65 48 61 6E 64 6C 65 41
EFA0  00 00 0D 01 47 65 74 50 72 69 76 61 74 65 50 72
EFB0  6F 66 69 6C 65 49 6E 74 41 00 90 00 46 69 6C 65
EFC0  54 69 6D 65 54 6F 4C 6F 63 61 6C 46 69 6C 65 54
EFD0  69 6D 65 00 91 00 46 69 6C 65 54 69 6D 65 54 6F
EFE0  53 79 73 74 65 6D 54 69 6D 65 00 00 D7 00 47 65
EFF0  74 44 61 74 65 46 6F 72 6D 61 74 41 00 00 49 01
F000  47 65 74 54 69 6D 65 46 6F 72 6D 61 74 41 00 00
F010  AA 02 6C 73 74 72 63 6D 70 41 00 00 35 01 47 65
F020  74 53 79 73 74 65 6D 44 69 72 65 63 74 6F 72 79
F030  41 00 13 01 47 65 74 50 72 69 76 61 74 65 50 72
F040  6F 66 69 6C 65 53 74 72 69 6E 67 41 00 00 89 01
F050  49 73 44 42 43 53 4C 65 61 64 42 79 74 65 00 00
F060  C4 01 4F 70 65 6E 50 72 6F 63 65 73 73 00 FF 00
F070  47 65 74 4D 6F 64 75 6C 65 46 69 6C 65 4E 61 6D
F080  65 41 00 00 2B 02 53 65 74 45 72 72 6F 72 4D 6F
F090  64 65 00 00 69 02 55 6E 68 61 6E 64 6C 65 64 45
F0A0  78 63 65 70 74 69 6F 6E 46 69 6C 74 65 72 00 00
F0B0  94 01 4C 6F 61 64 4C 69 62 72 61 72 79 41 00 00
F0C0  BD 01 4F 70 65 6E 45 76 65 6E 74 41 00 00 91 02
F0D0  57 72 69 74 65 50 72 69 76 61 74 65 50 72 6F 66
F0E0  69 6C 65 53 74 72 69 6E 67 41 00 00 39 01 47 65
F0F0  74 53 79 73 74 65 6D 54 69 6D 65 00 90 01 4B 33
F100  32 54 68 6B 31 36 33 32 50 72 6F 6C 6F 67 00 00
F110  8F 01 4B 33 32 54 68 6B 31 36 33 32 45 70 69 6C
F120  6F 67 00 00 B1 01 4D 61 70 53 4C 46 69 78 00 00
F130  68 02 55 6E 4D 61 70 53 4C 46 69 78 41 72 72 61
F140  79 00 5B 02 54 68 75 6E 6B 43 6F 6E 6E 65 63 74
F150  33 32 00 00 A9 01 4D 61 70 48 49 6E 73 74 4C 53
F160  00 00 D6 01 51 54 5F 54 68 75 6E 6B 00 00 01 02
F170  53 4D 61 70 4C 53 5F 49 50 5F 45 42 50 5F 38 00
F180  0B 02 53 55 6E 4D 61 70 4C 53 5F 49 50 5F 45 42
F190  50 5F 38 00 F9 01 53 4D 61 70 4C 53 5F 49 50 5F
F1A0  45 42 50 5F 31 32 00 00 03 02 53 55 6E 4D 61 70
F1B0  4C 53 5F 49 50 5F 45 42 50 5F 31 32 00 00 FA 01
F1C0  53 4D 61 70 4C 53 5F 49 50 5F 45 42 50 5F 31 36
F1D0  00 00 04 02 53 55 6E 4D 61 70 4C 53 5F 49 50 5F
F1E0  45 42 50 5F 31 36 00 00 FB 01 53 4D 61 70 4C 53
F1F0  5F 49 50 5F 45 42 50 5F 32 30 00 00 05 02 53 55
F200  6E 4D 61 70 4C 53 5F 49 50 5F 45 42 50 5F 32 30
F210  00 00 AF 01 4D 61 70 4C 53 00 67 02 55 6E 4D 61
F220  70 4C 53 00 A1 01 4C 6F 63 61 6C 52 65 41 6C 6C
F230  6F 63 00 00 9E 01 4C 6F 63 61 6C 46 72 65 65 00
F240  9A 01 4C 6F 63 61 6C 41 6C 6C 6F 63 00 00 82 01
F250  49 73 42 61 64 43 6F 64 65 50 74 72 00 00 85 01
F260  49 73 42 61 64 52 65 61 64 50 74 72 00 00 B0 00
F270  46 72 65 65 4C 69 62 72 61 72 79 00 48 01 47 65
F280  74 54 69 63 6B 43 6F 75 6E 74 00 00 D6 00 47 65
F290  74 43 75 72 72 65 6E 74 54 68 72 65 61 64 49 64
F2A0  00 00 A3 01 4C 6F 63 61 6C 53 69 7A 65 00 B3 02
F2B0  6C 73 74 72 63 70 79 6E 41 00 36 02 53 65 74 4C
F2C0  61 73 74 45 72 72 6F 72 00 00 F7 00 47 65 74 4C
F2D0  61 73 74 45 72 72 6F 72 00 00 17 01 47 65 74 50
F2E0  72 6F 63 41 64 64 72 65 73 73 00 00 95 01 4C 6F
F2F0  61 64 4C 69 62 72 61 72 79 45 78 41 00 00 AD 02
F300  6C 73 74 72 63 6D 70 69 41 00 53 01 47 65 74 57
F310  69 6E 64 6F 77 73 44 69 72 65 63 74 6F 72 79 41
F320  00 00 B0 02 6C 73 74 72 63 70 79 41 00 00 A4 02
F330  5F 6C 77 72 69 74 65 00 A1 02 5F 6C 6C 73 65 65
F340  6B 00 B6 01 4D 6F 76 65 46 69 6C 65 41 00 9F 02
F350  5F 6C 63 6C 6F 73 65 00 A3 02 5F 6C 72 65 61 64
F360  00 00 51 02 53 6C 65 65 70 00 28 02 53 65 74 45
F370  6E 64 4F 66 46 69 6C 65 00 00 25 00 43 6C 6F 73
F380  65 48 61 6E 64 6C 65 00 50 00 43 72 65 61 74 65
F390  54 68 72 65 61 64 00 00 B6 02 6C 73 74 72 6C 65
F3A0  6E 41 00 00 DC 00 47 65 74 44 69 73 6B 46 72 65
F3B0  65 53 70 61 63 65 41 00 82 02 57 69 64 65 43 68
F3C0  61 72 54 6F 4D 75 6C 74 69 42 79 74 65 00 A7 02
F3D0  6C 73 74 72 63 61 74 41 00 00 97 00 46 69 6E 64
F3E0  43 6C 6F 73 65 00 9B 00 46 69 6E 64 46 69 72 73
F3F0  74 46 69 6C 65 41 00 00 2F 02 53 65 74 46 69 6C
F400  65 41 74 74 72 69 62 75 74 65 73 41 00 00 9E 00
F410  46 69 6E 64 4E 65 78 74 46 69 6C 65 41 00 55 02
F420  53 79 73 74 65 6D 54 69 6D 65 54 6F 46 69 6C 65
F430  54 69 6D 65 00 00 D4 00 47 65 74 43 75 72 72 65
F440  6E 74 50 72 6F 63 65 73 73 49 64 00 60 00 44 6F
F450  73 44 61 74 65 54 69 6D 65 54 6F 46 69 6C 65 54
F460  69 6D 65 00 B1 02 6C 73 74 72 63 70 79 57 00 00
F470  AB 02 6C 73 74 72 63 6D 70 57 00 00 BB 01 4D 75
F480  6C 74 69 42 79 74 65 54 6F 57 69 64 65 43 68 61
F490  72 00 C0 00 52 65 67 53 65 74 56 61 6C 75 65 41
F4A0  00 00 99 00 52 65 67 43 72 65 61 74 65 4B 65 79
F4B0  41 00 C1 00 52 65 67 53 65 74 56 61 6C 75 65 45
F4C0  78 41 00 00 9D 00 52 65 67 44 65 6C 65 74 65 4B
F4D0  65 79 41 00 9F 00 52 65 67 44 65 6C 65 74 65 56
F4E0  61 6C 75 65 41 00 A1 00 52 65 67 45 6E 75 6D 4B
F4F0  65 79 41 00 A5 00 52 65 67 45 6E 75 6D 56 61 6C
F500  75 65 41 00 B0 00 52 65 67 51 75 65 72 79 49 6E
F510  66 6F 4B 65 79 41 00 00 9A 00 52 65 67 43 72 65
F520  61 74 65 4B 65 79 45 78 41 00 AD 00 52 65 67 4F
F530  70 65 6E 4B 65 79 45 78 41 00 96 00 52 65 67 43
F540  6C 6F 73 65 4B 65 79 00 AE 00 52 65 67 4F 70 65
F550  6E 4B 65 79 45 78 57 00 8D 00 53 48 52 65 67 47
F560  65 74 55 53 56 61 6C 75 65 41 00 00 2B 00 50 61
F570  74 68 49 73 43 6F 6E 74 65 6E 74 54 79 70 65 41
F580  00 00 0B 00 50 61 74 68 41 70 70 65 6E 64 41 00
F590  7F 00 53 48 51 75 65 72 79 56 61 6C 75 65 45 78
F5A0  57 00 7A 00 53 48 4F 70 65 6E 52 65 67 53 74 72
F5B0  65 61 6D 41 00 00 79 00 53 48 49 73 4C 6F 77 4D
F5C0  65 6D 6F 72 79 4D 61 63 68 69 6E 65 00 00 CA 00
F5D0  55 72 6C 41 70 70 6C 79 53 63 68 65 6D 65 41 00
F5E0  AC 00 53 74 72 44 75 70 41 00 61 00 50 61 74 68
F5F0  53 74 72 69 70 50 61 74 68 41 00 00 4D 00 50 61
F600  74 68 52 65 6C 61 74 69 76 65 50 61 74 68 54 6F
F610  41 00 09 00 50 61 74 68 41 64 64 45 78 74 65 6E
F620  73 69 6F 6E 41 00 43 00 50 61 74 68 4D 61 6B 65
F630  50 72 65 74 74 79 41 00 41 00 50 61 74 68 49 73
F640  55 52 4C 41 00 00 0F 00 50 61 74 68 43 61 6E 6F
F650  6E 69 63 61 6C 69 7A 65 41 00 7E 00 53 48 51 75
F660  65 72 79 56 61 6C 75 65 45 78 41 00 45 00 50 61
F670  74 68 4D 61 6B 65 53 79 73 74 65 6D 46 6F 6C 64
F680  65 72 41 00 65 00 50 61 74 68 55 6E 6D 61 6B 65
F690  53 79 73 74 65 6D 46 6F 6C 64 65 72 41 00 A5 00
F6A0  53 74 72 43 6D 70 4E 41 00 00 0D 00 50 61 74 68
F6B0  42 75 69 6C 64 52 6F 6F 74 41 00 00 19 00 50 61
F6C0  74 68 43 72 65 61 74 65 46 72 6F 6D 55 72 6C 41
F6D0  00 00 D2 00 55 72 6C 43 72 65 61 74 65 46 72 6F
F6E0  6D 50 61 74 68 41 00 00 DC 00 55 72 6C 49 73 41
F6F0  00 00 CE 00 55 72 6C 43 6F 6D 62 69 6E 65 41 00
F700  C5 00 53 74 72 54 6F 49 6E 74 45 78 41 00 59 00
F710  50 61 74 68 52 65 6E 61 6D 65 45 78 74 65 6E 73
F720  69 6F 6E 41 00 00 AB 00 53 74 72 43 70 79 57 00
F730  AA 00 53 74 72 43 70 79 4E 57 00 00 4B 00 50 61
F740  74 68 51 75 6F 74 65 53 70 61 63 65 E8 59 FD FF
F750  FF 8B F0 EB 03 8B 75 FC 5F 8B C6 5E 5B C9 C2 18
F760  00 55 8B EC 83 EC 14 56 57 FF 75 10 33 F6 E8 B5
F770  8A FF FF 8B F8 83 FF FF 74 29 57 8D 45 EC 50 E8
F780  E6 87 FF FF 8D 45 10 50 FF 75 14 8D 45 EC 50 57
F790  FF 75 0C FF 75 08 E8 81 FE FF FF 83 7D 10 00 8B
F7A0  F0 75 E1 5F 8B C6 5E C9 C2 10 00 55 8B EC 81 EC
F7B0  08 02 00 00 68 04 01 00 00 8D 85 F8 FD FF FF 50
F7C0  FF 75 10 E8 2A B6 FE FF FF 75 14 8D 85 F8 FD FF
F7D0  FF 50 FF 75 0C FF 75 08 E8 84 FF FF FF C9 C2 10
F7E0  00 55 8B EC 83 EC 44 56 33 F6 39 75 0C 75 04 33
F7F0  C0 EB 63 53 57 FF 75 0C 33 DB E8 D4 D3 FE FF 8B
F800  F8 FF B6 3C B0 C2 70 57 FF B6 38 B0 C2 70 E8 66
F810  98 FE FF 85 C0 74 0A 83 C6 08 83 FE 60 72 E2 EB
F820  31 83 65 E0 00 6A 07 59 33 C0 21 45 BC 8D 7D E4
F830  F3 AB BE 6C EA BE 70 8D 7D C0 A5 A5 6A 01 8D 45
F840  E0 50 8D 45 BC A5 50 FF 75 08 A5 E8 61 25 00 00
F850  8B D8 5F 8B C3 5B 5E C9 C2 08 00 55 8B EC 81 EC
F860  04 01 00 00 83 7D 0C 00 75 04 33 C0 EB 23 68 04
F870  01 00 00 8D 85 FC FE FF FF 50 FF 75 0C E8 42 B7
F880  FE FF 8D 85 FC FE FF FF 50 FF 75 08 E8 50 FF FF
F890  FF C9 C2 08 00 8B 44 24 04 8B C8 81 E1 00 00 FF
F8A0  1F 81 F9 00 00 07 00 75 07 25 FF FF 00 00 EB 12
F8B0  33 C9 3D 05 00 07 80 0F 95 C1 49 83 E1 03 41 41
F8C0  8B C1 50 FF 15 FC 13 BD 70 33 C0 C2 04 00 55 8B
F8D0  EC FF 75 0C FF 75 08 E8 7F FF FF FF 85 C0 7C 2F
F8E0  83 7D 1C 00 74 16 FF 75 18 FF 75 14 FF 75 10 FF
F8F0  75 0C FF 75 08 E8 76 3A 00 00 EB 15 FF 75 14 FF
F900  75 10 FF 75 0C FF 75 08 E8 73 80 01 00 EB 02 33
F910  C0 5D C2 18 00 55 8B EC FF 75 0C FF 75 08 E8 BE
F920  FE FF FF 85 C0 7C 2F 83 7D 1C 00 74 16 FF 75 18
F930  FF 75 14 FF 75 10 FF 75 0C FF 75 08 E8 9B 39 00
F940  00 EB 15 FF 75 14 FF 75 10 FF 75 0C FF 75 08 E8
F950  34 7F 01 00 EB 02 33 C0 5D C2 18 00 55 8B EC FF
F960  75 0C FF 75 08 E8 F1 FE FF FF 85 C0 7C 20 83 7D
F970  18 00 FF 75 14 FF 75 10 FF 75 0C FF 75 08 74 07
F980  E8 6F 3A 00 00 EB 0D E8 39 4D FF FF EB 06 50 E8
F990  01 FF FF FF 5D C2 14 00 55 8B EC FF 75 0C FF 75
F9A0  08 E8 3B FE FF FF 85 C0 7C 21 83 7D 18 00 FF 75
F9B0  14 FF 75 10 FF 75 0C FF 75 08 74 07 E8 6D 39 00
F9C0  00 EB 0E FF 15 C4 17 BD 70 EB 06 50 E8 C4 FE FF
F9D0  FF 5D C2 14 00 B8 01 40 00 80 C2 08 00 FF 74 24
F9E0  08 8B 44 24 08 8B 08 68 40 DB BE 70 50 FF 11 C2
F9F0  08 00 55 8B EC 51 83 65 FC 00 83 3D 04 B6 C2 70
FA00  00 6A 02 58 74 03 6A 0A 58 8D 4D FC 51 68 30 75
FA10  00 00 50 FF 75 10 FF 75 0C FF 75 08 68 FF FF 00
FA20  00 FF 15 20 16 BD 70 8B 45 FC C9 C2 0C 00 55 8B
FA30  EC 51 83 65 FC 00 83 3D 04 B6 C2 70 00 6A 02 58
FA40  74 03 6A 0A 58 8D 4D FC 51 68 30 75 00 00 50 FF
FA50  75 10 FF 75 0C FF 75 08 68 FF FF 00 00 E8 E1 65
FA60  FF FF 8B 45 FC C9 C2 0C 00 55 8B EC 81 EC 04 01
FA70  00 00 53 56 57 68 00 01 00 00 8D 85 FC FE FF FF
FA80  50 FF 75 08 FF 15 B4 17 BD 70 85 C0 74 55 8D 85
FA90  FC FE FF FF 50 FF 15 50 14 BD 70 8B 75 0C 33 FF
FAA0  39 7E 04 8B D8 76 3C 8B 06 8B 04 F8 0F BE 08 3B
FAB0  D9 7D 02 8B CB 51 40 50 8D 85 FC FE FF FF 50 E8
FAC0  DC 94 FE FF 85 C0 75 15 8D 45 FC 50 FF 75 08 FF
FAD0  15 1C 15 BD 70 8B 45 FC 3B 46 08 74 10 47 3B 7E
FAE0  04 72 C4 33 C0 40 5F 5E 5B C9 C2 08 00 89 7E 0C
FAF0  33 C0 EB F2 55 8B EC B8 08 10 00 00 E8 3B 7D 01
FB00  00 56 8B 75 0C 85 F6 0F 84 23 01 00 00 83 65 0C
FB10  00 8D 45 F8 50 FF 75 08 E8 CA 8C 01 00 89 45 FC
FB20  B8 00 10 00 00 39 45 FC 0F 87 07 01 00 00 8D 8D
FB30  F8 EF FF FF 51 50 FF 75 F8 FF 75 08 E8 96 8C 01
FB40  00 85 C0 0F 84 EC 00 00 00 8D 45 FC 50 8D 45 0C
FB50  50 68 80 D4 BD 70 8D 85 F8 EF FF FF 50 E8 65 8C
FB60  01 00 85 C0 75 74 8D 45 FC 50 8D 45 0C 50 68 58
FB70  D4 BD 70 8D 85 F8 EF FF FF 50 E8 48 8C 01 00 85
FB80  C0 75 57 8D 45 FC 50 8D 45 0C 50 68 30 D4 BD 70
FB90  8D 85 F8 EF FF FF 50 E8 2B 8C 01 00 85 C0 75 3A
FBA0  8D 45 FC 50 8D 45 0C 50 68 08 D4 BD 70 8D 85 F8
FBB0  EF FF FF 50 E8 0E 8C 01 00 85 C0 75 1D 8D 45 FC
FBC0  50 8D 45 0C 50 68 E0 D3 BD 70 8D 85 F8 EF FF FF
FBD0  50 E8 F1 8B 01 00 85 C0 74 5B 80 3E 01 75 25 6A
FBE0  2C FF 75 0C E8 D7 8C FE FF 85 C0 74 03 80 20 00
FBF0  6A 2E FF 75 0C E8 C6 8C FE FF 85 C0 74 03 80 20
FC00  00 46 EB 1E 6A 2A 56 E8 B4 8C FE FF 85 C0 74 12
FC10  2B C6 74 0E 50 56 FF 75 0C E8 5B 94 FE FF 85 C0
FC20  74 0E 56 FF 75 0C FF 15 44 14 BD 70 85 C0 75 05
FC30  33 C0 40 EB 02 33 C0 5E C9 C2 08 00 53 57 33 C0
FC40  33 DB 33 FF 39 44 24 14 76 29 56 8B 74 24 14 EB
FC50  02 33 C0 50 50 50 FF 74 FE 04 50 FF 74 24 24 E8
FC60  B7 64 FE FF 85 C0 75 03 0B 1C FE 47 3B 7C 24 18
FC70  72 DF 5E 5F 8B C3 5B C2 0C 00 55 8B EC 81 EC 1C
FC80  02 00 00 53 56 57 FF 75 08 33 DB 89 5D F8 E8 40
FC90  CF FE FF 50 68 A0 D6 BD 70 BE 04 01 00 00 8D 85
FCA0  E8 FE FF FF 56 50 E8 90 BA FE FF 8B 3D 10 10 BD
FCB0  70 83 C4 10 8D 45 F4 50 6A 09 53 8D 85 E8 FE FF
FCC0  FF 50 68 02 00 00 80 FF D7 85 C0 0F 85 08 01 00
FCD0  00 56 FF 75 08 8D 85 E4 FD FF FF 50 FF 15 08 14
FCE0  BD 70 8D 85 E4 FD FF FF 50 E8 2C CE FE FF 88 9D
FCF0  E8 FE FF FF 89 5D F0 8D 45 FC 50 6A 01 53 8D 85
FD00  E8 FE FF FF 50 FF 75 F4 FF D7 85 C0 0F 85 9F 00
FD10  00 00 8D 45 EC 50 8D 85 E8 FE FF FF 50 53 68 90
FD20  D6 BD 70 53 FF 75 FC 89 75 EC E8 EC 63 FE FF 85
FD30  C0 75 1C 8D 85 E8 FE FF FF 50 8D 85 E4 FD FF FF
FD40  50 8D 85 E8 FE FF FF 50 E8 57 E4 FE FF EB 02 33
FD50  C0 3B C3 74 0C 50 FF 15 B0 11 BD 70 83 F8 FF 74
FD60  47 8D 45 EC 50 8D 85 E8 FE FF FF 50 53 68 88 D6
FD70  BD 70 53 FF 75 FC E8 A0 63 FE FF F7 D8 1B C0 F7
FD80  D0 8D 8D E8 FE FF FF 23 C1 50 FF 75 08 E8 62 FD
FD90  FF FF 85 C0 74 12 6A 13 68 F0 D5 BD 70 FF 75 FC
FDA0  E8 97 FE FF FF 09 45 F8 FF 75 FC FF 15 A8 10 BD
FDB0  70 56 8D 85 E8 FE FF FF 50 FF 75 F0 FF 75 F4 FF
FDC0  15 24 10 BD 70 FF 45 F0 85 C0 0F 84 27 FF FF FF
FDD0  FF 75 F4 FF 15 A8 10 BD 70 8B 45 F8 5F 5E 5B C9
FDE0  C2 04 00 55 8D 6C 24 8C 81 EC 90 00 00 00 F7 45
FDF0  7C DF 7E 07 00 56 0F 84 AA 00 00 00 33 F6 39 35
FE00  50 B7 C2 70 0F 85 9C 00 00 00 56 FF 15 84 13 BD
FE10  70 3D 00 00 05 00 0F 83 80 00 00 00 68 80 00 00
FE20  00 8D 45 E4 50 56 FF 15 5C 12 BD 70 50 FF 15 1C
FE30  14 BD 70 85 C0 74 65 53 8D 45 E4 50 E8 92 CD FE
FE40  FF 8B D8 3B DE 74 54 57 33 FF 53 FF B6 F0 D8 BD
FE50  70 FF 15 44 14 BD 70 85 C0 75 13 FF B6 F4 D8 BD
FE60  70 8D 45 E4 50 E8 8A FC FF FF 85 C0 75 0E 83 C6
FE70  0C 47 81 FE A4 01 00 00 72 D0 EB 0F 8D 04 7F 8B
FE80  04 85 F8 D8 BD 70 A3 4C B7 C2 70 8D 45 E4 50 E8
FE90  E6 FD FF FF 09 05 4C B7 C2 70 5F 5B C7 05 50 B7
FEA0  C2 70 01 00 00 00 F7 45 7C 00 01 00 01 74 52 BE
FEB0  00 00 00 80 85 35 4C B7 C2 70 75 45 FF 15 2C 14
FEC0  BD 70 83 4D 70 FF 89 45 6C 8D 45 64 50 68 1D B3
FED0  C0 70 C7 45 64 DC D8 BD 70 C7 45 68 02 00 00 00
FEE0  FF 15 F8 16 BD 70 8B 45 70 83 F8 FF 7E 0D 8B 04
FEF0  C5 E0 D8 BD 70 09 05 4C B7 C2 70 09 35 4C B7 C2
FF00  70 A1 4C B7 C2 70 5E 83 C5 74 C9 C2 04 00 55 8B
FF10  EC 81 EC 2C 01 00 00 56 6A 27 8D 45 D8 50 FF 75
FF20  08 33 F6 E8 9E 3A FE FF 8D 45 D8 50 68 A8 DB BD
FF30  70 8D 85 D4 FE FF FF 68 04 01 00 00 50 E8 F9 B7
FF40  FE FF 83 C4 10 8D 45 08 50 6A 01 56 8D 85 D4 FE
FF50  FF FF 50 68 02 00 00 80 FF 15 10 10 BD 70 85 C0
FF60  75 1A 6A 0B 68 50 DB BD 70 FF 75 08 E8 CB FC FF
FF70  FF FF 75 08 8B F0 FF 15 A8 10 BD 70 8B C6 5E C9
FF80  C2 04 00 55 8B EC 83 EC 10 53 33 DB 39 5D 08 56
FF90  57 74 0E 8D 45 F0 50 FF 75 08 E8 14 D5 FF FF EB
FFA0  10 8B 75 0C 3B F3 74 46 8D 7D F0 A5 A5 A5 A5 33
FFB0  C0 3B C3 7C 39 A1 F0 DB BD 70 33 D2 3B C3 74 23
FFC0  6A 04 8B F8 59 8D 75 F0 33 C0 F3 A7 74 0E 8B 04
FFD0  D5 F8 DB BD 70 42 85 C0 75 E6 EB 07 8B 1C D5 F4
FFE0  DB BD 70 8D 45 F0 50 E8 22 FF FF FF 0B D8 5F 5E
FFF0  8B C3 5B C9 C2 08 00 55 8B EC 56 8D 01 10 87 2A


tasm: Number of errors = 0
